///////////////////////////////////////////////////////////////////////////////
//                                                                            /
// IAR C/C++ Compiler V8.20.2.41139 for 8051            05/Oct/2015  18:15:12 /
// Copyright 2004-2013 IAR Systems AB.                                        /
//                                                                            /
//    Core               =  plain                                             /
//    Code model         =  banked                                            /
//    Data model         =  large                                             /
//    Calling convention =  xdata reentrant                                   /
//    Constant location  =  data_rom                                          /
//    Dptr setup         =  1,16                                              /
//                                                                            /
//    Source file        =  C:\Users\user\Desktop\3 new task perfect ROOM1    /
//                          DHT22\ZStack-2.5.1a\Projects\zstack\Samples\Sampl /
//                          eApp\Source\SampleApp.c                           /
//    Command line       =  -f "C:\Users\user\Desktop\3 new task perfect      /
//                          ROOM1 DHT22\ZStack-2.5.1a\Projects\zstack\Samples /
//                          \SampleApp\CC2530DB\..\..\..\Tools\CC2530DB\f8wCo /
//                          ord.cfg" (-DCPU32MHZ -DROOT=__near_func           /
//                          -DMAC_CFG_APP_PENDING_QUEUE=TRUE                  /
//                          -DMAC_CFG_TX_DATA_MAX=5 -DMAC_CFG_TX_MAX=8        /
//                          -DMAC_CFG_RX_MAX=5 -DZDO_COORDINATOR -DRTR_NWK)   /
//                          -f "C:\Users\user\Desktop\3 new task perfect      /
//                          ROOM1 DHT22\ZStack-2.5.1a\Projects\zstack\Samples /
//                          \SampleApp\CC2530DB\..\..\..\Tools\CC2530DB\f8wCo /
//                          nfig.cfg" (-DZIGBEEPRO -DSECURE=0                 /
//                          -DZG_SECURE_DYNAMIC=0 -DREFLECTOR                 /
//                          -DDEFAULT_CHANLIST=0x00000800                     /
//                          -DZDAPP_CONFIG_PAN_ID=0xFFF1                      /
//                          -DNWK_START_DELAY=100 -DEXTENDED_JOINING_RANDOM_M /
//                          ASK=0x007F -DBEACON_REQUEST_DELAY=100             /
//                          -DBEACON_REQ_DELAY_MASK=0x00FF                    /
//                          -DLINK_STATUS_JITTER_MASK=0x007F                  /
//                          -DROUTE_EXPIRY_TIME=30 -DAPSC_ACK_WAIT_DURATION_P /
//                          OLLED=3000 -DNWK_INDIRECT_MSG_TIMEOUT=7           /
//                          -DMAX_RREQ_ENTRIES=8 -DAPSC_MAX_FRAME_RETRIES=3   /
//                          -DNWK_MAX_DATA_RETRIES=2                          /
//                          -DMAX_POLL_FAILURE_RETRIES=2 -DMAX_BCAST=9        /
//                          -DAPS_MAX_GROUPS=16 -DMAX_RTG_ENTRIES=40          /
//                          -DNWK_MAX_BINDING_ENTRIES=4                       /
//                          -DMAX_BINDING_CLUSTER_IDS=4                       /
//                          "-DDEFAULT_KEY={0x01, 0x03, 0x05, 0x07, 0x09,     /
//                          0x0B, 0x0D, 0x0F, 0x00, 0x02, 0x04, 0x06, 0x08,   /
//                          0x0A, 0x0C, 0x0D}" -DMAC_MAX_FRAME_SIZE=116       /
//                          -DZDNWKMGR_MIN_TRANSMISSIONS=20 "-DCONST=const    /
//                          __code" -DGENERIC=__generic                       /
//                          -DRFD_RCVC_ALWAYS_ON=FALSE -DPOLL_RATE=1000       /
//                          -DQUEUED_POLL_RATE=100 -DRESPONSE_POLL_RATE=100)  /
//                          -DREJOIN_POLL_RATE=440 "C:\Users\user\Desktop\3   /
//                          new task perfect ROOM1 DHT22\ZStack-2.5.1a\Projec /
//                          ts\zstack\Samples\SampleApp\Source\SampleApp.c"   /
//                          -D ZTOOL_P1 -D xMT_TASK -D xMT_SYS_FUNC -D        /
//                          xMT_ZDO_FUNC -D LCD_SUPPORTED=DEBUG -lC           /
//                          "C:\Users\user\Desktop\3 new task perfect ROOM1   /
//                          DHT22\ZStack-2.5.1a\Projects\zstack\Samples\Sampl /
//                          eApp\CC2530DB\CoordinatorEB\List\" -lA            /
//                          "C:\Users\user\Desktop\3 new task perfect ROOM1   /
//                          DHT22\ZStack-2.5.1a\Projects\zstack\Samples\Sampl /
//                          eApp\CC2530DB\CoordinatorEB\List\"                /
//                          --diag_suppress Pe001,Pa010 -o                    /
//                          "C:\Users\user\Desktop\3 new task perfect ROOM1   /
//                          DHT22\ZStack-2.5.1a\Projects\zstack\Samples\Sampl /
//                          eApp\CC2530DB\CoordinatorEB\Obj\" -e              /
//                          --no_code_motion --debug --core=plain             /
//                          --dptr=16,1 --data_model=large                    /
//                          --code_model=banked --calling_convention=xdata_re /
//                          entrant --place_constants=data_rom                /
//                          --nr_virtual_regs 16 -I "C:\Users\user\Desktop\3  /
//                          new task perfect ROOM1 DHT22\ZStack-2.5.1a\Projec /
//                          ts\zstack\Samples\SampleApp\CC2530DB\" -I         /
//                          "C:\Users\user\Desktop\3 new task perfect ROOM1   /
//                          DHT22\ZStack-2.5.1a\Projects\zstack\Samples\Sampl /
//                          eApp\CC2530DB\..\Source\" -I                      /
//                          "C:\Users\user\Desktop\3 new task perfect ROOM1   /
//                          DHT22\ZStack-2.5.1a\Projects\zstack\Samples\Sampl /
//                          eApp\CC2530DB\..\..\..\ZMain\TI2530DB\" -I        /
//                          "C:\Users\user\Desktop\3 new task perfect ROOM1   /
//                          DHT22\ZStack-2.5.1a\Projects\zstack\Samples\Sampl /
//                          eApp\CC2530DB\..\..\..\..\..\Components\hal\inclu /
//                          de\" -I "C:\Users\user\Desktop\3 new task         /
//                          perfect ROOM1 DHT22\ZStack-2.5.1a\Projects\zstack /
//                          \Samples\SampleApp\CC2530DB\..\..\..\..\..\Compon /
//                          ents\hal\target\CC2530EB\" -I                     /
//                          "C:\Users\user\Desktop\3 new task perfect ROOM1   /
//                          DHT22\ZStack-2.5.1a\Projects\zstack\Samples\Sampl /
//                          eApp\CC2530DB\..\..\..\..\..\Components\mac\inclu /
//                          de\" -I "C:\Users\user\Desktop\3 new task         /
//                          perfect ROOM1 DHT22\ZStack-2.5.1a\Projects\zstack /
//                          \Samples\SampleApp\CC2530DB\..\..\..\..\..\Compon /
//                          ents\mac\high_level\" -I                          /
//                          "C:\Users\user\Desktop\3 new task perfect ROOM1   /
//                          DHT22\ZStack-2.5.1a\Projects\zstack\Samples\Sampl /
//                          eApp\CC2530DB\..\..\..\..\..\Components\mac\low_l /
//                          evel\srf04\" -I "C:\Users\user\Desktop\3 new      /
//                          task perfect ROOM1 DHT22\ZStack-2.5.1a\Projects\z /
//                          stack\Samples\SampleApp\CC2530DB\..\..\..\..\..\C /
//                          omponents\mac\low_level\srf04\single_chip\" -I    /
//                          "C:\Users\user\Desktop\3 new task perfect ROOM1   /
//                          DHT22\ZStack-2.5.1a\Projects\zstack\Samples\Sampl /
//                          eApp\CC2530DB\..\..\..\..\..\Components\mt\" -I   /
//                          "C:\Users\user\Desktop\3 new task perfect ROOM1   /
//                          DHT22\ZStack-2.5.1a\Projects\zstack\Samples\Sampl /
//                          eApp\CC2530DB\..\..\..\..\..\Components\osal\incl /
//                          ude\" -I "C:\Users\user\Desktop\3 new task        /
//                          perfect ROOM1 DHT22\ZStack-2.5.1a\Projects\zstack /
//                          \Samples\SampleApp\CC2530DB\..\..\..\..\..\Compon /
//                          ents\services\saddr\" -I                          /
//                          "C:\Users\user\Desktop\3 new task perfect ROOM1   /
//                          DHT22\ZStack-2.5.1a\Projects\zstack\Samples\Sampl /
//                          eApp\CC2530DB\..\..\..\..\..\Components\services\ /
//                          sdata\" -I "C:\Users\user\Desktop\3 new task      /
//                          perfect ROOM1 DHT22\ZStack-2.5.1a\Projects\zstack /
//                          \Samples\SampleApp\CC2530DB\..\..\..\..\..\Compon /
//                          ents\stack\af\" -I "C:\Users\user\Desktop\3 new   /
//                          task perfect ROOM1 DHT22\ZStack-2.5.1a\Projects\z /
//                          stack\Samples\SampleApp\CC2530DB\..\..\..\..\..\C /
//                          omponents\stack\nwk\" -I                          /
//                          "C:\Users\user\Desktop\3 new task perfect ROOM1   /
//                          DHT22\ZStack-2.5.1a\Projects\zstack\Samples\Sampl /
//                          eApp\CC2530DB\..\..\..\..\..\Components\stack\sap /
//                          i\" -I "C:\Users\user\Desktop\3 new task perfect  /
//                          ROOM1 DHT22\ZStack-2.5.1a\Projects\zstack\Samples /
//                          \SampleApp\CC2530DB\..\..\..\..\..\Components\sta /
//                          ck\sec\" -I "C:\Users\user\Desktop\3 new task     /
//                          perfect ROOM1 DHT22\ZStack-2.5.1a\Projects\zstack /
//                          \Samples\SampleApp\CC2530DB\..\..\..\..\..\Compon /
//                          ents\stack\sys\" -I "C:\Users\user\Desktop\3 new  /
//                          task perfect ROOM1 DHT22\ZStack-2.5.1a\Projects\z /
//                          stack\Samples\SampleApp\CC2530DB\..\..\..\..\..\C /
//                          omponents\stack\zdo\" -I                          /
//                          "C:\Users\user\Desktop\3 new task perfect ROOM1   /
//                          DHT22\ZStack-2.5.1a\Projects\zstack\Samples\Sampl /
//                          eApp\CC2530DB\..\..\..\..\..\Components\zmac\"    /
//                          -I "C:\Users\user\Desktop\3 new task perfect      /
//                          ROOM1 DHT22\ZStack-2.5.1a\Projects\zstack\Samples /
//                          \SampleApp\CC2530DB\..\..\..\..\..\Components\zma /
//                          c\f8w\" -Ohz                                      /
//    List file          =  C:\Users\user\Desktop\3 new task perfect ROOM1    /
//                          DHT22\ZStack-2.5.1a\Projects\zstack\Samples\Sampl /
//                          eApp\CC2530DB\CoordinatorEB\List\SampleApp.s51    /
//                                                                            /
//                                                                            /
///////////////////////////////////////////////////////////////////////////////

        NAME SampleApp

        RTMODEL "__SystemLibrary", "CLib"
        RTMODEL "__calling_convention", "xdata_reentrant"
        RTMODEL "__code_model", "banked"
        RTMODEL "__core", "plain"
        RTMODEL "__data_model", "large"
        RTMODEL "__dptr_size", "16"
        RTMODEL "__extended_stack", "disabled"
        RTMODEL "__location_for_constants", "data"
        RTMODEL "__number_of_dptrs", "1"
        RTMODEL "__rt_version", "1"

        RSEG DOVERLAY:DATA:NOROOT(0)
        RSEG IOVERLAY:IDATA:NOROOT(0)
        RSEG ISTACK:IDATA:NOROOT(0)
        RSEG PSTACK:XDATA:NOROOT(0)
        RSEG XSTACK:XDATA:NOROOT(0)

        EXTERN ?ALLOC_XSTACK8
        EXTERN ?BANKED_ENTER_XDATA
        EXTERN ?BANKED_LEAVE_XDATA
        EXTERN ?BDISPATCH
        EXTERN ?BRET
        EXTERN ?DEALLOC_XSTACK8
        EXTERN ?FLT_ADD
        EXTERN ?FLT_DIV
        EXTERN ?FLT_GE
        EXTERN ?FLT_LT
        EXTERN ?FLT_MUL
        EXTERN ?FLT_SUB
        EXTERN ?FLT_TO_L
        EXTERN ?L_MOV_X
        EXTERN ?MOVE_LONG8_XDATA_XDATA
        EXTERN ?PUSH_XSTACK_I_FOUR
        EXTERN ?PUSH_XSTACK_I_ONE
        EXTERN ?PUSH_XSTACK_I_THREE
        EXTERN ?PUSH_XSTACK_I_TWO
        EXTERN ?S_DIV_MOD
        EXTERN ?S_SHL
        EXTERN ?UL_TO_FLT
        EXTERN ?US_DIV_MOD
        EXTERN ?US_SWITCH_DENSE
        EXTERN ?V0
        EXTERN ?XLOAD_R2345
        EXTERN ?XSP
        EXTERN ?XSTACK_DISP0_8
        EXTERN __INIT_XDATA_I
        EXTERN __INIT_XDATA_Z

        PUBLIC ??COM?relay
        FUNCTION ??COM?relay,0203H
        PUBLIC ??DHT22?relay
        FUNCTION ??DHT22?relay,0203H
        PUBLIC ??DHT22_background?relay
        FUNCTION ??DHT22_background?relay,0203H
        PUBLIC ??Init_MQ7?relay
        FUNCTION ??Init_MQ7?relay,0203H
        PUBLIC ??Init_MS1100?relay
        FUNCTION ??Init_MS1100?relay,0203H
        PUBLIC ??Init_PM25?relay
        FUNCTION ??Init_PM25?relay,0203H
        PUBLIC ??Init_Sensor?relay
        FUNCTION ??Init_Sensor?relay,0203H
        PUBLIC ??Init_TGS4161?relay
        FUNCTION ??Init_TGS4161?relay,0203H
        PUBLIC ??Init_TGS813?relay
        FUNCTION ??Init_TGS813?relay,0203H
        PUBLIC ??ReadData?relay
        FUNCTION ??ReadData?relay,0203H
        PUBLIC ??SampleApp_HandleKeys?relay
        FUNCTION ??SampleApp_HandleKeys?relay,0203H
        PUBLIC ??SampleApp_Init?relay
        FUNCTION ??SampleApp_Init?relay,0203H
        PUBLIC ??SampleApp_MessageMSGCB?relay
        FUNCTION ??SampleApp_MessageMSGCB?relay,0203H
        PUBLIC ??SampleApp_ProcessEvent?relay
        FUNCTION ??SampleApp_ProcessEvent?relay,0203H
        PUBLIC ??SampleApp_SendFlashMessage?relay
        FUNCTION ??SampleApp_SendFlashMessage?relay,0203H
        PUBLIC ??SampleApp_SendPeriodicMessage?relay
        FUNCTION ??SampleApp_SendPeriodicMessage?relay,0203H
        PUBLIC ??SampleApp_Send_P2P_Message?relay
        FUNCTION ??SampleApp_Send_P2P_Message?relay,0203H
        PUBLIC ??SendData?relay
        FUNCTION ??SendData?relay,0203H
        PUBLIC ??SendData_DHT22?relay
        FUNCTION ??SendData_DHT22?relay,0203H
        PUBLIC ??SendData_MQ7?relay
        FUNCTION ??SendData_MQ7?relay,0203H
        PUBLIC ??SendData_MS1100?relay
        FUNCTION ??SendData_MS1100?relay,0203H
        PUBLIC ??SendData_PM25?relay
        FUNCTION ??SendData_PM25?relay,0203H
        PUBLIC ??SendData_TGS4161?relay
        FUNCTION ??SendData_TGS4161?relay,0203H
        PUBLIC ??SendData_TGS813?relay
        FUNCTION ??SendData_TGS813?relay,0203H
        PUBLIC ??SendUART?relay
        FUNCTION ??SendUART?relay,0203H
        PUBLIC ??SendUARTInit?relay
        FUNCTION ??SendUARTInit?relay,0203H
        PUBLIC ??SensorFunction?relay
        FUNCTION ??SensorFunction?relay,0203H
        PUBLIC ??Shiwen?relay
        FUNCTION ??Shiwen?relay,0203H
        PUBLIC ??TGS4161_EMF_350ppm?relay
        FUNCTION ??TGS4161_EMF_350ppm?relay,0203H
        PUBLIC ??TakeValue?relay
        FUNCTION ??TakeValue?relay,0203H
        PUBLIC ??TakeValueInit?relay
        FUNCTION ??TakeValueInit?relay,0203H
        PUBLIC ??background_MQ7?relay
        FUNCTION ??background_MQ7?relay,0203H
        PUBLIC ??background_MS1100?relay
        FUNCTION ??background_MS1100?relay,0203H
        PUBLIC ??background_PM25?relay
        FUNCTION ??background_PM25?relay,0203H
        PUBLIC ??background_PM25_ADC?relay
        FUNCTION ??background_PM25_ADC?relay,0203H
        PUBLIC ??background_TGS4161?relay
        FUNCTION ??background_TGS4161?relay,0203H
        PUBLIC ??background_TGS813?relay
        FUNCTION ??background_TGS813?relay,0203H
        PUBLIC ??delay_25us?relay
        FUNCTION ??delay_25us?relay,0203H
        PUBWEAK ADCCFG
        PUBWEAK ADCCON1
        PUBWEAK ADCCON3
        PUBWEAK ADCH
        PUBWEAK ADCL
        PUBLIC CNT
        PUBLIC COM
        FUNCTION COM,021203H
        ARGFRAME XSTACK, 9, STACK
        ARGFRAME IOVERLAY, 0, STATIC
        ARGFRAME DOVERLAY, 0, STATIC
        LOCFRAME XSTACK, 9, STACK
        PUBLIC DHT22
        FUNCTION DHT22,021203H
        ARGFRAME XSTACK, 0, STACK
        ARGFRAME IOVERLAY, 0, STATIC
        ARGFRAME DOVERLAY, 0, STATIC
        LOCFRAME XSTACK, 9, STACK
        PUBLIC DHT22_background
        FUNCTION DHT22_background,021203H
        ARGFRAME XSTACK, 0, STACK
        LOCFRAME ISTACK, 2, STACK
        PUBLIC DHT22_num
        PUBLIC ErrFLAG
        PUBLIC Init_MQ7
        FUNCTION Init_MQ7,0203H
        ARGFRAME XSTACK, 0, STACK
        ARGFRAME IOVERLAY, 0, STATIC
        ARGFRAME DOVERLAY, 0, STATIC
        PUBLIC Init_MS1100
        FUNCTION Init_MS1100,0203H
        ARGFRAME XSTACK, 0, STACK
        ARGFRAME IOVERLAY, 0, STATIC
        ARGFRAME DOVERLAY, 0, STATIC
        PUBLIC Init_PM25
        FUNCTION Init_PM25,0203H
        ARGFRAME XSTACK, 0, STACK
        ARGFRAME IOVERLAY, 0, STATIC
        ARGFRAME DOVERLAY, 0, STATIC
        PUBLIC Init_Sensor
        FUNCTION Init_Sensor,021203H
        ARGFRAME XSTACK, 9, STACK
        ARGFRAME IOVERLAY, 0, STATIC
        ARGFRAME DOVERLAY, 0, STATIC
        LOCFRAME ISTACK, 2, STACK
        PUBLIC Init_TGS4161
        FUNCTION Init_TGS4161,0203H
        ARGFRAME XSTACK, 0, STACK
        ARGFRAME IOVERLAY, 0, STATIC
        ARGFRAME DOVERLAY, 0, STATIC
        PUBLIC Init_TGS813
        FUNCTION Init_TGS813,0203H
        ARGFRAME XSTACK, 0, STACK
        ARGFRAME IOVERLAY, 0, STATIC
        ARGFRAME DOVERLAY, 0, STATIC
        PUBLIC LedState
        PUBLIC MMchar
        PUBLIC MYTASK_TaskID
        PUBLIC Operation_TaskID
        PUBWEAK P0DIR
        PUBWEAK P1DIR
        PUBLIC R0_MQ7
        PUBLIC R0_TGS813
        PUBLIC ROOM1
        PUBLIC ROOM2
        PUBLIC ReadData
        FUNCTION ReadData,0203H
        ARGFRAME XSTACK, 0, STACK
        LOCFRAME ISTACK, 2, STACK
        PUBLIC SEND_DATA
        PUBLIC SampleAppFlashCounter
        PUBLIC SampleAppPeriodicCounter
        PUBLIC SampleApp_ClusterList
        PUBLIC SampleApp_Flash_DstAddr
        PUBLIC SampleApp_Group
        PUBLIC SampleApp_HandleKeys
        FUNCTION SampleApp_HandleKeys,021203H
        ARGFRAME XSTACK, 12, STACK
        ARGFRAME IOVERLAY, 0, STATIC
        ARGFRAME DOVERLAY, 0, STATIC
        LOCFRAME XSTACK, 10, STACK
        PUBLIC SampleApp_Init
        FUNCTION SampleApp_Init,021203H
        ARGFRAME XSTACK, 0, STACK
        LOCFRAME XSTACK, 14, STACK
        PUBLIC SampleApp_MessageMSGCB
        FUNCTION SampleApp_MessageMSGCB,0a1203H
        ARGFRAME XSTACK, 12, STACK
        ARGFRAME IOVERLAY, 0, STATIC
        ARGFRAME DOVERLAY, 0, STATIC
        LOCFRAME XSTACK, 14, STACK
        PUBLIC SampleApp_NwkState
        PUBLIC SampleApp_P2P_DstAddr
        PUBLIC SampleApp_Periodic_DstAddr
        PUBLIC SampleApp_ProcessEvent
        FUNCTION SampleApp_ProcessEvent,021203H
        ARGFRAME XSTACK, 0, STACK
        LOCFRAME XSTACK, 12, STACK
        PUBLIC SampleApp_SendFlashMessage
        FUNCTION SampleApp_SendFlashMessage,021203H
        ARGFRAME XSTACK, 10, STACK
        ARGFRAME IOVERLAY, 0, STATIC
        ARGFRAME DOVERLAY, 0, STATIC
        LOCFRAME ISTACK, 1, STACK
        LOCFRAME XSTACK, 22, STACK
        PUBLIC SampleApp_SendPeriodicMessage
        FUNCTION SampleApp_SendPeriodicMessage,021203H
        ARGFRAME XSTACK, 0, STACK
        LOCFRAME XSTACK, 19, STACK
        PUBLIC SampleApp_Send_P2P_Message
        FUNCTION SampleApp_Send_P2P_Message,021203H
        ARGFRAME XSTACK, 12, STACK
        ARGFRAME IOVERLAY, 0, STATIC
        ARGFRAME DOVERLAY, 0, STATIC
        LOCFRAME XSTACK, 19, STACK
        PUBLIC SampleApp_SimpleDesc
        PUBLIC SampleApp_TaskID
        PUBLIC SampleApp_TransID
        PUBLIC SampleApp_epDesc
        PUBLIC SendData
        FUNCTION SendData,0203H
        ARGFRAME XSTACK, 0, STACK
        LOCFRAME ISTACK, 3, STACK
        PUBLIC SendData_DHT22
        FUNCTION SendData_DHT22,0203H
        ARGFRAME XSTACK, 0, STACK
        ARGFRAME IOVERLAY, 0, STATIC
        ARGFRAME DOVERLAY, 0, STATIC
        LOCFRAME ISTACK, 3, STACK
        LOCFRAME XSTACK, 11, STACK
        PUBLIC SendData_MQ7
        FUNCTION SendData_MQ7,0203H
        ARGFRAME XSTACK, 0, STACK
        ARGFRAME IOVERLAY, 0, STATIC
        ARGFRAME DOVERLAY, 0, STATIC
        LOCFRAME ISTACK, 2, STACK
        LOCFRAME XSTACK, 28, STACK
        PUBLIC SendData_MS1100
        FUNCTION SendData_MS1100,021203H
        ARGFRAME XSTACK, 0, STACK
        ARGFRAME IOVERLAY, 0, STATIC
        ARGFRAME DOVERLAY, 0, STATIC
        LOCFRAME ISTACK, 2, STACK
        LOCFRAME XSTACK, 31, STACK
        PUBLIC SendData_PM25
        FUNCTION SendData_PM25,0203H
        ARGFRAME XSTACK, 0, STACK
        ARGFRAME IOVERLAY, 0, STATIC
        ARGFRAME DOVERLAY, 0, STATIC
        LOCFRAME ISTACK, 2, STACK
        LOCFRAME XSTACK, 19, STACK
        PUBLIC SendData_TGS4161
        FUNCTION SendData_TGS4161,021203H
        ARGFRAME XSTACK, 0, STACK
        ARGFRAME IOVERLAY, 0, STATIC
        ARGFRAME DOVERLAY, 0, STATIC
        LOCFRAME ISTACK, 2, STACK
        LOCFRAME XSTACK, 26, STACK
        PUBLIC SendData_TGS813
        FUNCTION SendData_TGS813,0203H
        ARGFRAME XSTACK, 0, STACK
        ARGFRAME IOVERLAY, 0, STATIC
        ARGFRAME DOVERLAY, 0, STATIC
        LOCFRAME ISTACK, 2, STACK
        LOCFRAME XSTACK, 24, STACK
        PUBLIC SendUART
        FUNCTION SendUART,021203H
        ARGFRAME XSTACK, 0, STACK
        LOCFRAME ISTACK, 2, STACK
        LOCFRAME XSTACK, 115, STACK
        PUBLIC SendUARTInit
        FUNCTION SendUARTInit,021203H
        ARGFRAME XSTACK, 0, STACK
        LOCFRAME XSTACK, 9, STACK
        PUBLIC SendUART_TaskID
        PUBLIC SensorFunction
        FUNCTION SensorFunction,021203H
        ARGFRAME XSTACK, 9, STACK
        ARGFRAME IOVERLAY, 0, STATIC
        ARGFRAME DOVERLAY, 0, STATIC
        LOCFRAME ISTACK, 2, STACK
        PUBLIC SensorsData
        PUBLIC Shiwen
        FUNCTION Shiwen,0203H
        ARGFRAME XSTACK, 0, STACK
        LOCFRAME ISTACK, 2, STACK
        PUBLIC TGS4161_EMF_350ppm
        FUNCTION TGS4161_EMF_350ppm,0203H
        ARGFRAME XSTACK, 22, STACK
        ARGFRAME IOVERLAY, 0, STATIC
        ARGFRAME DOVERLAY, 0, STATIC
        LOCFRAME XSTACK, 10, STACK
        PUBLIC TakeValue
        FUNCTION TakeValue,021203H
        ARGFRAME XSTACK, 0, STACK
        LOCFRAME ISTACK, 1, STACK
        LOCFRAME XSTACK, 9, STACK
        PUBLIC TakeValueInit
        FUNCTION TakeValueInit,0203H
        ARGFRAME XSTACK, 0, STACK
        LOCFRAME ISTACK, 2, STACK
        PUBLIC TakeValue_TaskID
        PUBLIC Temp_MQ7
        PUBLIC Temp_MS1100
        PUBLIC Temp_PM25
        PUBLIC Temp_TGS4161
        PUBLIC Temp_TGS813
        PUBWEAK _A_P0
        PUBWEAK _A_P1
        PUBWEAK __Constant_39800000
        PUBWEAK __Constant_3a000000
        PUBWEAK __Constant_3dc28f5d
        PUBWEAK __Constant_3e6147af
        PUBWEAK __Constant_3e947ae1
        PUBWEAK __Constant_3ec28f5d
        PUBWEAK __Constant_3f570a3d
        PUBWEAK __Constant_3f800001
        PUBWEAK __Constant_3fd33334
        PUBWEAK __Constant_3fe66666
        PUBWEAK __Constant_3fe66667
        PUBWEAK __Constant_3ff5c28f
        PUBWEAK __Constant_403d70a4
        PUBWEAK __Constant_40400000
        PUBWEAK __Constant_40533333
        PUBWEAK __Constant_40c3851f
        PUBWEAK __Constant_41200000
        PUBWEAK __Constant_41c80000
        PUBWEAK __Constant_42040000
        PUBWEAK __Constant_42480000
        PUBWEAK __Constant_42600000
        PUBWEAK __Constant_427647ae
        PUBWEAK __Constant_431cb333
        PUBWEAK __Constant_437a0000
        PUBWEAK __Constant_43960000
        PUBWEAK __Constant_43af0000
        PUBWEAK __Constant_43c80000
        PUBWEAK __Constant_44160000
        PUBWEAK __Constant_447a0000
        PUBWEAK __Constant_457a0000
        PUBWEAK __Constant_461c4000
        PUBWEAK __Constant_46d33a00
        PUBWEAK __Constant_be23d70a
        PUBWEAK __Constant_bf1eb852
        PUBWEAK __Constant_bf266666
        PUBWEAK __Constant_bf800000
        PUBWEAK __Constant_c0e00000
        PUBWEAK __Constant_c61c4000
        PUBWEAK __Constant_c6bb8000
        PUBLIC background_MQ7
        FUNCTION background_MQ7,0203H
        ARGFRAME XSTACK, 0, STACK
        ARGFRAME IOVERLAY, 0, STATIC
        ARGFRAME DOVERLAY, 0, STATIC
        LOCFRAME XSTACK, 10, STACK
        PUBLIC background_MS1100
        FUNCTION background_MS1100,0203H
        ARGFRAME XSTACK, 0, STACK
        ARGFRAME IOVERLAY, 0, STATIC
        ARGFRAME DOVERLAY, 0, STATIC
        LOCFRAME XSTACK, 10, STACK
        PUBLIC background_PM25
        FUNCTION background_PM25,021203H
        ARGFRAME XSTACK, 0, STACK
        ARGFRAME IOVERLAY, 0, STATIC
        ARGFRAME DOVERLAY, 0, STATIC
        LOCFRAME XSTACK, 9, STACK
        PUBLIC background_PM25_ADC
        FUNCTION background_PM25_ADC,0203H
        ARGFRAME XSTACK, 9, STACK
        ARGFRAME IOVERLAY, 0, STATIC
        ARGFRAME DOVERLAY, 0, STATIC
        LOCFRAME XSTACK, 10, STACK
        PUBLIC background_TGS4161
        FUNCTION background_TGS4161,0203H
        ARGFRAME XSTACK, 0, STACK
        ARGFRAME IOVERLAY, 0, STATIC
        ARGFRAME DOVERLAY, 0, STATIC
        LOCFRAME XSTACK, 10, STACK
        PUBLIC background_TGS813
        FUNCTION background_TGS813,0203H
        ARGFRAME XSTACK, 0, STACK
        ARGFRAME IOVERLAY, 0, STATIC
        ARGFRAME DOVERLAY, 0, STATIC
        LOCFRAME XSTACK, 10, STACK
        PUBLIC cntnumberA
        PUBLIC cntnumberB
        PUBLIC delay_25us
        FUNCTION delay_25us,080203H
        ARGFRAME XSTACK, 9, STACK
        ARGFRAME IOVERLAY, 0, STATIC
        ARGFRAME DOVERLAY, 0, STATIC
        PUBLIC messageA
        PUBLIC missmessageA
        PUBLIC missmessageB
        PUBLIC periodicData
        PUBLIC shidu
        PUBLIC shiduTemp
        PUBLIC shidu_dian
        PUBLIC shidu_ge
        PUBLIC shidu_shi
        PUBLIC tempA
        PUBLIC tempB
        PUBLIC ucharFLAG
        PUBLIC ucharRH_data_H
        PUBLIC ucharRH_data_H_temp
        PUBLIC ucharRH_data_L
        PUBLIC ucharRH_data_L_temp
        PUBLIC ucharT_data_H
        PUBLIC ucharT_data_H_temp
        PUBLIC ucharT_data_L
        PUBLIC ucharT_data_L_temp
        PUBLIC ucharcheckdata
        PUBLIC ucharcheckdata_temp
        PUBLIC ucharcomdata
        PUBLIC uchartemp
        PUBLIC wendu
        PUBLIC wenduTemp
        PUBLIC wendu_dian
        PUBLIC wendu_ge
        PUBLIC wendu_shi
        
          CFI Names cfiNames0
          CFI StackFrame CFA_SP SP IDATA
          CFI StackFrame CFA_PSP16 PSP16 XDATA
          CFI StackFrame CFA_XSP16 XSP16 XDATA
          CFI StaticOverlayFrame CFA_IOVERLAY IOVERLAY
          CFI StaticOverlayFrame CFA_DOVERLAY DOVERLAY
          CFI Resource `PSW.CY`:1, `B.BR0`:1, `B.BR1`:1, `B.BR2`:1, `B.BR3`:1
          CFI Resource `B.BR4`:1, `B.BR5`:1, `B.BR6`:1, `B.BR7`:1, `VB.BR8`:1
          CFI Resource `VB.BR9`:1, `VB.BR10`:1, `VB.BR11`:1, `VB.BR12`:1
          CFI Resource `VB.BR13`:1, `VB.BR14`:1, `VB.BR15`:1, VB:8, B:8, A:8
          CFI Resource PSW:8, DPL0:8, DPH0:8, R0:8, R1:8, R2:8, R3:8, R4:8, R5:8
          CFI Resource R6:8, R7:8, V0:8, V1:8, V2:8, V3:8, V4:8, V5:8, V6:8, V7:8
          CFI Resource V8:8, V9:8, V10:8, V11:8, V12:8, V13:8, V14:8, V15:8, SP:8
          CFI Resource PSPH:8, PSPL:8, PSP16:16, XSPH:8, XSPL:8, XSP16:16
          CFI VirtualResource ?RET:24
          CFI Resource ?BRET_EXT:8
          CFI VirtualResource ?RET_HIGH:8, ?RET_LOW:8
          CFI ResourceParts PSP16 PSPH, PSPL
          CFI ResourceParts XSP16 XSPH, XSPL
          CFI ResourceParts ?RET ?BRET_EXT, ?RET_HIGH, ?RET_LOW
          CFI EndNames cfiNames0
        
          CFI Common cfiCommon0 Using cfiNames0
          CFI CodeAlign 1
          CFI DataAlign -1
          CFI ReturnAddress ?RET CODE
          CFI CFA_DOVERLAY Used
          CFI CFA_IOVERLAY Used
          CFI CFA_SP SP+-3
          CFI CFA_PSP16 PSP16+0
          CFI CFA_XSP16 XSP16+0
          CFI `PSW.CY` SameValue
          CFI `B.BR0` SameValue
          CFI `B.BR1` SameValue
          CFI `B.BR2` SameValue
          CFI `B.BR3` SameValue
          CFI `B.BR4` SameValue
          CFI `B.BR5` SameValue
          CFI `B.BR6` SameValue
          CFI `B.BR7` SameValue
          CFI `VB.BR8` SameValue
          CFI `VB.BR9` SameValue
          CFI `VB.BR10` SameValue
          CFI `VB.BR11` SameValue
          CFI `VB.BR12` SameValue
          CFI `VB.BR13` SameValue
          CFI `VB.BR14` SameValue
          CFI `VB.BR15` SameValue
          CFI VB SameValue
          CFI B Undefined
          CFI A Undefined
          CFI PSW SameValue
          CFI DPL0 SameValue
          CFI DPH0 SameValue
          CFI R0 Undefined
          CFI R1 Undefined
          CFI R2 Undefined
          CFI R3 Undefined
          CFI R4 Undefined
          CFI R5 Undefined
          CFI R6 SameValue
          CFI R7 SameValue
          CFI V0 SameValue
          CFI V1 SameValue
          CFI V2 SameValue
          CFI V3 SameValue
          CFI V4 SameValue
          CFI V5 SameValue
          CFI V6 SameValue
          CFI V7 SameValue
          CFI V8 SameValue
          CFI V9 SameValue
          CFI V10 SameValue
          CFI V11 SameValue
          CFI V12 SameValue
          CFI V13 SameValue
          CFI V14 SameValue
          CFI V15 SameValue
          CFI PSPH Undefined
          CFI PSPL Undefined
          CFI XSPH Undefined
          CFI XSPL Undefined
          CFI ?RET Concat
          CFI ?BRET_EXT Frame(CFA_SP, 3)
          CFI ?RET_HIGH Frame(CFA_SP, 2)
          CFI ?RET_LOW Frame(CFA_SP, 1)
          CFI EndCommon cfiCommon0
        
        
          CFI Common cfiCommon1 Using cfiNames0
          CFI CodeAlign 1
          CFI DataAlign -1
          CFI ReturnAddress ?RET CODE
          CFI CFA_DOVERLAY Used
          CFI CFA_IOVERLAY Used
          CFI CFA_SP SP+-2
          CFI CFA_PSP16 PSP16+0
          CFI CFA_XSP16 XSP16+0
          CFI `PSW.CY` SameValue
          CFI `B.BR0` SameValue
          CFI `B.BR1` SameValue
          CFI `B.BR2` SameValue
          CFI `B.BR3` SameValue
          CFI `B.BR4` SameValue
          CFI `B.BR5` SameValue
          CFI `B.BR6` SameValue
          CFI `B.BR7` SameValue
          CFI `VB.BR8` SameValue
          CFI `VB.BR9` SameValue
          CFI `VB.BR10` SameValue
          CFI `VB.BR11` SameValue
          CFI `VB.BR12` SameValue
          CFI `VB.BR13` SameValue
          CFI `VB.BR14` SameValue
          CFI `VB.BR15` SameValue
          CFI VB SameValue
          CFI B SameValue
          CFI A SameValue
          CFI PSW SameValue
          CFI DPL0 SameValue
          CFI DPH0 SameValue
          CFI R0 SameValue
          CFI R1 SameValue
          CFI R2 SameValue
          CFI R3 SameValue
          CFI R4 SameValue
          CFI R5 SameValue
          CFI R6 SameValue
          CFI R7 SameValue
          CFI V0 SameValue
          CFI V1 SameValue
          CFI V2 SameValue
          CFI V3 SameValue
          CFI V4 SameValue
          CFI V5 SameValue
          CFI V6 SameValue
          CFI V7 SameValue
          CFI V8 SameValue
          CFI V9 SameValue
          CFI V10 SameValue
          CFI V11 SameValue
          CFI V12 SameValue
          CFI V13 SameValue
          CFI V14 SameValue
          CFI V15 SameValue
          CFI PSPH Undefined
          CFI PSPL Undefined
          CFI XSPH Undefined
          CFI XSPL Undefined
          CFI ?RET Concat
          CFI ?BRET_EXT SameValue
          CFI ?RET_HIGH Frame(CFA_SP, 2)
          CFI ?RET_LOW Frame(CFA_SP, 1)
          CFI EndCommon cfiCommon1
        
AF_DataRequest      SYMBOL "AF_DataRequest"
??AF_DataRequest?relay SYMBOL "?relay", AF_DataRequest
HalLcdWriteString   SYMBOL "HalLcdWriteString"
??HalLcdWriteString?relay SYMBOL "?relay", HalLcdWriteString
HalLedBlink         SYMBOL "HalLedBlink"
??HalLedBlink?relay SYMBOL "?relay", HalLedBlink
HalLedSet           SYMBOL "HalLedSet"
??HalLedSet?relay   SYMBOL "?relay", HalLedSet
HalUARTWrite        SYMBOL "HalUARTWrite"
??HalUARTWrite?relay SYMBOL "?relay", HalUARTWrite
MT_UartInit         SYMBOL "MT_UartInit"
??MT_UartInit?relay SYMBOL "?relay", MT_UartInit
MT_UartRegisterTaskID SYMBOL "MT_UartRegisterTaskID"
??MT_UartRegisterTaskID?relay SYMBOL "?relay", MT_UartRegisterTaskID
RegisterForKeys     SYMBOL "RegisterForKeys"
??RegisterForKeys?relay SYMBOL "?relay", RegisterForKeys
UartSendString      SYMBOL "UartSendString"
??UartSendString?relay SYMBOL "?relay", UartSendString
afRegister          SYMBOL "afRegister"
??afRegister?relay  SYMBOL "?relay", afRegister
aps_AddGroup        SYMBOL "aps_AddGroup"
??aps_AddGroup?relay SYMBOL "?relay", aps_AddGroup
aps_FindGroup       SYMBOL "aps_FindGroup"
??aps_FindGroup?relay SYMBOL "?relay", aps_FindGroup
aps_RemoveGroup     SYMBOL "aps_RemoveGroup"
??aps_RemoveGroup?relay SYMBOL "?relay", aps_RemoveGroup
osal_memcpy         SYMBOL "osal_memcpy"
??osal_memcpy?relay SYMBOL "?relay", osal_memcpy
osal_msg_deallocate SYMBOL "osal_msg_deallocate"
??osal_msg_deallocate?relay SYMBOL "?relay", osal_msg_deallocate
osal_msg_receive    SYMBOL "osal_msg_receive"
??osal_msg_receive?relay SYMBOL "?relay", osal_msg_receive
osal_rand           SYMBOL "osal_rand"
??osal_rand?relay   SYMBOL "?relay", osal_rand
osal_set_event      SYMBOL "osal_set_event"
??osal_set_event?relay SYMBOL "?relay", osal_set_event
osal_start_timerEx  SYMBOL "osal_start_timerEx"
??osal_start_timerEx?relay SYMBOL "?relay", osal_start_timerEx
pow                 SYMBOL "pow"
??pow?relay         SYMBOL "?relay", pow
COM                 SYMBOL "COM"
??COM?relay         SYMBOL "?relay", COM
DHT22               SYMBOL "DHT22"
??DHT22?relay       SYMBOL "?relay", DHT22
DHT22_background    SYMBOL "DHT22_background"
??DHT22_background?relay SYMBOL "?relay", DHT22_background
Init_MQ7            SYMBOL "Init_MQ7"
??Init_MQ7?relay    SYMBOL "?relay", Init_MQ7
Init_MS1100         SYMBOL "Init_MS1100"
??Init_MS1100?relay SYMBOL "?relay", Init_MS1100
Init_PM25           SYMBOL "Init_PM25"
??Init_PM25?relay   SYMBOL "?relay", Init_PM25
Init_Sensor         SYMBOL "Init_Sensor"
??Init_Sensor?relay SYMBOL "?relay", Init_Sensor
Init_TGS4161        SYMBOL "Init_TGS4161"
??Init_TGS4161?relay SYMBOL "?relay", Init_TGS4161
Init_TGS813         SYMBOL "Init_TGS813"
??Init_TGS813?relay SYMBOL "?relay", Init_TGS813
ReadData            SYMBOL "ReadData"
??ReadData?relay    SYMBOL "?relay", ReadData
SampleApp_HandleKeys SYMBOL "SampleApp_HandleKeys"
??SampleApp_HandleKeys?relay SYMBOL "?relay", SampleApp_HandleKeys
SampleApp_Init      SYMBOL "SampleApp_Init"
??SampleApp_Init?relay SYMBOL "?relay", SampleApp_Init
SampleApp_MessageMSGCB SYMBOL "SampleApp_MessageMSGCB"
??SampleApp_MessageMSGCB?relay SYMBOL "?relay", SampleApp_MessageMSGCB
SampleApp_ProcessEvent SYMBOL "SampleApp_ProcessEvent"
??SampleApp_ProcessEvent?relay SYMBOL "?relay", SampleApp_ProcessEvent
SampleApp_SendFlashMessage SYMBOL "SampleApp_SendFlashMessage"
??SampleApp_SendFlashMessage?relay SYMBOL "?relay", SampleApp_SendFlashMessage
SampleApp_SendPeriodicMessage SYMBOL "SampleApp_SendPeriodicMessage"
??SampleApp_SendPeriodicMessage?relay SYMBOL "?relay", SampleApp_SendPeriodicMessage
SampleApp_Send_P2P_Message SYMBOL "SampleApp_Send_P2P_Message"
??SampleApp_Send_P2P_Message?relay SYMBOL "?relay", SampleApp_Send_P2P_Message
SendData            SYMBOL "SendData"
??SendData?relay    SYMBOL "?relay", SendData
SendData_DHT22      SYMBOL "SendData_DHT22"
??SendData_DHT22?relay SYMBOL "?relay", SendData_DHT22
SendData_MQ7        SYMBOL "SendData_MQ7"
??SendData_MQ7?relay SYMBOL "?relay", SendData_MQ7
SendData_MS1100     SYMBOL "SendData_MS1100"
??SendData_MS1100?relay SYMBOL "?relay", SendData_MS1100
SendData_PM25       SYMBOL "SendData_PM25"
??SendData_PM25?relay SYMBOL "?relay", SendData_PM25
SendData_TGS4161    SYMBOL "SendData_TGS4161"
??SendData_TGS4161?relay SYMBOL "?relay", SendData_TGS4161
SendData_TGS813     SYMBOL "SendData_TGS813"
??SendData_TGS813?relay SYMBOL "?relay", SendData_TGS813
SendUART            SYMBOL "SendUART"
??SendUART?relay    SYMBOL "?relay", SendUART
SendUARTInit        SYMBOL "SendUARTInit"
??SendUARTInit?relay SYMBOL "?relay", SendUARTInit
SensorFunction      SYMBOL "SensorFunction"
??SensorFunction?relay SYMBOL "?relay", SensorFunction
Shiwen              SYMBOL "Shiwen"
??Shiwen?relay      SYMBOL "?relay", Shiwen
TGS4161_EMF_350ppm  SYMBOL "TGS4161_EMF_350ppm"
??TGS4161_EMF_350ppm?relay SYMBOL "?relay", TGS4161_EMF_350ppm
TakeValue           SYMBOL "TakeValue"
??TakeValue?relay   SYMBOL "?relay", TakeValue
TakeValueInit       SYMBOL "TakeValueInit"
??TakeValueInit?relay SYMBOL "?relay", TakeValueInit
background_MQ7      SYMBOL "background_MQ7"
??background_MQ7?relay SYMBOL "?relay", background_MQ7
background_MS1100   SYMBOL "background_MS1100"
??background_MS1100?relay SYMBOL "?relay", background_MS1100
background_PM25     SYMBOL "background_PM25"
??background_PM25?relay SYMBOL "?relay", background_PM25
background_PM25_ADC SYMBOL "background_PM25_ADC"
??background_PM25_ADC?relay SYMBOL "?relay", background_PM25_ADC
background_TGS4161  SYMBOL "background_TGS4161"
??background_TGS4161?relay SYMBOL "?relay", background_TGS4161
background_TGS813   SYMBOL "background_TGS813"
??background_TGS813?relay SYMBOL "?relay", background_TGS813
delay_25us          SYMBOL "delay_25us"
??delay_25us?relay  SYMBOL "?relay", delay_25us

        EXTERN ??AF_DataRequest?relay
        FUNCTION ??AF_DataRequest?relay,00H
        EXTERN ??HalLcdWriteString?relay
        FUNCTION ??HalLcdWriteString?relay,00H
        EXTERN ??HalLedBlink?relay
        FUNCTION ??HalLedBlink?relay,00H
        EXTERN ??HalLedSet?relay
        FUNCTION ??HalLedSet?relay,00H
        EXTERN ??HalUARTWrite?relay
        FUNCTION ??HalUARTWrite?relay,00H
        EXTERN ??MT_UartInit?relay
        FUNCTION ??MT_UartInit?relay,00H
        EXTERN ??MT_UartRegisterTaskID?relay
        FUNCTION ??MT_UartRegisterTaskID?relay,00H
        EXTERN ??RegisterForKeys?relay
        FUNCTION ??RegisterForKeys?relay,00H
        EXTERN ??UartSendString?relay
        FUNCTION ??UartSendString?relay,00H
        EXTERN ??afRegister?relay
        FUNCTION ??afRegister?relay,00H
        EXTERN ??aps_AddGroup?relay
        FUNCTION ??aps_AddGroup?relay,00H
        EXTERN ??aps_FindGroup?relay
        FUNCTION ??aps_FindGroup?relay,00H
        EXTERN ??aps_RemoveGroup?relay
        FUNCTION ??aps_RemoveGroup?relay,00H
        EXTERN ??osal_memcpy?relay
        FUNCTION ??osal_memcpy?relay,00H
        EXTERN ??osal_msg_deallocate?relay
        FUNCTION ??osal_msg_deallocate?relay,00H
        EXTERN ??osal_msg_receive?relay
        FUNCTION ??osal_msg_receive?relay,00H
        EXTERN ??osal_rand?relay
        FUNCTION ??osal_rand?relay,00H
        EXTERN ??osal_set_event?relay
        FUNCTION ??osal_set_event?relay,00H
        EXTERN ??osal_start_timerEx?relay
        FUNCTION ??osal_start_timerEx?relay,00H
        EXTERN ??pow?relay
        FUNCTION ??pow?relay,00H
        EXTERN AF_DataRequest
        FUNCTION AF_DataRequest,0202H
        ARGFRAME ISTACK, 0, STACK
        ARGFRAME PSTACK, 0, STACK
        ARGFRAME XSTACK, 22, STACK
        ARGFRAME IOVERLAY, 0, STATIC
        ARGFRAME DOVERLAY, 0, STATIC
        EXTERN HalLcdWriteString
        FUNCTION HalLcdWriteString,0202H
        ARGFRAME ISTACK, 0, STACK
        ARGFRAME PSTACK, 0, STACK
        ARGFRAME XSTACK, 11, STACK
        ARGFRAME IOVERLAY, 0, STATIC
        ARGFRAME DOVERLAY, 0, STATIC
        EXTERN HalLedBlink
        FUNCTION HalLedBlink,0202H
        ARGFRAME ISTACK, 0, STACK
        ARGFRAME PSTACK, 0, STACK
        ARGFRAME XSTACK, 11, STACK
        ARGFRAME IOVERLAY, 0, STATIC
        ARGFRAME DOVERLAY, 0, STATIC
        EXTERN HalLedSet
        FUNCTION HalLedSet,0202H
        ARGFRAME ISTACK, 0, STACK
        ARGFRAME PSTACK, 0, STACK
        ARGFRAME XSTACK, 11, STACK
        ARGFRAME IOVERLAY, 0, STATIC
        ARGFRAME DOVERLAY, 0, STATIC
        EXTERN HalUARTWrite
        FUNCTION HalUARTWrite,0202H
        ARGFRAME ISTACK, 0, STACK
        ARGFRAME PSTACK, 0, STACK
        ARGFRAME XSTACK, 11, STACK
        ARGFRAME IOVERLAY, 0, STATIC
        ARGFRAME DOVERLAY, 0, STATIC
        EXTERN MT_UartInit
        FUNCTION MT_UartInit,0202H
        ARGFRAME ISTACK, 0, STACK
        ARGFRAME PSTACK, 0, STACK
        ARGFRAME XSTACK, 11, STACK
        ARGFRAME IOVERLAY, 0, STATIC
        ARGFRAME DOVERLAY, 0, STATIC
        EXTERN MT_UartRegisterTaskID
        FUNCTION MT_UartRegisterTaskID,0202H
        ARGFRAME ISTACK, 0, STACK
        ARGFRAME PSTACK, 0, STACK
        ARGFRAME XSTACK, 11, STACK
        ARGFRAME IOVERLAY, 0, STATIC
        ARGFRAME DOVERLAY, 0, STATIC
        EXTERN RegisterForKeys
        FUNCTION RegisterForKeys,0202H
        ARGFRAME ISTACK, 0, STACK
        ARGFRAME PSTACK, 0, STACK
        ARGFRAME XSTACK, 11, STACK
        ARGFRAME IOVERLAY, 0, STATIC
        ARGFRAME DOVERLAY, 0, STATIC
        EXTERN UartSendString
        FUNCTION UartSendString,0202H
        ARGFRAME ISTACK, 0, STACK
        ARGFRAME PSTACK, 0, STACK
        ARGFRAME XSTACK, 115, STACK
        ARGFRAME IOVERLAY, 0, STATIC
        ARGFRAME DOVERLAY, 0, STATIC
        EXTERN afRegister
        FUNCTION afRegister,0202H
        ARGFRAME ISTACK, 0, STACK
        ARGFRAME PSTACK, 0, STACK
        ARGFRAME XSTACK, 11, STACK
        ARGFRAME IOVERLAY, 0, STATIC
        ARGFRAME DOVERLAY, 0, STATIC
        EXTERN aps_AddGroup
        FUNCTION aps_AddGroup,0202H
        ARGFRAME ISTACK, 0, STACK
        ARGFRAME PSTACK, 0, STACK
        ARGFRAME XSTACK, 11, STACK
        ARGFRAME IOVERLAY, 0, STATIC
        ARGFRAME DOVERLAY, 0, STATIC
        EXTERN aps_FindGroup
        FUNCTION aps_FindGroup,0202H
        ARGFRAME ISTACK, 0, STACK
        ARGFRAME PSTACK, 0, STACK
        ARGFRAME XSTACK, 10, STACK
        ARGFRAME IOVERLAY, 0, STATIC
        ARGFRAME DOVERLAY, 0, STATIC
        EXTERN aps_RemoveGroup
        FUNCTION aps_RemoveGroup,0202H
        ARGFRAME ISTACK, 0, STACK
        ARGFRAME PSTACK, 0, STACK
        ARGFRAME XSTACK, 10, STACK
        ARGFRAME IOVERLAY, 0, STATIC
        ARGFRAME DOVERLAY, 0, STATIC
        EXTERN osal_memcpy
        FUNCTION osal_memcpy,0202H
        ARGFRAME ISTACK, 0, STACK
        ARGFRAME PSTACK, 0, STACK
        ARGFRAME XSTACK, 14, STACK
        ARGFRAME IOVERLAY, 0, STATIC
        ARGFRAME DOVERLAY, 0, STATIC
        EXTERN osal_msg_deallocate
        FUNCTION osal_msg_deallocate,0202H
        ARGFRAME ISTACK, 0, STACK
        ARGFRAME PSTACK, 0, STACK
        ARGFRAME XSTACK, 12, STACK
        ARGFRAME IOVERLAY, 0, STATIC
        ARGFRAME DOVERLAY, 0, STATIC
        EXTERN osal_msg_receive
        FUNCTION osal_msg_receive,0202H
        ARGFRAME ISTACK, 0, STACK
        ARGFRAME PSTACK, 0, STACK
        ARGFRAME XSTACK, 12, STACK
        ARGFRAME IOVERLAY, 0, STATIC
        ARGFRAME DOVERLAY, 0, STATIC
        EXTERN osal_rand
        FUNCTION osal_rand,0202H
        ARGFRAME ISTACK, 0, STACK
        ARGFRAME PSTACK, 0, STACK
        ARGFRAME XSTACK, 12, STACK
        ARGFRAME IOVERLAY, 0, STATIC
        ARGFRAME DOVERLAY, 0, STATIC
        EXTERN osal_set_event
        FUNCTION osal_set_event,0202H
        ARGFRAME ISTACK, 0, STACK
        ARGFRAME PSTACK, 0, STACK
        ARGFRAME XSTACK, 12, STACK
        ARGFRAME IOVERLAY, 0, STATIC
        ARGFRAME DOVERLAY, 0, STATIC
        EXTERN osal_start_timerEx
        FUNCTION osal_start_timerEx,0202H
        ARGFRAME ISTACK, 0, STACK
        ARGFRAME PSTACK, 0, STACK
        ARGFRAME XSTACK, 12, STACK
        ARGFRAME IOVERLAY, 0, STATIC
        ARGFRAME DOVERLAY, 0, STATIC
        EXTERN pow
        FUNCTION pow,010202H
        ARGFRAME ISTACK, 0, STACK
        ARGFRAME PSTACK, 0, STACK
        ARGFRAME XSTACK, 31, STACK
        ARGFRAME IOVERLAY, 0, STATIC
        ARGFRAME DOVERLAY, 0, STATIC

// C:\Users\user\Desktop\3 new task perfect ROOM1 DHT22\ZStack-2.5.1a\Projects\zstack\Samples\SampleApp\Source\SampleApp.c
//    1 /**************************************************************************************************
//    2   Filename:       SampleApp.c
//    3   Revised:        $Date: 2009-03-18 15:56:27 -0700 (Wed, 18 Mar 2009) $
//    4   Revision:       $Revision: 19453 $
//    5 
//    6   Description:    Sample Application (no Profile).
//    7 
//    8 
//    9   Copyright 2007 Texas Instruments Incorporated. All rights reserved.
//   10 
//   11   IMPORTANT: Your use of this Software is limited to those specific rights
//   12   granted under the terms of a software license agreement between the user
//   13   who downloaded the software, his/her employer (which must be your employer)
//   14   and Texas Instruments Incorporated (the "License").  You may not use this
//   15   Software unless you agree to abide by the terms of the License. The License
//   16   limits your use, and you acknowledge, that the Software may not be modified,
//   17   copied or distributed unless embedded on a Texas Instruments microcontroller
//   18   or used solely and exclusively in conjunction with a Texas Instruments radio
//   19   frequency transceiver, which is integrated into your product.  Other than for
//   20   the foregoing purpose, you may not use, reproduce, copy, prepare derivative
//   21   works of, modify, distribute, perform, display or sell this Software and/or
//   22   its documentation for any purpose.
//   23 
//   24   YOU FURTHER ACKNOWLEDGE AND AGREE THAT THE SOFTWARE AND DOCUMENTATION ARE
//   25   PROVIDED ÙjS IS?WITHOUT WARRANTY OF ANY KIND, EITHER EXPRESS OR IMPLIED,
//   26   INCLUDING WITHOUT LIMITATION, ANY WARRANTY OF MERCHANTABILITY, TITLE,
//   27   NON-INFRINGEMENT AND FITNESS FOR A PARTICULAR PURPOSE. IN NO EVENT SHALL
//   28   TEXAS INSTRUMENTS OR ITS LICENSORS BE LIABLE OR OBLIGATED UNDER CONTRACT,
//   29   NEGLIGENCE, STRICT LIABILITY, CONTRIBUTION, BREACH OF WARRANTY, OR OTHER
//   30   LEGAL EQUITABLE THEORY ANY DIRECT OR INDIRECT DAMAGES OR EXPENSES
//   31   INCLUDING BUT NOT LIMITED TO ANY INCIDENTAL, SPECIAL, INDIRECT, PUNITIVE
//   32   OR CONSEQUENTIAL DAMAGES, LOST PROFITS OR LOST DATA, COST OF PROCUREMENT
//   33   OF SUBSTITUTE GOODS, TECHNOLOGY, SERVICES, OR ANY CLAIMS BY THIRD PARTIES
//   34   (INCLUDING BUT NOT LIMITED TO ANY DEFENSE THEREOF), OR OTHER SIMILAR COSTS.
//   35 
//   36   Should you have any questions regarding your right to use this Software,
//   37   contact Texas Instruments Incorporated at www.TI.com.
//   38 **************************************************************************************************/
//   39 
//   40 /*********************************************************************
//   41   This application isn't intended to do anything useful, it is
//   42   intended to be a simple example of an application's structure.
//   43 
//   44   This application sends it's messages either as broadcast or
//   45   broadcast filtered group messages.  The other (more normal)
//   46   message addressing is unicast.  Most of the other sample
//   47   applications are written to support the unicast message model.
//   48 
//   49   Key control:
//   50     SW1:  Sends a flash command to all devices in Group 1.
//   51     SW2:  Adds/Removes (toggles) this device in and out
//   52           of Group 1.  This will enable and disable the
//   53           reception of the flash command.
//   54 *********************************************************************/
//   55 
//   56 /*********************************************************************
//   57  * INCLUDES
//   58  */
//   59 #include <ioCC2530.h>

        ASEGN SFR_AN:DATA:NOROOT,080H
// union <unnamed> volatile __sfr _A_P0
_A_P0:
        DATA8
        DS 1

        ASEGN SFR_AN:DATA:NOROOT,090H
// union <unnamed> volatile __sfr _A_P1
_A_P1:
        DATA8
        DS 1

        ASEGN SFR_AN:DATA:NOROOT,0b4H
// unsigned char volatile __sfr ADCCON1
ADCCON1:
        DATA8
        DS 1

        ASEGN SFR_AN:DATA:NOROOT,0b6H
// unsigned char volatile __sfr ADCCON3
ADCCON3:
        DATA8
        DS 1

        ASEGN SFR_AN:DATA:NOROOT,0baH
// unsigned char volatile __sfr ADCL
ADCL:
        DATA8
        DS 1

        ASEGN SFR_AN:DATA:NOROOT,0bbH
// unsigned char volatile __sfr ADCH
ADCH:
        DATA8
        DS 1

        ASEGN SFR_AN:DATA:NOROOT,0f2H
// unsigned char volatile __sfr ADCCFG
ADCCFG:
        DATA8
        DS 1

        ASEGN SFR_AN:DATA:NOROOT,0fdH
// unsigned char volatile __sfr P0DIR
P0DIR:
        DATA8
        DS 1

        ASEGN SFR_AN:DATA:NOROOT,0feH
// unsigned char volatile __sfr P1DIR
P1DIR:
        DATA8
        DS 1
//   60 #include "OSAL.h"
//   61 #include "ZGlobals.h"
//   62 #include "AF.h"
//   63 #include "aps_groups.h"
//   64 #include "ZDApp.h"
//   65 
//   66 #include "SampleApp.h"
//   67 #include "SampleAppHw.h"
//   68 
//   69 #include "OnBoard.h"
//   70 
//   71 /* HAL */
//   72 #include "hal_lcd.h"
//   73 #include "hal_led.h"
//   74 #include "hal_key.h"
//   75 #include "MT_UART.h"
//   76 #include "MT_APP.h"
//   77 #include "MT.h"
//   78 
//   79 
//   80 #include "Sensor.h"

        RSEG XDATA_Z:XDATA:NOROOT(0)
        DATA16
// unsigned int wendu
wendu:
        DS 2
        REQUIRE __INIT_XDATA_Z

        RSEG XDATA_Z:XDATA:NOROOT(0)
        DATA16
// unsigned int shidu
shidu:
        DS 2
        REQUIRE __INIT_XDATA_Z

        RSEG XDATA_Z:XDATA:NOROOT(0)
        DATA8
// int shiduTemp[10]
shiduTemp:
        DS 20
        REQUIRE __INIT_XDATA_Z

        RSEG XDATA_Z:XDATA:NOROOT(0)
        DATA8
// int wenduTemp[10]
wenduTemp:
        DS 20
        REQUIRE __INIT_XDATA_Z

        RSEG XDATA_Z:XDATA:NOROOT(0)
        DATA8
// unsigned char DHT22_num
DHT22_num:
        DS 1
        REQUIRE __INIT_XDATA_Z

        RSEG XDATA_Z:XDATA:NOROOT(0)
        DATA8
// uchar ucharFLAG
ucharFLAG:
        DS 1
        REQUIRE __INIT_XDATA_Z

        RSEG XDATA_Z:XDATA:NOROOT(0)
        DATA8
// uchar uchartemp
uchartemp:
        DS 1
        REQUIRE __INIT_XDATA_Z

        RSEG XDATA_Z:XDATA:NOROOT(0)
        DATA8
// uchar shidu_shi
shidu_shi:
        DS 1
        REQUIRE __INIT_XDATA_Z

        RSEG XDATA_Z:XDATA:NOROOT(0)
        DATA8
// uchar shidu_ge
shidu_ge:
        DS 1
        REQUIRE __INIT_XDATA_Z

        RSEG XDATA_Z:XDATA:NOROOT(0)
        DATA8
// uchar wendu_shi
wendu_shi:
        DS 1
        REQUIRE __INIT_XDATA_Z

        RSEG XDATA_Z:XDATA:NOROOT(0)
        DATA8
// uchar wendu_ge
wendu_ge:
        DS 1
        REQUIRE __INIT_XDATA_Z

        RSEG XDATA_Z:XDATA:NOROOT(0)
        DATA8
// uchar wendu_dian
wendu_dian:
        DS 1
        REQUIRE __INIT_XDATA_Z

        RSEG XDATA_Z:XDATA:NOROOT(0)
        DATA8
// uchar shidu_dian
shidu_dian:
        DS 1
        REQUIRE __INIT_XDATA_Z

        RSEG XDATA_Z:XDATA:NOROOT(0)
        DATA8
// uchar ucharT_data_H
ucharT_data_H:
        DS 1
        REQUIRE __INIT_XDATA_Z

        RSEG XDATA_Z:XDATA:NOROOT(0)
        DATA8
// uchar ucharT_data_L
ucharT_data_L:
        DS 1
        REQUIRE __INIT_XDATA_Z

        RSEG XDATA_Z:XDATA:NOROOT(0)
        DATA8
// uchar ucharRH_data_H
ucharRH_data_H:
        DS 1
        REQUIRE __INIT_XDATA_Z

        RSEG XDATA_Z:XDATA:NOROOT(0)
        DATA8
// uchar ucharRH_data_L
ucharRH_data_L:
        DS 1
        REQUIRE __INIT_XDATA_Z

        RSEG XDATA_Z:XDATA:NOROOT(0)
        DATA8
// uchar ucharcheckdata
ucharcheckdata:
        DS 1
        REQUIRE __INIT_XDATA_Z

        RSEG XDATA_Z:XDATA:NOROOT(0)
        DATA8
// uchar ucharT_data_H_temp
ucharT_data_H_temp:
        DS 1
        REQUIRE __INIT_XDATA_Z

        RSEG XDATA_Z:XDATA:NOROOT(0)
        DATA8
// uchar ucharT_data_L_temp
ucharT_data_L_temp:
        DS 1
        REQUIRE __INIT_XDATA_Z

        RSEG XDATA_Z:XDATA:NOROOT(0)
        DATA8
// uchar ucharRH_data_H_temp
ucharRH_data_H_temp:
        DS 1
        REQUIRE __INIT_XDATA_Z

        RSEG XDATA_Z:XDATA:NOROOT(0)
        DATA8
// uchar ucharRH_data_L_temp
ucharRH_data_L_temp:
        DS 1
        REQUIRE __INIT_XDATA_Z

        RSEG XDATA_Z:XDATA:NOROOT(0)
        DATA8
// uchar ucharcheckdata_temp
ucharcheckdata_temp:
        DS 1
        REQUIRE __INIT_XDATA_Z

        RSEG XDATA_Z:XDATA:NOROOT(0)
        DATA8
// uchar ucharcomdata
ucharcomdata:
        DS 1
        REQUIRE __INIT_XDATA_Z

        RSEG XDATA_Z:XDATA:NOROOT(0)
        DATA8
// uchar ErrFLAG
ErrFLAG:
        DS 1
        REQUIRE __INIT_XDATA_Z

        RSEG XDATA_Z:XDATA:NOROOT(0)
        DATA8
// unsigned char SensorsData[23]
SensorsData:
        DS 23
        REQUIRE __INIT_XDATA_Z

        RSEG BANKED_CODE:CODE:NOROOT(0)
// __banked_func __xdata_reentrant void SendData(unsigned int, unsigned char)
SendData:
          CFI Block cfiBlock0 Using cfiCommon0
          CFI Function SendData
        CODE
        PUSH    DPL
          CFI DPL0 Frame(CFA_SP, 4)
          CFI CFA_SP SP+-4
        PUSH    DPH
          CFI DPH0 Frame(CFA_SP, 5)
          CFI CFA_SP SP+-5
        ; Saved register size: 2
        ; Auto size: 0
        LCALL   ?Subroutine7 & 0xFFFF
??CrossCallReturnLabel_4:
        MOV     A,R1
        LJMP    ?Subroutine0 & 0xFFFF
          CFI EndBlock cfiBlock0

        RSEG BANKED_CODE:CODE:NOROOT(0)
// __banked_func __xdata_reentrant unsigned char ReadData(unsigned int)
ReadData:
          CFI Block cfiBlock1 Using cfiCommon0
          CFI Function ReadData
        CODE
        PUSH    DPL
          CFI DPL0 Frame(CFA_SP, 4)
          CFI CFA_SP SP+-4
        PUSH    DPH
          CFI DPH0 Frame(CFA_SP, 5)
          CFI CFA_SP SP+-5
        ; Saved register size: 2
        ; Auto size: 0
        LCALL   ?Subroutine7 & 0xFFFF
??CrossCallReturnLabel_5:
        MOVX    A,@DPTR
        MOV     R1,A
        LJMP    ??Subroutine37_0 & 0xFFFF
          CFI EndBlock cfiBlock1

        RSEG BANKED_CODE:CODE:NOROOT(0)
?Subroutine7:
          CFI Block cfiCond2 Using cfiCommon0
          CFI Function SendData
          CFI Conditional ??CrossCallReturnLabel_4
          CFI DPL0 Frame(CFA_SP, 4)
          CFI DPH0 Frame(CFA_SP, 5)
          CFI CFA_SP SP+-5
          CFI Block cfiCond3 Using cfiCommon0
          CFI (cfiCond3) Function ReadData
          CFI (cfiCond3) Conditional ??CrossCallReturnLabel_5
          CFI (cfiCond3) DPL0 Frame(CFA_SP, 4)
          CFI (cfiCond3) DPH0 Frame(CFA_SP, 5)
          CFI (cfiCond3) CFA_SP SP+-5
          CFI Block cfiPicker4 Using cfiCommon1
          CFI (cfiPicker4) NoFunction
          CFI (cfiPicker4) Picker
        MOV     A,#SensorsData & 0xff
        ADD     A,R2
        MOV     DPL,A
        MOV     A,#(SensorsData >> 8) & 0xff
        ADDC    A,R3
        MOV     DPH,A
        RET
          CFI EndBlock cfiCond2
          CFI EndBlock cfiCond3
          CFI EndBlock cfiPicker4

        RSEG BANKED_CODE:CODE:NOROOT(0)
// __banked_func __xdata_reentrant void delay_25us(void)
delay_25us:
          CFI Block cfiBlock5 Using cfiCommon0
          CFI Function delay_25us
        CODE
        ; Saved register size: 0
        ; Auto size: 0
        MOV     A,#0x3c
??delay_25us_0:
        nop
        DEC     A
        JNZ     ??delay_25us_0
        LJMP    ?BRET
          CFI EndBlock cfiBlock5

        RSEG BANKED_CODE:CODE:NOROOT(0)
// __banked_func __xdata_reentrant void SendData_DHT22(void)
SendData_DHT22:
          CFI Block cfiBlock6 Using cfiCommon0
          CFI Function SendData_DHT22
        CODE
        PUSH    DPL
          CFI DPL0 Frame(CFA_SP, 4)
          CFI CFA_SP SP+-4
        PUSH    DPH
          CFI DPH0 Frame(CFA_SP, 5)
          CFI CFA_SP SP+-5
        ; Saved register size: 2
        ; Auto size: 11
        MOV     A,#-0xb
        LCALL   ?ALLOC_XSTACK8
          CFI CFA_XSP16 add(XSP16, 11)
        MOV     DPTR,#wendu
        LCALL   ?Subroutine15 & 0xFFFF
??CrossCallReturnLabel_27:
        LCALL   ?US_DIV_MOD
        MOV     A,R0
        MOV     DPTR,#wendu_shi
        LCALL   ?Subroutine8 & 0xFFFF
??CrossCallReturnLabel_95:
        LCALL   ?US_DIV_MOD
        MOV     R2,#0xa
        MOV     R3,#0x0
        LCALL   ?US_DIV_MOD
        MOV     A,R2
        MOV     DPTR,#wendu_ge
        LCALL   ?Subroutine8 & 0xFFFF
??CrossCallReturnLabel_96:
        LCALL   ?US_DIV_MOD
        MOV     A,R2
        MOV     DPTR,#wendu_dian
        MOVX    @DPTR,A
        MOV     DPTR,#shidu
        LCALL   ?Subroutine15 & 0xFFFF
??CrossCallReturnLabel_28:
        LCALL   ?US_DIV_MOD
        MOV     A,R0
        MOV     DPTR,#shidu_shi
        MOVX    @DPTR,A
        MOV     DPTR,#shidu
        LCALL   ??Subroutine43_0 & 0xFFFF
??CrossCallReturnLabel_97:
        LCALL   ?US_DIV_MOD
        MOV     R2,#0xa
        MOV     R3,#0x0
        LCALL   ?US_DIV_MOD
        MOV     A,R2
        MOV     DPTR,#shidu_ge
        MOVX    @DPTR,A
        MOV     DPTR,#shidu
        LCALL   ??Subroutine43_0 & 0xFFFF
??CrossCallReturnLabel_98:
        LCALL   ?US_DIV_MOD
        MOV     A,R2
        MOV     DPTR,#shidu_dian
        MOVX    @DPTR,A
        MOV     DPTR,#wendu_shi
        MOVX    A,@DPTR
        ADD     A,#0x30
        PUSH    A
          CFI CFA_SP SP+-6
        MOV     A,#0x5
        LCALL   ?XSTACK_DISP0_8
        POP     A
          CFI CFA_SP SP+-5
        MOVX    @DPTR,A
        MOV     DPTR,#wendu_ge
        MOVX    A,@DPTR
        ADD     A,#0x30
        MOV     R0,A
        MOV     A,#0x6
        LCALL   ?XSTACK_DISP0_8
        MOV     A,R0
        MOVX    @DPTR,A
        MOV     A,#0x7
        LCALL   ?XSTACK_DISP0_8
        MOV     A,#0x2e
        MOVX    @DPTR,A
        MOV     DPTR,#wendu_dian
        MOVX    A,@DPTR
        ADD     A,#0x30
        MOV     R1,A
        MOV     A,#0x8
        LCALL   ?XSTACK_DISP0_8
        MOV     A,R1
        MOVX    @DPTR,A
        MOV     A,#0x9
        LCALL   ?XSTACK_DISP0_8
        MOV     A,#0x2a
        MOVX    @DPTR,A
        MOV     A,#0xa
        LCALL   ?XSTACK_DISP0_8
        MOV     A,#0x43
        MOVX    @DPTR,A
        MOV     A,#0x5
        LCALL   ?XSTACK_DISP0_8
        MOVX    A,@DPTR
        MOV     DPTR,#SensorsData + 1
        MOVX    @DPTR,A
        MOV     A,R0
        INC     DPTR
        MOVX    @DPTR,A
        MOV     A,R1
        INC     DPTR
        MOVX    @DPTR,A
        MOV     DPTR,#shidu_shi
        MOVX    A,@DPTR
        LCALL   ??Subroutine40_0 & 0xFFFF
??CrossCallReturnLabel_79:
        MOVX    @DPTR,A
        MOV     DPTR,#shidu_ge
        MOVX    A,@DPTR
        ADD     A,#0x30
        MOV     R0,A
        MOV     A,#0x1
        LCALL   ?XSTACK_DISP0_8
        MOV     A,R0
        MOVX    @DPTR,A
        MOV     A,#0x2
        LCALL   ?XSTACK_DISP0_8
        MOV     A,#0x2e
        MOVX    @DPTR,A
        MOV     DPTR,#shidu_dian
        MOVX    A,@DPTR
        ADD     A,#0x30
        MOV     R1,A
        MOV     A,#0x3
        LCALL   ?XSTACK_DISP0_8
        MOV     A,R1
        MOVX    @DPTR,A
        MOV     A,#0x4
        LCALL   ?XSTACK_DISP0_8
        MOV     A,#0x25
        LCALL   ??Subroutine38_0 & 0xFFFF
??CrossCallReturnLabel_72:
        MOV     DPTR,#SensorsData + 4
        MOVX    @DPTR,A
        MOV     A,R0
        INC     DPTR
        MOVX    @DPTR,A
        MOV     A,R1
        INC     DPTR
        MOVX    @DPTR,A
        MOV     A,#0xb
        LCALL   ?DEALLOC_XSTACK8
          CFI CFA_XSP16 XSP16+0
        LJMP    ??Subroutine37_0 & 0xFFFF
          CFI EndBlock cfiBlock6

        RSEG BANKED_CODE:CODE:NOROOT(0)
?Subroutine15:
          CFI Block cfiCond7 Using cfiCommon0
          CFI Function SendData_DHT22
          CFI Conditional ??CrossCallReturnLabel_27
          CFI DPL0 Frame(CFA_SP, 4)
          CFI DPH0 Frame(CFA_SP, 5)
          CFI CFA_SP SP+-5
          CFI CFA_XSP16 add(XSP16, 11)
          CFI Block cfiCond8 Using cfiCommon0
          CFI (cfiCond8) Function SendData_DHT22
          CFI (cfiCond8) Conditional ??CrossCallReturnLabel_28
          CFI (cfiCond8) DPL0 Frame(CFA_SP, 4)
          CFI (cfiCond8) DPH0 Frame(CFA_SP, 5)
          CFI (cfiCond8) CFA_SP SP+-5
          CFI (cfiCond8) CFA_XSP16 add(XSP16, 11)
          CFI Block cfiPicker9 Using cfiCommon1
          CFI (cfiPicker9) NoFunction
          CFI (cfiPicker9) Picker
        LCALL   ?Subroutine33 & 0xFFFF
??CrossCallReturnLabel_107:
        MOV     R2,#0x64
        MOV     R3,#0x0
        RET
          CFI EndBlock cfiCond7
          CFI EndBlock cfiCond8
          CFI EndBlock cfiPicker9

        RSEG BANKED_CODE:CODE:NOROOT(0)
// __banked_func __xdata_reentrant void COM(void)
COM:
          CFI Block cfiBlock10 Using cfiCommon0
          CFI Function COM
        CODE
        FUNCALL COM, delay_25us
        LOCFRAME ISTACK, 0, STACK
        LOCFRAME PSTACK, 0, STACK
        LOCFRAME XSTACK, 9, STACK
        LOCFRAME IOVERLAY, 0, STATIC
        LOCFRAME DOVERLAY, 0, STATIC
        ARGFRAME ISTACK, 0, STACK
        ARGFRAME PSTACK, 0, STACK
        ARGFRAME XSTACK, 9, STACK
        ARGFRAME IOVERLAY, 0, STATIC
        ARGFRAME DOVERLAY, 0, STATIC
        FUNCALL COM, delay_25us
        LOCFRAME ISTACK, 0, STACK
        LOCFRAME PSTACK, 0, STACK
        LOCFRAME XSTACK, 9, STACK
        LOCFRAME IOVERLAY, 0, STATIC
        LOCFRAME DOVERLAY, 0, STATIC
        ARGFRAME ISTACK, 0, STACK
        ARGFRAME PSTACK, 0, STACK
        ARGFRAME XSTACK, 9, STACK
        ARGFRAME IOVERLAY, 0, STATIC
        ARGFRAME DOVERLAY, 0, STATIC
        MOV     A,#-0x9
        LCALL   ?BANKED_ENTER_XDATA
          CFI DPH0 load(1, XDATA, add(CFA_XSP16, literal(-1)))
          CFI DPL0 load(1, XDATA, add(CFA_XSP16, literal(-2)))
          CFI ?BRET_EXT load(1, XDATA, add(CFA_XSP16, literal(-3)))
          CFI ?RET_HIGH load(1, XDATA, add(CFA_XSP16, literal(-4)))
          CFI ?RET_LOW load(1, XDATA, add(CFA_XSP16, literal(-5)))
          CFI R7 load(1, XDATA, add(CFA_XSP16, literal(-6)))
          CFI V0 load(1, XDATA, add(CFA_XSP16, literal(-7)))
          CFI VB load(1, XDATA, add(CFA_XSP16, literal(-8)))
          CFI R6 load(1, XDATA, add(CFA_XSP16, literal(-9)))
          CFI CFA_SP SP+0
          CFI CFA_XSP16 add(XSP16, 9)
        ; Saved register size: 9
        ; Auto size: 0
        MOV     R6,#0x8
??COM_0:
        MOV     DPTR,#ErrFLAG
        MOV     A,#0x2
        MOVX    @DPTR,A
??COM_1:
        MOV     C,0x80.1
        JC      ??COM_2
        LCALL   ?Subroutine12 & 0xFFFF
??CrossCallReturnLabel_15:
        JNZ     ??COM_1
??COM_2:
        ; Setup parameters for call to function delay_25us
        LCALL   ??delay_25us?relay
        ; Setup parameters for call to function delay_25us
        LCALL   ??delay_25us?relay
        MOV     DPTR,#uchartemp
        CLR     A
        MOVX    @DPTR,A
        MOV     C,0x80.1
        JNC     ??COM_3
        INC     A
        MOVX    @DPTR,A
??COM_3:
        MOV     DPTR,#ErrFLAG
        MOV     A,#0x2
        MOVX    @DPTR,A
??COM_4:
        MOV     C,0x80.1
        JNC     ??COM_5
        LCALL   ?Subroutine12 & 0xFFFF
??CrossCallReturnLabel_16:
        JNZ     ??COM_4
??COM_5:
        MOV     DPTR,#uchartemp
        MOVX    A,@DPTR
        MOV     R0,A
        MOV     DPTR,#ucharcomdata
        MOVX    A,@DPTR
        CLR     C
        RLC     A
        ORL     A,R0
        MOVX    @DPTR,A
        DEC     R6
        MOV     A,R6
        JNZ     ??COM_0
        LJMP    ?Subroutine1 & 0xFFFF
          CFI EndBlock cfiBlock10
        REQUIRE _A_P0

        RSEG BANKED_CODE:CODE:NOROOT(0)
// __banked_func __xdata_reentrant void DHT22(void)
DHT22:
          CFI Block cfiBlock11 Using cfiCommon0
          CFI Function DHT22
        CODE
        FUNCALL DHT22, delay_25us
        LOCFRAME ISTACK, 0, STACK
        LOCFRAME PSTACK, 0, STACK
        LOCFRAME XSTACK, 9, STACK
        LOCFRAME IOVERLAY, 0, STATIC
        LOCFRAME DOVERLAY, 0, STATIC
        ARGFRAME ISTACK, 0, STACK
        ARGFRAME PSTACK, 0, STACK
        ARGFRAME XSTACK, 9, STACK
        ARGFRAME IOVERLAY, 0, STATIC
        ARGFRAME DOVERLAY, 0, STATIC
        FUNCALL DHT22, delay_25us
        LOCFRAME ISTACK, 0, STACK
        LOCFRAME PSTACK, 0, STACK
        LOCFRAME XSTACK, 9, STACK
        LOCFRAME IOVERLAY, 0, STATIC
        LOCFRAME DOVERLAY, 0, STATIC
        ARGFRAME ISTACK, 0, STACK
        ARGFRAME PSTACK, 0, STACK
        ARGFRAME XSTACK, 9, STACK
        ARGFRAME IOVERLAY, 0, STATIC
        ARGFRAME DOVERLAY, 0, STATIC
        FUNCALL DHT22, delay_25us
        LOCFRAME ISTACK, 0, STACK
        LOCFRAME PSTACK, 0, STACK
        LOCFRAME XSTACK, 9, STACK
        LOCFRAME IOVERLAY, 0, STATIC
        LOCFRAME DOVERLAY, 0, STATIC
        ARGFRAME ISTACK, 0, STACK
        ARGFRAME PSTACK, 0, STACK
        ARGFRAME XSTACK, 9, STACK
        ARGFRAME IOVERLAY, 0, STATIC
        ARGFRAME DOVERLAY, 0, STATIC
        FUNCALL DHT22, COM
        LOCFRAME ISTACK, 0, STACK
        LOCFRAME PSTACK, 0, STACK
        LOCFRAME XSTACK, 9, STACK
        LOCFRAME IOVERLAY, 0, STATIC
        LOCFRAME DOVERLAY, 0, STATIC
        ARGFRAME ISTACK, 0, STACK
        ARGFRAME PSTACK, 0, STACK
        ARGFRAME XSTACK, 9, STACK
        ARGFRAME IOVERLAY, 0, STATIC
        ARGFRAME DOVERLAY, 0, STATIC
        FUNCALL DHT22, COM
        LOCFRAME ISTACK, 0, STACK
        LOCFRAME PSTACK, 0, STACK
        LOCFRAME XSTACK, 9, STACK
        LOCFRAME IOVERLAY, 0, STATIC
        LOCFRAME DOVERLAY, 0, STATIC
        ARGFRAME ISTACK, 0, STACK
        ARGFRAME PSTACK, 0, STACK
        ARGFRAME XSTACK, 9, STACK
        ARGFRAME IOVERLAY, 0, STATIC
        ARGFRAME DOVERLAY, 0, STATIC
        FUNCALL DHT22, COM
        LOCFRAME ISTACK, 0, STACK
        LOCFRAME PSTACK, 0, STACK
        LOCFRAME XSTACK, 9, STACK
        LOCFRAME IOVERLAY, 0, STATIC
        LOCFRAME DOVERLAY, 0, STATIC
        ARGFRAME ISTACK, 0, STACK
        ARGFRAME PSTACK, 0, STACK
        ARGFRAME XSTACK, 9, STACK
        ARGFRAME IOVERLAY, 0, STATIC
        ARGFRAME DOVERLAY, 0, STATIC
        FUNCALL DHT22, COM
        LOCFRAME ISTACK, 0, STACK
        LOCFRAME PSTACK, 0, STACK
        LOCFRAME XSTACK, 9, STACK
        LOCFRAME IOVERLAY, 0, STATIC
        LOCFRAME DOVERLAY, 0, STATIC
        ARGFRAME ISTACK, 0, STACK
        ARGFRAME PSTACK, 0, STACK
        ARGFRAME XSTACK, 9, STACK
        ARGFRAME IOVERLAY, 0, STATIC
        ARGFRAME DOVERLAY, 0, STATIC
        FUNCALL DHT22, COM
        LOCFRAME ISTACK, 0, STACK
        LOCFRAME PSTACK, 0, STACK
        LOCFRAME XSTACK, 9, STACK
        LOCFRAME IOVERLAY, 0, STATIC
        LOCFRAME DOVERLAY, 0, STATIC
        ARGFRAME ISTACK, 0, STACK
        ARGFRAME PSTACK, 0, STACK
        ARGFRAME XSTACK, 9, STACK
        ARGFRAME IOVERLAY, 0, STATIC
        ARGFRAME DOVERLAY, 0, STATIC
        MOV     A,#-0x9
        LCALL   ?BANKED_ENTER_XDATA
          CFI DPH0 load(1, XDATA, add(CFA_XSP16, literal(-1)))
          CFI DPL0 load(1, XDATA, add(CFA_XSP16, literal(-2)))
          CFI ?BRET_EXT load(1, XDATA, add(CFA_XSP16, literal(-3)))
          CFI ?RET_HIGH load(1, XDATA, add(CFA_XSP16, literal(-4)))
          CFI ?RET_LOW load(1, XDATA, add(CFA_XSP16, literal(-5)))
          CFI R7 load(1, XDATA, add(CFA_XSP16, literal(-6)))
          CFI V0 load(1, XDATA, add(CFA_XSP16, literal(-7)))
          CFI VB load(1, XDATA, add(CFA_XSP16, literal(-8)))
          CFI R6 load(1, XDATA, add(CFA_XSP16, literal(-9)))
          CFI CFA_SP SP+0
          CFI CFA_XSP16 add(XSP16, 9)
        ; Saved register size: 9
        ; Auto size: 0
        ORL     0xfd,#0x2
        CLR     0x80.1
        MOV     R6,#0x20
??DHT22_0:
        ; Setup parameters for call to function delay_25us
        LCALL   ??delay_25us?relay
        DEC     R6
        MOV     A,R6
        JNZ     ??DHT22_0
        SETB    0x80.1
        ANL     0xfd,#0xfd
        ; Setup parameters for call to function delay_25us
        LCALL   ??delay_25us?relay
        ; Setup parameters for call to function delay_25us
        LCALL   ??delay_25us?relay
        MOV     DPTR,#ErrFLAG
        MOV     A,#0x2
        MOVX    @DPTR,A
??DHT22_1:
        MOV     C,0x80.1
        JC      ??DHT22_2
        LCALL   ?Subroutine12 & 0xFFFF
??CrossCallReturnLabel_17:
        JNZ     ??DHT22_1
??DHT22_2:
        MOV     A,#0x2
        MOVX    @DPTR,A
??DHT22_3:
        MOV     C,0x80.1
        JNC     ??DHT22_4
        LCALL   ?Subroutine12 & 0xFFFF
??CrossCallReturnLabel_18:
        JNZ     ??DHT22_3
??DHT22_4:
        ; Setup parameters for call to function COM
        LCALL   ??COM?relay
        MOV     DPTR,#ucharcomdata
        MOVX    A,@DPTR
        MOV     DPTR,#ucharRH_data_H_temp
        MOVX    @DPTR,A
        ; Setup parameters for call to function COM
        LCALL   ??COM?relay
        MOV     DPTR,#ucharcomdata
        MOVX    A,@DPTR
        MOV     DPTR,#ucharRH_data_L_temp
        MOVX    @DPTR,A
        ; Setup parameters for call to function COM
        LCALL   ??COM?relay
        MOV     DPTR,#ucharcomdata
        MOVX    A,@DPTR
        MOV     DPTR,#ucharT_data_H_temp
        MOVX    @DPTR,A
        ; Setup parameters for call to function COM
        LCALL   ??COM?relay
        MOV     DPTR,#ucharcomdata
        MOVX    A,@DPTR
        MOV     DPTR,#ucharT_data_L_temp
        MOVX    @DPTR,A
        ; Setup parameters for call to function COM
        LCALL   ??COM?relay
        MOV     DPTR,#ucharcomdata
        MOVX    A,@DPTR
        MOV     DPTR,#ucharcheckdata_temp
        MOVX    @DPTR,A
        SETB    0x80.1
        MOV     DPTR,#ucharRH_data_L_temp
        MOVX    A,@DPTR
        MOV     R2,A
        MOV     DPTR,#ucharRH_data_H_temp
        MOVX    A,@DPTR
        MOV     R1,A
        MOV     DPTR,#ucharT_data_L_temp
        MOVX    A,@DPTR
        MOV     R0,A
        MOV     DPTR,#ucharT_data_H_temp
        MOVX    A,@DPTR
        ADD     A,R0
        ADD     A,R1
        ADD     A,R2
        MOV     DPTR,#uchartemp
        MOVX    @DPTR,A
        MOV     R0,A
        MOV     DPTR,#ucharcheckdata_temp
        MOVX    A,@DPTR
        XRL     A,R0
        JNZ     ??DHT22_5
        MOV     DPTR,#ucharRH_data_H_temp
        MOVX    A,@DPTR
        MOV     DPTR,#ucharRH_data_H
        MOVX    @DPTR,A
        MOV     DPTR,#ucharRH_data_L_temp
        MOVX    A,@DPTR
        MOV     DPTR,#ucharRH_data_L
        MOVX    @DPTR,A
        MOV     DPTR,#ucharT_data_H_temp
        MOVX    A,@DPTR
        MOV     DPTR,#ucharT_data_H
        MOVX    @DPTR,A
        MOV     DPTR,#ucharT_data_L_temp
        MOVX    A,@DPTR
        MOV     DPTR,#ucharT_data_L
        MOVX    @DPTR,A
        MOV     DPTR,#ucharcheckdata_temp
        MOVX    A,@DPTR
        MOV     DPTR,#ucharcheckdata
        MOVX    @DPTR,A
??DHT22_5:
        MOV     DPTR,#ucharT_data_H
        MOVX    A,@DPTR
        MOV     R1,A
        MOV     DPTR,#ucharT_data_L
        MOVX    A,@DPTR
        MOV     DPTR,#wendu
        LCALL   ??Subroutine42_0 & 0xFFFF
??CrossCallReturnLabel_89:
        MOV     DPTR,#ucharRH_data_H
        MOVX    A,@DPTR
        MOV     R1,A
        MOV     DPTR,#ucharRH_data_L
        MOVX    A,@DPTR
        MOV     DPTR,#shidu
        LCALL   ??Subroutine42_0 & 0xFFFF
??CrossCallReturnLabel_90:
        ORL     0xfd,#0x2
        LJMP    ?Subroutine1 & 0xFFFF
          CFI EndBlock cfiBlock11
        REQUIRE P0DIR
        REQUIRE _A_P0

        RSEG BANKED_CODE:CODE:NOROOT(0)
?Subroutine12:
          CFI Block cfiCond12 Using cfiCommon0
          CFI Function COM
          CFI Conditional ??CrossCallReturnLabel_15
          CFI R6 load(1, XDATA, add(CFA_XSP16, literal(-9)))
          CFI VB load(1, XDATA, add(CFA_XSP16, literal(-8)))
          CFI V0 load(1, XDATA, add(CFA_XSP16, literal(-7)))
          CFI R7 load(1, XDATA, add(CFA_XSP16, literal(-6)))
          CFI ?RET_LOW load(1, XDATA, add(CFA_XSP16, literal(-5)))
          CFI ?RET_HIGH load(1, XDATA, add(CFA_XSP16, literal(-4)))
          CFI ?BRET_EXT load(1, XDATA, add(CFA_XSP16, literal(-3)))
          CFI DPL0 load(1, XDATA, add(CFA_XSP16, literal(-2)))
          CFI DPH0 load(1, XDATA, add(CFA_XSP16, literal(-1)))
          CFI CFA_SP SP+0
          CFI CFA_XSP16 add(XSP16, 9)
          CFI Block cfiCond13 Using cfiCommon0
          CFI (cfiCond13) Function COM
          CFI (cfiCond13) Conditional ??CrossCallReturnLabel_16
          CFI (cfiCond13) R6 load(1, XDATA, add(CFA_XSP16, literal(-9)))
          CFI (cfiCond13) VB load(1, XDATA, add(CFA_XSP16, literal(-8)))
          CFI (cfiCond13) V0 load(1, XDATA, add(CFA_XSP16, literal(-7)))
          CFI (cfiCond13) R7 load(1, XDATA, add(CFA_XSP16, literal(-6)))
          CFI (cfiCond13) ?RET_LOW load(1, XDATA, add(CFA_XSP16, literal(-5)))
          CFI (cfiCond13) ?RET_HIGH load(1, XDATA, add(CFA_XSP16, literal(-4)))
          CFI (cfiCond13) ?BRET_EXT load(1, XDATA, add(CFA_XSP16, literal(-3)))
          CFI (cfiCond13) DPL0 load(1, XDATA, add(CFA_XSP16, literal(-2)))
          CFI (cfiCond13) DPH0 load(1, XDATA, add(CFA_XSP16, literal(-1)))
          CFI (cfiCond13) CFA_SP SP+0
          CFI (cfiCond13) CFA_XSP16 add(XSP16, 9)
          CFI Block cfiCond14 Using cfiCommon0
          CFI (cfiCond14) Function DHT22
          CFI (cfiCond14) Conditional ??CrossCallReturnLabel_17
          CFI (cfiCond14) R6 load(1, XDATA, add(CFA_XSP16, literal(-9)))
          CFI (cfiCond14) VB load(1, XDATA, add(CFA_XSP16, literal(-8)))
          CFI (cfiCond14) V0 load(1, XDATA, add(CFA_XSP16, literal(-7)))
          CFI (cfiCond14) R7 load(1, XDATA, add(CFA_XSP16, literal(-6)))
          CFI (cfiCond14) ?RET_LOW load(1, XDATA, add(CFA_XSP16, literal(-5)))
          CFI (cfiCond14) ?RET_HIGH load(1, XDATA, add(CFA_XSP16, literal(-4)))
          CFI (cfiCond14) ?BRET_EXT load(1, XDATA, add(CFA_XSP16, literal(-3)))
          CFI (cfiCond14) DPL0 load(1, XDATA, add(CFA_XSP16, literal(-2)))
          CFI (cfiCond14) DPH0 load(1, XDATA, add(CFA_XSP16, literal(-1)))
          CFI (cfiCond14) CFA_SP SP+0
          CFI (cfiCond14) CFA_XSP16 add(XSP16, 9)
          CFI Block cfiCond15 Using cfiCommon0
          CFI (cfiCond15) Function DHT22
          CFI (cfiCond15) Conditional ??CrossCallReturnLabel_18
          CFI (cfiCond15) R6 load(1, XDATA, add(CFA_XSP16, literal(-9)))
          CFI (cfiCond15) VB load(1, XDATA, add(CFA_XSP16, literal(-8)))
          CFI (cfiCond15) V0 load(1, XDATA, add(CFA_XSP16, literal(-7)))
          CFI (cfiCond15) R7 load(1, XDATA, add(CFA_XSP16, literal(-6)))
          CFI (cfiCond15) ?RET_LOW load(1, XDATA, add(CFA_XSP16, literal(-5)))
          CFI (cfiCond15) ?RET_HIGH load(1, XDATA, add(CFA_XSP16, literal(-4)))
          CFI (cfiCond15) ?BRET_EXT load(1, XDATA, add(CFA_XSP16, literal(-3)))
          CFI (cfiCond15) DPL0 load(1, XDATA, add(CFA_XSP16, literal(-2)))
          CFI (cfiCond15) DPH0 load(1, XDATA, add(CFA_XSP16, literal(-1)))
          CFI (cfiCond15) CFA_SP SP+0
          CFI (cfiCond15) CFA_XSP16 add(XSP16, 9)
          CFI Block cfiPicker16 Using cfiCommon1
          CFI (cfiPicker16) NoFunction
          CFI (cfiPicker16) Picker
        MOVX    A,@DPTR
        MOV     R0,A
        MOV     A,#0x1
        ADD     A,R0
        MOVX    @DPTR,A
        MOV     A,R0
        RET
          CFI EndBlock cfiCond12
          CFI EndBlock cfiCond13
          CFI EndBlock cfiCond14
          CFI EndBlock cfiCond15
          CFI EndBlock cfiPicker16

        RSEG BANKED_CODE:CODE:NOROOT(0)
// __banked_func __xdata_reentrant void DHT22_background(void)
DHT22_background:
          CFI Block cfiBlock17 Using cfiCommon0
          CFI Function DHT22_background
        CODE
        FUNCALL DHT22_background, DHT22
        LOCFRAME ISTACK, 2, STACK
        LOCFRAME PSTACK, 0, STACK
        LOCFRAME XSTACK, 0, STACK
        LOCFRAME IOVERLAY, 0, STATIC
        LOCFRAME DOVERLAY, 0, STATIC
        ARGFRAME ISTACK, 2, STACK
        ARGFRAME PSTACK, 0, STACK
        ARGFRAME XSTACK, 0, STACK
        ARGFRAME IOVERLAY, 0, STATIC
        ARGFRAME DOVERLAY, 0, STATIC
        PUSH    DPL
          CFI DPL0 Frame(CFA_SP, 4)
          CFI CFA_SP SP+-4
        PUSH    DPH
          CFI DPH0 Frame(CFA_SP, 5)
          CFI CFA_SP SP+-5
        ; Saved register size: 2
        ; Auto size: 0
        ; Setup parameters for call to function DHT22
        LCALL   ??DHT22?relay
        SJMP    ??Subroutine37_0
          CFI EndBlock cfiBlock17

        RSEG BANKED_CODE:CODE:NOROOT(0)
?Subroutine0:
          CFI Block cfiBlock18 Using cfiCommon0
          CFI NoFunction
          CFI CFA_SP SP+-5
          CFI DPL0 Frame(CFA_SP, 4)
          CFI DPH0 Frame(CFA_SP, 5)
        MOVX    @DPTR,A
          CFI EndBlock cfiBlock18
        REQUIRE ??Subroutine37_0
        ; // Fall through to label ??Subroutine37_0

        RSEG BANKED_CODE:CODE:NOROOT(0)
??Subroutine37_0:
          CFI Block cfiBlock19 Using cfiCommon0
          CFI NoFunction
          CFI CFA_SP SP+-5
          CFI DPL0 Frame(CFA_SP, 4)
          CFI DPH0 Frame(CFA_SP, 5)
        POP     DPH
          CFI CFA_SP SP+-4
          CFI DPH0 SameValue
        POP     DPL
          CFI CFA_SP SP+-3
          CFI DPL0 SameValue
        LJMP    ?BRET
          CFI EndBlock cfiBlock19

        RSEG BANKED_CODE:CODE:NOROOT(0)
// __banked_func __xdata_reentrant unsigned int Shiwen(void)
Shiwen:
          CFI Block cfiBlock20 Using cfiCommon0
          CFI Function Shiwen
        CODE
        PUSH    DPL
          CFI DPL0 Frame(CFA_SP, 4)
          CFI CFA_SP SP+-4
        PUSH    DPH
          CFI DPH0 Frame(CFA_SP, 5)
          CFI CFA_SP SP+-5
        ; Saved register size: 2
        ; Auto size: 0
        MOV     DPTR,#wendu
        MOVX    A,@DPTR
        MOV     R2,A
        INC     DPTR
        MOVX    A,@DPTR
        MOV     R3,A
        SJMP    ??Subroutine37_0
          CFI EndBlock cfiBlock20

        RSEG XDATA_Z:XDATA:NOROOT(0)
        DATA8
// int Temp_MS1100[10]
Temp_MS1100:
        DS 20
        REQUIRE __INIT_XDATA_Z

        RSEG BANKED_CODE:CODE:NOROOT(0)
// __banked_func __xdata_reentrant void Init_MS1100(void)
Init_MS1100:
          CFI Block cfiBlock21 Using cfiCommon0
          CFI Function Init_MS1100
        CODE
        ; Saved register size: 0
        ; Auto size: 0
        ANL     0xfd,#0xef
        ORL     0xf2,#0x10
        LJMP    ?BRET
          CFI EndBlock cfiBlock21
        REQUIRE P0DIR
        REQUIRE ADCCFG

        RSEG BANKED_CODE:CODE:NOROOT(0)
// __banked_func __xdata_reentrant void background_MS1100(void)
background_MS1100:
          CFI Block cfiBlock22 Using cfiCommon0
          CFI Function background_MS1100
        CODE
        MOV     A,#-0xa
        LCALL   ?BANKED_ENTER_XDATA
          CFI DPH0 load(1, XDATA, add(CFA_XSP16, literal(-1)))
          CFI DPL0 load(1, XDATA, add(CFA_XSP16, literal(-2)))
          CFI ?BRET_EXT load(1, XDATA, add(CFA_XSP16, literal(-3)))
          CFI ?RET_HIGH load(1, XDATA, add(CFA_XSP16, literal(-4)))
          CFI ?RET_LOW load(1, XDATA, add(CFA_XSP16, literal(-5)))
          CFI R7 load(1, XDATA, add(CFA_XSP16, literal(-6)))
          CFI V1 load(1, XDATA, add(CFA_XSP16, literal(-7)))
          CFI V0 load(1, XDATA, add(CFA_XSP16, literal(-8)))
          CFI VB load(1, XDATA, add(CFA_XSP16, literal(-9)))
          CFI R6 load(1, XDATA, add(CFA_XSP16, literal(-10)))
          CFI CFA_SP SP+0
          CFI CFA_XSP16 add(XSP16, 10)
        ; Saved register size: 10
        ; Auto size: 0
        MOV     0xb4,#0x30
        MOV     0xb6,#-0x4c
        ORL     0xb4,#0x40
??background_MS1100_0:
        MOV     A,0xb4
        MOV     C,0xE0 /* A   */.7
        JNC     ??background_MS1100_0
        LCALL   ?Subroutine27 & 0xFFFF
??CrossCallReturnLabel_44:
        LCALL   ?S_SHL
        LCALL   ?Subroutine28 & 0xFFFF
??CrossCallReturnLabel_49:
        MOV     DPTR,#??i_MS1100
        LCALL   ?Subroutine9 & 0xFFFF
??CrossCallReturnLabel_6:
        MOV     A,#Temp_MS1100 & 0xff
        ADD     A,R0
        MOV     DPL,A
        MOV     A,#(Temp_MS1100 >> 8) & 0xff
        LCALL   ?Subroutine31 & 0xFFFF
??CrossCallReturnLabel_60:
        MOV     DPTR,#??i_MS1100
        LCALL   ?Subroutine14 & 0xFFFF
??CrossCallReturnLabel_21:
        MOV     DPTR,#??i_MS1100
        MOVX    A,@DPTR
        XRL     A,#0xa
        JNZ     ??background_MS1100_1
        INC     DPTR
        MOVX    A,@DPTR
??background_MS1100_1:
        JNZ     ??background_MS1100_2
        MOV     DPTR,#??i_MS1100
        CLR     A
        MOVX    @DPTR,A
        INC     DPTR
        MOVX    @DPTR,A
??background_MS1100_2:
        LJMP    ?Subroutine2 & 0xFFFF
          CFI EndBlock cfiBlock22
        REQUIRE ADCCON1
        REQUIRE ADCCON3
        REQUIRE ADCL
        REQUIRE ADCH

        RSEG XDATA_Z:XDATA:NOROOT(0)
        DATA16
// int background_MS1100::i_MS1100
??i_MS1100:
        DS 2
        REQUIRE __INIT_XDATA_Z

        RSEG BANKED_CODE:CODE:NOROOT(0)
// __banked_func __xdata_reentrant void SendData_MS1100(void)
SendData_MS1100:
          CFI Block cfiBlock23 Using cfiCommon0
          CFI Function SendData_MS1100
        CODE
        FUNCALL SendData_MS1100, pow
        LOCFRAME ISTACK, 0, STACK
        LOCFRAME PSTACK, 0, STACK
        LOCFRAME XSTACK, 31, STACK
        LOCFRAME IOVERLAY, 0, STATIC
        LOCFRAME DOVERLAY, 0, STATIC
        ARGFRAME ISTACK, 0, STACK
        ARGFRAME PSTACK, 0, STACK
        ARGFRAME XSTACK, 31, STACK
        ARGFRAME IOVERLAY, 0, STATIC
        ARGFRAME DOVERLAY, 0, STATIC
        MOV     A,#-0x18
        LCALL   ?BANKED_ENTER_XDATA
          CFI DPH0 load(1, XDATA, add(CFA_XSP16, literal(-1)))
          CFI DPL0 load(1, XDATA, add(CFA_XSP16, literal(-2)))
          CFI ?BRET_EXT load(1, XDATA, add(CFA_XSP16, literal(-3)))
          CFI ?RET_HIGH load(1, XDATA, add(CFA_XSP16, literal(-4)))
          CFI ?RET_LOW load(1, XDATA, add(CFA_XSP16, literal(-5)))
          CFI R7 load(1, XDATA, add(CFA_XSP16, literal(-6)))
          CFI V15 load(1, XDATA, add(CFA_XSP16, literal(-7)))
          CFI V14 load(1, XDATA, add(CFA_XSP16, literal(-8)))
          CFI V13 load(1, XDATA, add(CFA_XSP16, literal(-9)))
          CFI V12 load(1, XDATA, add(CFA_XSP16, literal(-10)))
          CFI V11 load(1, XDATA, add(CFA_XSP16, literal(-11)))
          CFI V10 load(1, XDATA, add(CFA_XSP16, literal(-12)))
          CFI V9 load(1, XDATA, add(CFA_XSP16, literal(-13)))
          CFI V8 load(1, XDATA, add(CFA_XSP16, literal(-14)))
          CFI V7 load(1, XDATA, add(CFA_XSP16, literal(-15)))
          CFI V6 load(1, XDATA, add(CFA_XSP16, literal(-16)))
          CFI V5 load(1, XDATA, add(CFA_XSP16, literal(-17)))
          CFI V4 load(1, XDATA, add(CFA_XSP16, literal(-18)))
          CFI V3 load(1, XDATA, add(CFA_XSP16, literal(-19)))
          CFI V2 load(1, XDATA, add(CFA_XSP16, literal(-20)))
          CFI V1 load(1, XDATA, add(CFA_XSP16, literal(-21)))
          CFI V0 load(1, XDATA, add(CFA_XSP16, literal(-22)))
          CFI VB load(1, XDATA, add(CFA_XSP16, literal(-23)))
          CFI R6 load(1, XDATA, add(CFA_XSP16, literal(-24)))
          CFI CFA_SP SP+0
          CFI CFA_XSP16 add(XSP16, 24)
        ; Saved register size: 24
        ; Auto size: 3
        MOV     A,#-0x3
        LCALL   ?ALLOC_XSTACK8
          CFI CFA_XSP16 add(XSP16, 27)
        MOV     R6,#0x0
        MOV     DPL,?XSP + 0
        MOV     DPH,?XSP + 1
        MOV     R4,DPL
        MOV     R5,DPH
        MOV     DPH,#(`?<Constant {0}>` >> 8) & 0xff
        MOV     DPL,#`?<Constant {0}>` & 0xff
        MOV     A,#0x3
        LCALL   ?MOVE_LONG8_XDATA_XDATA
        MOV     R0,A
        MOV     R1,A
??SendData_MS1100_0:
        MOV     A,R6
        CLR     C
        RLC     A
        MOV     R2,A
        CLR     A
        RLC     A
        MOV     R3,A
        MOV     A,#Temp_MS1100 & 0xff
        ADD     A,R2
        MOV     DPL,A
        MOV     A,#(Temp_MS1100 >> 8) & 0xff
        LCALL   ?Subroutine6 & 0xFFFF
??CrossCallReturnLabel_2:
        INC     R6
        MOV     A,R6
        CLR     C
        SUBB    A,#0xa
        JC      ??SendData_MS1100_0
        ; Setup parameters for call to function pow
        MOV     ?V0 + 8,#-0x71
        MOV     ?V0 + 9,#-0x3e
        MOV     ?V0 + 10,#0x35
        MOV     ?V0 + 11,#0x3f
        MOV     ?V0 + 4,#0x0
        MOV     ?V0 + 5,#0x0
        MOV     ?V0 + 6,#-0x60
        MOV     ?V0 + 7,#0x40
        MOV     R2,#0xa
        MOV     R3,#0x0
        LCALL   ?US_DIV_MOD
        MOV     ?V0 + 0,R0
        MOV     ?V0 + 1,R1
        CLR     A
        MOV     ?V0 + 2,A
        MOV     ?V0 + 3,A
        MOV     R0,#?V0 + 0
        LCALL   ?UL_TO_FLT
        MOV     DPTR,#__Constant_40533333
        MOV     R0,#?V0 + 12
        LCALL   ?L_MOV_X
        MOV     R0,#?V0 + 0
        MOV     R1,#?V0 + 12
        LCALL   ?FLT_MUL
        MOV     DPTR,#__Constant_3a000000
        MOV     R0,#?V0 + 12
        LCALL   ?L_MOV_X
        MOV     R0,#?V0 + 0
        MOV     R1,#?V0 + 12
        LCALL   ?FLT_MUL
        MOV     R0,#?V0 + 4
        MOV     R1,#?V0 + 0
        LCALL   ?FLT_DIV
        MOV     DPTR,#__Constant_bf800000
        MOV     R0,#?V0 + 0
        LCALL   ?L_MOV_X
        MOV     R0,#?V0 + 4
        MOV     R1,#?V0 + 0
        LCALL   ?FLT_ADD
        MOV     DPTR,#__Constant_461c4000
        MOV     R0,#?V0 + 0
        LCALL   ?L_MOV_X
        MOV     R0,#?V0 + 4
        MOV     R1,#?V0 + 0
        LCALL   ?FLT_MUL
        MOV     DPTR,#__Constant_46d33a00
        MOV     R0,#?V0 + 0
        LCALL   ?L_MOV_X
        MOV     R0,#?V0 + 4
        MOV     R1,#?V0 + 0
        LCALL   ?FLT_DIV
        MOV     R0,#?V0 + 8
        MOV     R1,#?V0 + 4
        LCALL   ?FLT_SUB
        MOV     DPTR,#__Constant_403d70a4
        MOV     R0,#?V0 + 0
        LCALL   ?L_MOV_X
        MOV     R0,#?V0 + 8
        MOV     R1,#?V0 + 0
        LCALL   ?FLT_DIV
        MOV     R0,#?V0 + 8
        LCALL   ?PUSH_XSTACK_I_FOUR
          CFI CFA_XSP16 add(XSP16, 31)
        MOV     DPTR,#__Constant_41200000
        LCALL   ?XLOAD_R2345
        LCALL   ??pow?relay
        MOV     A,#0x4
        LCALL   ?DEALLOC_XSTACK8
          CFI CFA_XSP16 add(XSP16, 27)
        MOV     ?V0 + 0,R2
        MOV     ?V0 + 1,R3
        MOV     ?V0 + 2,R4
        MOV     ?V0 + 3,R5
        MOV     R0,#?V0 + 0
        LCALL   ?FLT_TO_L
        MOV     R4,?V0 + 0
        MOV     R5,?V0 + 1
        MOV     A,R4
        MOV     R0,A
        MOV     A,R5
        MOV     R1,A
        MOV     R2,#0x64
        MOV     R3,#0x0
        LCALL   ?S_DIV_MOD
        LCALL   ?Subroutine19 & 0xFFFF
??CrossCallReturnLabel_82:
        LCALL   ?S_DIV_MOD
        MOV     R2,#0xa
        MOV     R3,#0x0
        LCALL   ?S_DIV_MOD
        LCALL   ?Subroutine29 & 0xFFFF
??CrossCallReturnLabel_54:
        LCALL   ?XSTACK_DISP0_8
        MOV     A,R6
        LCALL   ??Subroutine41_0 & 0xFFFF
??CrossCallReturnLabel_84:
        LCALL   ?S_DIV_MOD
        MOV     A,R2
        ADD     A,#0x30
        MOV     R0,A
        MOV     A,#0x2
        LCALL   ?XSTACK_DISP0_8
        LCALL   ?Subroutine21 & 0xFFFF
??CrossCallReturnLabel_68:
        MOV     DPTR,#SensorsData + 18
        MOVX    @DPTR,A
        MOV     A,R6
        INC     DPTR
        MOVX    @DPTR,A
        MOV     A,R0
        INC     DPTR
        MOVX    @DPTR,A
        MOV     A,#0x3
          CFI EndBlock cfiBlock23
        REQUIRE ?Subroutine3
        ; // Fall through to label ?Subroutine3

        RSEG BANKED_CODE:CODE:NOROOT(0)
?Subroutine3:
          CFI Block cfiBlock24 Using cfiCommon0
          CFI NoFunction
          CFI CFA_SP SP+0
          CFI CFA_XSP16 add(XSP16, 27)
          CFI VB load(1, XDATA, add(CFA_XSP16, literal(-23)))
          CFI DPL0 load(1, XDATA, add(CFA_XSP16, literal(-2)))
          CFI DPH0 load(1, XDATA, add(CFA_XSP16, literal(-1)))
          CFI R6 load(1, XDATA, add(CFA_XSP16, literal(-24)))
          CFI R7 load(1, XDATA, add(CFA_XSP16, literal(-6)))
          CFI V0 load(1, XDATA, add(CFA_XSP16, literal(-22)))
          CFI V1 load(1, XDATA, add(CFA_XSP16, literal(-21)))
          CFI V2 load(1, XDATA, add(CFA_XSP16, literal(-20)))
          CFI V3 load(1, XDATA, add(CFA_XSP16, literal(-19)))
          CFI V4 load(1, XDATA, add(CFA_XSP16, literal(-18)))
          CFI V5 load(1, XDATA, add(CFA_XSP16, literal(-17)))
          CFI V6 load(1, XDATA, add(CFA_XSP16, literal(-16)))
          CFI V7 load(1, XDATA, add(CFA_XSP16, literal(-15)))
          CFI V8 load(1, XDATA, add(CFA_XSP16, literal(-14)))
          CFI V9 load(1, XDATA, add(CFA_XSP16, literal(-13)))
          CFI V10 load(1, XDATA, add(CFA_XSP16, literal(-12)))
          CFI V11 load(1, XDATA, add(CFA_XSP16, literal(-11)))
          CFI V12 load(1, XDATA, add(CFA_XSP16, literal(-10)))
          CFI V13 load(1, XDATA, add(CFA_XSP16, literal(-9)))
          CFI V14 load(1, XDATA, add(CFA_XSP16, literal(-8)))
          CFI V15 load(1, XDATA, add(CFA_XSP16, literal(-7)))
          CFI ?BRET_EXT load(1, XDATA, add(CFA_XSP16, literal(-3)))
          CFI ?RET_HIGH load(1, XDATA, add(CFA_XSP16, literal(-4)))
          CFI ?RET_LOW load(1, XDATA, add(CFA_XSP16, literal(-5)))
          CFI Invalid
        LCALL   ?DEALLOC_XSTACK8
          CFI CFA_XSP16 add(XSP16, 24)
          CFI Valid
        MOV     R7,#0x10
        LJMP    ?BANKED_LEAVE_XDATA
          CFI EndBlock cfiBlock24

        RSEG XDATA_Z:XDATA:NOROOT(0)
        DATA8
// unsigned int Temp_TGS4161[10]
Temp_TGS4161:
        DS 20
        REQUIRE __INIT_XDATA_Z

        RSEG BANKED_CODE:CODE:NOROOT(0)
// __banked_func __xdata_reentrant void Init_TGS4161(void)
Init_TGS4161:
          CFI Block cfiBlock25 Using cfiCommon0
          CFI Function Init_TGS4161
        CODE
        ; Saved register size: 0
        ; Auto size: 0
        ANL     0xfd,#0xfe
        ORL     0xf2,#0x1
        LJMP    ?BRET
          CFI EndBlock cfiBlock25
        REQUIRE P0DIR
        REQUIRE ADCCFG

        RSEG BANKED_CODE:CODE:NOROOT(0)
// __banked_func __xdata_reentrant void background_TGS4161(void)
background_TGS4161:
          CFI Block cfiBlock26 Using cfiCommon0
          CFI Function background_TGS4161
        CODE
        MOV     A,#-0xa
        LCALL   ?BANKED_ENTER_XDATA
          CFI DPH0 load(1, XDATA, add(CFA_XSP16, literal(-1)))
          CFI DPL0 load(1, XDATA, add(CFA_XSP16, literal(-2)))
          CFI ?BRET_EXT load(1, XDATA, add(CFA_XSP16, literal(-3)))
          CFI ?RET_HIGH load(1, XDATA, add(CFA_XSP16, literal(-4)))
          CFI ?RET_LOW load(1, XDATA, add(CFA_XSP16, literal(-5)))
          CFI R7 load(1, XDATA, add(CFA_XSP16, literal(-6)))
          CFI V1 load(1, XDATA, add(CFA_XSP16, literal(-7)))
          CFI V0 load(1, XDATA, add(CFA_XSP16, literal(-8)))
          CFI VB load(1, XDATA, add(CFA_XSP16, literal(-9)))
          CFI R6 load(1, XDATA, add(CFA_XSP16, literal(-10)))
          CFI CFA_SP SP+0
          CFI CFA_XSP16 add(XSP16, 10)
        ; Saved register size: 10
        ; Auto size: 0
        MOV     0xb4,#0x30
        MOV     0xb6,#-0x50
        ORL     0xb4,#0x40
??background_TGS4161_0:
        MOV     A,0xb4
        MOV     C,0xE0 /* A   */.7
        JNC     ??background_TGS4161_0
        LCALL   ?Subroutine27 & 0xFFFF
??CrossCallReturnLabel_45:
        LCALL   ?S_SHL
        LCALL   ?Subroutine28 & 0xFFFF
??CrossCallReturnLabel_50:
        MOV     DPTR,#??i_TGS4161
        LCALL   ?Subroutine9 & 0xFFFF
??CrossCallReturnLabel_7:
        LCALL   ?Subroutine30 & 0xFFFF
??CrossCallReturnLabel_58:
        MOV     A,R2
        MOVX    @DPTR,A
        INC     DPTR
        MOV     A,R3
        MOVX    @DPTR,A
        MOV     DPTR,#??i_TGS4161
        LCALL   ?Subroutine14 & 0xFFFF
??CrossCallReturnLabel_22:
        MOV     DPTR,#??i_TGS4161
        MOVX    A,@DPTR
        XRL     A,#0xa
        JNZ     ??background_TGS4161_1
        INC     DPTR
        MOVX    A,@DPTR
??background_TGS4161_1:
        JNZ     ??background_TGS4161_2
        MOV     DPTR,#??i_TGS4161
        CLR     A
        MOVX    @DPTR,A
        INC     DPTR
        MOVX    @DPTR,A
??background_TGS4161_2:
        LJMP    ?Subroutine2 & 0xFFFF
          CFI EndBlock cfiBlock26
        REQUIRE ADCCON1
        REQUIRE ADCCON3
        REQUIRE ADCL
        REQUIRE ADCH

        RSEG XDATA_Z:XDATA:NOROOT(0)
        DATA16
// int background_TGS4161::i_TGS4161
??i_TGS4161:
        DS 2
        REQUIRE __INIT_XDATA_Z

        RSEG BANKED_CODE:CODE:NOROOT(0)
// __banked_func __xdata_reentrant unsigned int TGS4161_EMF_350ppm(void)
TGS4161_EMF_350ppm:
          CFI Block cfiBlock27 Using cfiCommon0
          CFI Function TGS4161_EMF_350ppm
        CODE
        MOV     A,#-0xa
        LCALL   ?BANKED_ENTER_XDATA
          CFI DPH0 load(1, XDATA, add(CFA_XSP16, literal(-1)))
          CFI DPL0 load(1, XDATA, add(CFA_XSP16, literal(-2)))
          CFI ?BRET_EXT load(1, XDATA, add(CFA_XSP16, literal(-3)))
          CFI ?RET_HIGH load(1, XDATA, add(CFA_XSP16, literal(-4)))
          CFI ?RET_LOW load(1, XDATA, add(CFA_XSP16, literal(-5)))
          CFI R7 load(1, XDATA, add(CFA_XSP16, literal(-6)))
          CFI V1 load(1, XDATA, add(CFA_XSP16, literal(-7)))
          CFI V0 load(1, XDATA, add(CFA_XSP16, literal(-8)))
          CFI VB load(1, XDATA, add(CFA_XSP16, literal(-9)))
          CFI R6 load(1, XDATA, add(CFA_XSP16, literal(-10)))
          CFI CFA_SP SP+0
          CFI CFA_XSP16 add(XSP16, 10)
        ; Saved register size: 10
        ; Auto size: 0
        MOV     DPTR,#wendu
        LCALL   ?Subroutine33 & 0xFFFF
??CrossCallReturnLabel_103:
        MOV     A,R0
        ADD     A,#-0x2d
        MOV     R2,A
        MOV     A,R1
        ADDC    A,#-0x2
        MOV     R3,A
        CLR     C
        MOV     A,R2
        SUBB    A,#0x64
        MOV     A,R3
        SUBB    A,#0x0
        MOV     A,R0
        JNC     ??TGS4161_EMF_350ppm_0
        ADD     A,#-0x2c
        MOV     ?V0 + 0,A
        MOV     A,R1
        ADDC    A,#-0x2
        MOV     ?V0 + 1,A
        MOV     A,#0x3
        MOV     R0,#?V0 + 0
        LCALL   ?S_SHL
        MOV     R0,?V0 + 0
        MOV     R1,?V0 + 1
        MOV     R2,#0x64
        MOV     R3,A
        LCALL   ?US_DIV_MOD
        MOV     A,R0
        ADD     A,#0x32
        SJMP    ??TGS4161_EMF_350ppm_1
??TGS4161_EMF_350ppm_0:
        ADD     A,#0x37
        LCALL   ?Subroutine32 & 0xFFFF
??CrossCallReturnLabel_64:
        MOV     A,R0
        JNC     ??TGS4161_EMF_350ppm_2
        ADD     A,#0x38
        MOV     R0,A
        MOV     A,R1
        ADDC    A,#-0x1
        MOV     R1,A
        MOV     A,R0
        MOV     B,#0x6
        MUL     AB
        MOV     R0,A
        MOV     R2,B
        MOV     B,#0x6
        MOV     A,R1
        MUL     AB
        ADD     A,R2
        MOV     R1,A
        MOV     R2,#0x64
        MOV     R3,#0x0
        LCALL   ?US_DIV_MOD
        MOV     A,R0
        ADD     A,#0x2c
        SJMP    ??TGS4161_EMF_350ppm_1
??TGS4161_EMF_350ppm_2:
        ADD     A,#-0x65
        LCALL   ?Subroutine32 & 0xFFFF
??CrossCallReturnLabel_65:
        JNC     ??TGS4161_EMF_350ppm_3
        MOV     A,R0
        ADD     A,#-0x64
        MOV     R0,A
        MOV     A,R1
        ADDC    A,#-0x1
        MOV     R1,A
        MOV     A,R0
        MOV     B,#0x7
        MUL     AB
        MOV     R0,A
        MOV     R2,B
        MOV     B,#0x7
        MOV     A,R1
        MUL     AB
        ADD     A,R2
        MOV     R1,A
        MOV     R2,#0x64
        MOV     R3,#0x0
        LCALL   ?US_DIV_MOD
        MOV     A,R0
        ADD     A,#0x25
??TGS4161_EMF_350ppm_1:
        MOV     R2,A
        MOV     A,R1
        ADDC    A,#0x1
        MOV     R3,A
        SJMP    ??TGS4161_EMF_350ppm_4
??TGS4161_EMF_350ppm_3:
        MOV     R2,#0x0
        MOV     R3,#0x0
??TGS4161_EMF_350ppm_4:
        LJMP    ?Subroutine2 & 0xFFFF
          CFI EndBlock cfiBlock27

        RSEG BANKED_CODE:CODE:NOROOT(0)
?Subroutine32:
          CFI Block cfiCond28 Using cfiCommon0
          CFI Function TGS4161_EMF_350ppm
          CFI Conditional ??CrossCallReturnLabel_64
          CFI R6 load(1, XDATA, add(CFA_XSP16, literal(-10)))
          CFI VB load(1, XDATA, add(CFA_XSP16, literal(-9)))
          CFI V0 load(1, XDATA, add(CFA_XSP16, literal(-8)))
          CFI V1 load(1, XDATA, add(CFA_XSP16, literal(-7)))
          CFI R7 load(1, XDATA, add(CFA_XSP16, literal(-6)))
          CFI ?RET_LOW load(1, XDATA, add(CFA_XSP16, literal(-5)))
          CFI ?RET_HIGH load(1, XDATA, add(CFA_XSP16, literal(-4)))
          CFI ?BRET_EXT load(1, XDATA, add(CFA_XSP16, literal(-3)))
          CFI DPL0 load(1, XDATA, add(CFA_XSP16, literal(-2)))
          CFI DPH0 load(1, XDATA, add(CFA_XSP16, literal(-1)))
          CFI CFA_SP SP+0
          CFI CFA_XSP16 add(XSP16, 10)
          CFI Block cfiCond29 Using cfiCommon0
          CFI (cfiCond29) Function TGS4161_EMF_350ppm
          CFI (cfiCond29) Conditional ??CrossCallReturnLabel_65
          CFI (cfiCond29) R6 load(1, XDATA, add(CFA_XSP16, literal(-10)))
          CFI (cfiCond29) VB load(1, XDATA, add(CFA_XSP16, literal(-9)))
          CFI (cfiCond29) V0 load(1, XDATA, add(CFA_XSP16, literal(-8)))
          CFI (cfiCond29) V1 load(1, XDATA, add(CFA_XSP16, literal(-7)))
          CFI (cfiCond29) R7 load(1, XDATA, add(CFA_XSP16, literal(-6)))
          CFI (cfiCond29) ?RET_LOW load(1, XDATA, add(CFA_XSP16, literal(-5)))
          CFI (cfiCond29) ?RET_HIGH load(1, XDATA, add(CFA_XSP16, literal(-4)))
          CFI (cfiCond29) ?BRET_EXT load(1, XDATA, add(CFA_XSP16, literal(-3)))
          CFI (cfiCond29) DPL0 load(1, XDATA, add(CFA_XSP16, literal(-2)))
          CFI (cfiCond29) DPH0 load(1, XDATA, add(CFA_XSP16, literal(-1)))
          CFI (cfiCond29) CFA_SP SP+0
          CFI (cfiCond29) CFA_XSP16 add(XSP16, 10)
          CFI Block cfiPicker30 Using cfiCommon1
          CFI (cfiPicker30) NoFunction
          CFI (cfiPicker30) Picker
        MOV     R2,A
        MOV     A,R1
        ADDC    A,#-0x1
        MOV     R3,A
        CLR     C
        MOV     A,R2
        SUBB    A,#0x64
        MOV     A,R3
        SUBB    A,#0x0
        RET
          CFI EndBlock cfiCond28
          CFI EndBlock cfiCond29
          CFI EndBlock cfiPicker30

        RSEG BANKED_CODE:CODE:NOROOT(0)
// __banked_func __xdata_reentrant void SendData_TGS4161(void)
SendData_TGS4161:
          CFI Block cfiBlock31 Using cfiCommon0
          CFI Function SendData_TGS4161
        CODE
        FUNCALL SendData_TGS4161, TGS4161_EMF_350ppm
        LOCFRAME ISTACK, 0, STACK
        LOCFRAME PSTACK, 0, STACK
        LOCFRAME XSTACK, 22, STACK
        LOCFRAME IOVERLAY, 0, STATIC
        LOCFRAME DOVERLAY, 0, STATIC
        ARGFRAME ISTACK, 0, STACK
        ARGFRAME PSTACK, 0, STACK
        ARGFRAME XSTACK, 22, STACK
        ARGFRAME IOVERLAY, 0, STATIC
        ARGFRAME DOVERLAY, 0, STATIC
        FUNCALL SendData_TGS4161, pow
        LOCFRAME ISTACK, 0, STACK
        LOCFRAME PSTACK, 0, STACK
        LOCFRAME XSTACK, 26, STACK
        LOCFRAME IOVERLAY, 0, STATIC
        LOCFRAME DOVERLAY, 0, STATIC
        ARGFRAME ISTACK, 0, STACK
        ARGFRAME PSTACK, 0, STACK
        ARGFRAME XSTACK, 26, STACK
        ARGFRAME IOVERLAY, 0, STATIC
        ARGFRAME DOVERLAY, 0, STATIC
        MOV     A,#-0x12
        LCALL   ?BANKED_ENTER_XDATA
          CFI DPH0 load(1, XDATA, add(CFA_XSP16, literal(-1)))
          CFI DPL0 load(1, XDATA, add(CFA_XSP16, literal(-2)))
          CFI ?BRET_EXT load(1, XDATA, add(CFA_XSP16, literal(-3)))
          CFI ?RET_HIGH load(1, XDATA, add(CFA_XSP16, literal(-4)))
          CFI ?RET_LOW load(1, XDATA, add(CFA_XSP16, literal(-5)))
          CFI R7 load(1, XDATA, add(CFA_XSP16, literal(-6)))
          CFI V9 load(1, XDATA, add(CFA_XSP16, literal(-7)))
          CFI V8 load(1, XDATA, add(CFA_XSP16, literal(-8)))
          CFI V7 load(1, XDATA, add(CFA_XSP16, literal(-9)))
          CFI V6 load(1, XDATA, add(CFA_XSP16, literal(-10)))
          CFI V5 load(1, XDATA, add(CFA_XSP16, literal(-11)))
          CFI V4 load(1, XDATA, add(CFA_XSP16, literal(-12)))
          CFI V3 load(1, XDATA, add(CFA_XSP16, literal(-13)))
          CFI V2 load(1, XDATA, add(CFA_XSP16, literal(-14)))
          CFI V1 load(1, XDATA, add(CFA_XSP16, literal(-15)))
          CFI V0 load(1, XDATA, add(CFA_XSP16, literal(-16)))
          CFI VB load(1, XDATA, add(CFA_XSP16, literal(-17)))
          CFI R6 load(1, XDATA, add(CFA_XSP16, literal(-18)))
          CFI CFA_SP SP+0
          CFI CFA_XSP16 add(XSP16, 18)
        ; Saved register size: 18
        ; Auto size: 4
        MOV     A,#-0x4
        LCALL   ?ALLOC_XSTACK8
          CFI CFA_XSP16 add(XSP16, 22)
        MOV     ?V0 + 0,#0x0
        MOV     R6,#0x0
        MOV     R7,#0x0
        ; Setup parameters for call to function TGS4161_EMF_350ppm
        LCALL   ??TGS4161_EMF_350ppm?relay
        MOV     ?V0 + 8,R2
        MOV     ?V0 + 9,R3
??SendData_TGS4161_0:
        MOV     A,?V0 + 0
        CLR     C
        RLC     A
        MOV     R0,A
        CLR     A
        RLC     A
        MOV     R1,A
        LCALL   ?Subroutine30 & 0xFFFF
??CrossCallReturnLabel_59:
        MOVX    A,@DPTR
        ADD     A,R6
        MOV     R6,A
        INC     DPTR
        MOVX    A,@DPTR
        ADDC    A,R7
        MOV     R7,A
        INC     ?V0 + 0
        MOV     A,?V0 + 0
        CLR     C
        SUBB    A,#0xa
        JC      ??SendData_TGS4161_0
        MOV     A,R6
        MOV     R0,A
        MOV     A,R7
        MOV     R1,A
        MOV     R2,#0xa
        MOV     R3,#0x0
        LCALL   ?US_DIV_MOD
        MOV     ?V0 + 0,R0
        MOV     ?V0 + 1,R1
        CLR     A
        MOV     ?V0 + 2,A
        MOV     ?V0 + 3,A
        MOV     R0,#?V0 + 0
        LCALL   ?UL_TO_FLT
        MOV     DPTR,#__Constant_447a0000
        MOV     R0,#?V0 + 4
        LCALL   ?L_MOV_X
        MOV     R0,#?V0 + 0
        MOV     R1,#?V0 + 4
        LCALL   ?FLT_MUL
        MOV     DPTR,#__Constant_39800000
        MOV     R0,#?V0 + 4
        LCALL   ?L_MOV_X
        MOV     R0,#?V0 + 0
        MOV     R1,#?V0 + 4
        LCALL   ?FLT_MUL
        MOV     ?V0 + 4,?V0 + 0
        MOV     ?V0 + 5,?V0 + 1
        MOV     ?V0 + 6,?V0 + 2
        MOV     ?V0 + 7,?V0 + 3
        MOV     R0,#?V0 + 4
        LCALL   ?FLT_TO_L
        MOV     R0,?V0 + 4
        MOV     R1,?V0 + 5
        MOV     DPL,?XSP + 0
        MOV     DPH,?XSP + 1
        MOV     R4,DPL
        MOV     R5,DPH
        MOV     DPH,#(`?<Constant {0}>_1` >> 8) & 0xff
        MOV     DPL,#`?<Constant {0}>_1` & 0xff
        MOV     A,#0x4
        LCALL   ?MOVE_LONG8_XDATA_XDATA
        CLR     C
        MOV     A,?V0 + 8
        SUBB    A,R0
        MOV     A,?V0 + 9
        SUBB    A,R1
        JNC     ??SendData_TGS4161_1
        MOV     DPTR,#SensorsData + 10
        MOV     A,#0x30
        MOVX    @DPTR,A
        INC     DPTR
        MOVX    @DPTR,A
        INC     DPTR
        MOVX    @DPTR,A
        LJMP    ??CrossCallReturnLabel_42 & 0xFFFF
??SendData_TGS4161_1:
        MOV     A,?V0 + 8
        CLR     C
        SUBB    A,R0
        MOV     R2,A
        MOV     A,?V0 + 9
        SUBB    A,R1
        MOV     R3,A
        MOV     A,R2
        ORL     A,R3
        JZ      ??SendData_TGS4161_2
        CLR     C
        MOV     A,R2
        SUBB    A,#0xd
        MOV     A,R3
        SUBB    A,#0x0
        JNC     ??SendData_TGS4161_2
        MOV     ?V0 + 0,R2
        MOV     ?V0 + 1,R3
        CLR     A
        MOV     ?V0 + 2,A
        MOV     ?V0 + 3,A
        MOV     R0,#?V0 + 0
        LCALL   ?UL_TO_FLT
        MOV     DPTR,#__Constant_42480000
        MOV     R0,#?V0 + 4
        LCALL   ?L_MOV_X
        MOV     R0,#?V0 + 0
        MOV     R1,#?V0 + 4
        LCALL   ?FLT_MUL
        MOV     DPTR,#__Constant_40400000
        MOV     R0,#?V0 + 4
        LCALL   ?L_MOV_X
        MOV     R0,#?V0 + 0
        MOV     R1,#?V0 + 4
        LCALL   ?FLT_DIV
        MOV     DPTR,#__Constant_43af0000
        MOV     R0,#?V0 + 4
        LCALL   ?L_MOV_X
        MOV     R0,#?V0 + 0
        MOV     R1,#?V0 + 4
        LCALL   ?FLT_ADD
??SendData_TGS4161_2:
        MOV     A,R2
        ADD     A,#-0xd
        MOV     R0,A
        MOV     A,R3
        ADDC    A,#-0x1
        MOV     R1,A
        CLR     C
        MOV     A,R0
        SUBB    A,#0xd
        MOV     A,R1
        SUBB    A,#0x0
        JNC     ??SendData_TGS4161_3
        MOV     ?V0 + 0,R2
        MOV     ?V0 + 1,R3
        CLR     A
        MOV     ?V0 + 2,A
        MOV     ?V0 + 3,A
        MOV     R0,#?V0 + 0
        LCALL   ?UL_TO_FLT
        MOV     DPTR,#__Constant_41c80000
        MOV     R0,#?V0 + 4
        LCALL   ?L_MOV_X
        MOV     R0,#?V0 + 0
        MOV     R1,#?V0 + 4
        LCALL   ?FLT_MUL
        MOV     DPTR,#__Constant_437a0000
        MOV     R0,#?V0 + 4
        LCALL   ?L_MOV_X
        MOV     R0,#?V0 + 0
        MOV     R1,#?V0 + 4
        LCALL   ?FLT_ADD
??SendData_TGS4161_3:
        MOV     A,R2
        ADD     A,#-0x1c
        MOV     R0,A
        MOV     A,R3
        ADDC    A,#-0x1
        MOV     R1,A
        CLR     C
        MOV     A,R0
        SUBB    A,#0x2c
        MOV     A,R1
        SUBB    A,#0x0
        JNC     ??SendData_TGS4161_4
        ; Setup parameters for call to function pow
        MOV     ?V0 + 0,R2
        MOV     ?V0 + 1,R3
        CLR     A
        MOV     ?V0 + 2,A
        MOV     ?V0 + 3,A
        MOV     R0,#?V0 + 0
        LCALL   ?UL_TO_FLT
        MOV     DPTR,#__Constant_431cb333
        MOV     R0,#?V0 + 4
        LCALL   ?L_MOV_X
        MOV     R0,#?V0 + 0
        MOV     R1,#?V0 + 4
        LCALL   ?FLT_ADD
        MOV     DPTR,#__Constant_427647ae
        MOV     R0,#?V0 + 4
        LCALL   ?L_MOV_X
        MOV     R0,#?V0 + 0
        MOV     R1,#?V0 + 4
        LCALL   ?FLT_DIV
        MOV     R0,#?V0 + 0
        LCALL   ?PUSH_XSTACK_I_FOUR
          CFI CFA_XSP16 add(XSP16, 26)
        MOV     DPTR,#__Constant_41200000
        LCALL   ?XLOAD_R2345
        LCALL   ??pow?relay
        MOV     A,#0x4
        LCALL   ?DEALLOC_XSTACK8
          CFI CFA_XSP16 add(XSP16, 22)
        MOV     ?V0 + 0,R2
        MOV     ?V0 + 1,R3
        MOV     ?V0 + 2,R4
        MOV     ?V0 + 3,R5
??SendData_TGS4161_4:
        MOV     R0,#?V0 + 0
        LCALL   ?FLT_TO_L
        MOV     R4,?V0 + 0
        MOV     R5,?V0 + 1
        MOV     A,R4
        MOV     R0,A
        MOV     A,R5
        MOV     R1,A
        MOV     R2,#-0x18
        MOV     R3,#0x3
        LCALL   ?S_DIV_MOD
        LCALL   ?Subroutine20 & 0xFFFF
??CrossCallReturnLabel_73:
        LCALL   ?S_DIV_MOD
        MOV     R2,#0xa
        MOV     R3,#0x0
        LCALL   ?S_DIV_MOD
        LCALL   ?Subroutine29 & 0xFFFF
??CrossCallReturnLabel_55:
        LCALL   ?XSTACK_DISP0_8
        MOV     A,R6
        LCALL   ??Subroutine39_0 & 0xFFFF
??CrossCallReturnLabel_76:
        LCALL   ?S_DIV_MOD
        MOV     A,R2
        MOV     R0,A
        MOV     A,R3
        MOV     R1,A
        MOV     R2,#0xa
        MOV     R3,#0x0
        LCALL   ?S_DIV_MOD
        MOV     A,R0
        ADD     A,#0x30
        MOV     R7,A
        MOV     A,#0x2
        LCALL   ?XSTACK_DISP0_8
        MOV     A,R7
        LCALL   ??Subroutine41_0 & 0xFFFF
??CrossCallReturnLabel_85:
        LCALL   ?S_DIV_MOD
        MOV     A,R2
        ADD     A,#0x30
        MOV     R0,A
        MOV     A,#0x3
        LCALL   ?XSTACK_DISP0_8
        LCALL   ?Subroutine21 & 0xFFFF
??CrossCallReturnLabel_69:
        MOV     DPTR,#SensorsData + 10
        LCALL   ?Subroutine26 & 0xFFFF
??CrossCallReturnLabel_42:
        INC     DPTR
        MOVX    @DPTR,A
        MOV     A,#0x4
        LCALL   ?DEALLOC_XSTACK8
          CFI CFA_XSP16 add(XSP16, 18)
        MOV     R7,#0xa
        LJMP    ?BANKED_LEAVE_XDATA
          CFI EndBlock cfiBlock31

        RSEG BANKED_CODE:CODE:NOROOT(0)
?Subroutine30:
          CFI Block cfiCond32 Using cfiCommon0
          CFI Function background_TGS4161
          CFI Conditional ??CrossCallReturnLabel_58
          CFI R6 load(1, XDATA, add(CFA_XSP16, literal(-10)))
          CFI VB load(1, XDATA, add(CFA_XSP16, literal(-9)))
          CFI V0 load(1, XDATA, add(CFA_XSP16, literal(-8)))
          CFI V1 load(1, XDATA, add(CFA_XSP16, literal(-7)))
          CFI R7 load(1, XDATA, add(CFA_XSP16, literal(-6)))
          CFI ?RET_LOW load(1, XDATA, add(CFA_XSP16, literal(-5)))
          CFI ?RET_HIGH load(1, XDATA, add(CFA_XSP16, literal(-4)))
          CFI ?BRET_EXT load(1, XDATA, add(CFA_XSP16, literal(-3)))
          CFI DPL0 load(1, XDATA, add(CFA_XSP16, literal(-2)))
          CFI DPH0 load(1, XDATA, add(CFA_XSP16, literal(-1)))
          CFI CFA_SP SP+0
          CFI CFA_XSP16 add(XSP16, 10)
          CFI Block cfiCond33 Using cfiCommon0
          CFI (cfiCond33) Function SendData_TGS4161
          CFI (cfiCond33) Conditional ??CrossCallReturnLabel_59
          CFI (cfiCond33) R6 load(1, XDATA, add(CFA_XSP16, literal(-18)))
          CFI (cfiCond33) VB load(1, XDATA, add(CFA_XSP16, literal(-17)))
          CFI (cfiCond33) V0 load(1, XDATA, add(CFA_XSP16, literal(-16)))
          CFI (cfiCond33) V1 load(1, XDATA, add(CFA_XSP16, literal(-15)))
          CFI (cfiCond33) V2 load(1, XDATA, add(CFA_XSP16, literal(-14)))
          CFI (cfiCond33) V3 load(1, XDATA, add(CFA_XSP16, literal(-13)))
          CFI (cfiCond33) V4 load(1, XDATA, add(CFA_XSP16, literal(-12)))
          CFI (cfiCond33) V5 load(1, XDATA, add(CFA_XSP16, literal(-11)))
          CFI (cfiCond33) V6 load(1, XDATA, add(CFA_XSP16, literal(-10)))
          CFI (cfiCond33) V7 load(1, XDATA, add(CFA_XSP16, literal(-9)))
          CFI (cfiCond33) V8 load(1, XDATA, add(CFA_XSP16, literal(-8)))
          CFI (cfiCond33) V9 load(1, XDATA, add(CFA_XSP16, literal(-7)))
          CFI (cfiCond33) R7 load(1, XDATA, add(CFA_XSP16, literal(-6)))
          CFI (cfiCond33) ?RET_LOW load(1, XDATA, add(CFA_XSP16, literal(-5)))
          CFI (cfiCond33) ?RET_HIGH load(1, XDATA, add(CFA_XSP16, literal(-4)))
          CFI (cfiCond33) ?BRET_EXT load(1, XDATA, add(CFA_XSP16, literal(-3)))
          CFI (cfiCond33) DPL0 load(1, XDATA, add(CFA_XSP16, literal(-2)))
          CFI (cfiCond33) DPH0 load(1, XDATA, add(CFA_XSP16, literal(-1)))
          CFI (cfiCond33) CFA_SP SP+0
          CFI (cfiCond33) CFA_XSP16 add(XSP16, 22)
          CFI Block cfiPicker34 Using cfiCommon1
          CFI (cfiPicker34) NoFunction
          CFI (cfiPicker34) Picker
        MOV     A,#Temp_TGS4161 & 0xff
        ADD     A,R0
        MOV     DPL,A
        MOV     A,#(Temp_TGS4161 >> 8) & 0xff
        ADDC    A,R1
        MOV     DPH,A
        RET
          CFI EndBlock cfiCond32
          CFI EndBlock cfiCond33
          CFI EndBlock cfiPicker34

        RSEG BANKED_CODE:CODE:NOROOT(0)
?Subroutine21:
          CFI Block cfiCond35 Using cfiCommon0
          CFI Function SendData_MS1100
          CFI Conditional ??CrossCallReturnLabel_68
          CFI R6 load(1, XDATA, add(CFA_XSP16, literal(-24)))
          CFI VB load(1, XDATA, add(CFA_XSP16, literal(-23)))
          CFI V0 load(1, XDATA, add(CFA_XSP16, literal(-22)))
          CFI V1 load(1, XDATA, add(CFA_XSP16, literal(-21)))
          CFI V2 load(1, XDATA, add(CFA_XSP16, literal(-20)))
          CFI V3 load(1, XDATA, add(CFA_XSP16, literal(-19)))
          CFI V4 load(1, XDATA, add(CFA_XSP16, literal(-18)))
          CFI V5 load(1, XDATA, add(CFA_XSP16, literal(-17)))
          CFI V6 load(1, XDATA, add(CFA_XSP16, literal(-16)))
          CFI V7 load(1, XDATA, add(CFA_XSP16, literal(-15)))
          CFI V8 load(1, XDATA, add(CFA_XSP16, literal(-14)))
          CFI V9 load(1, XDATA, add(CFA_XSP16, literal(-13)))
          CFI V10 load(1, XDATA, add(CFA_XSP16, literal(-12)))
          CFI V11 load(1, XDATA, add(CFA_XSP16, literal(-11)))
          CFI V12 load(1, XDATA, add(CFA_XSP16, literal(-10)))
          CFI V13 load(1, XDATA, add(CFA_XSP16, literal(-9)))
          CFI V14 load(1, XDATA, add(CFA_XSP16, literal(-8)))
          CFI V15 load(1, XDATA, add(CFA_XSP16, literal(-7)))
          CFI R7 load(1, XDATA, add(CFA_XSP16, literal(-6)))
          CFI ?RET_LOW load(1, XDATA, add(CFA_XSP16, literal(-5)))
          CFI ?RET_HIGH load(1, XDATA, add(CFA_XSP16, literal(-4)))
          CFI ?BRET_EXT load(1, XDATA, add(CFA_XSP16, literal(-3)))
          CFI DPL0 load(1, XDATA, add(CFA_XSP16, literal(-2)))
          CFI DPH0 load(1, XDATA, add(CFA_XSP16, literal(-1)))
          CFI CFA_SP SP+0
          CFI CFA_XSP16 add(XSP16, 27)
          CFI Block cfiCond36 Using cfiCommon0
          CFI (cfiCond36) Function SendData_TGS4161
          CFI (cfiCond36) Conditional ??CrossCallReturnLabel_69
          CFI (cfiCond36) R6 load(1, XDATA, add(CFA_XSP16, literal(-18)))
          CFI (cfiCond36) VB load(1, XDATA, add(CFA_XSP16, literal(-17)))
          CFI (cfiCond36) V0 load(1, XDATA, add(CFA_XSP16, literal(-16)))
          CFI (cfiCond36) V1 load(1, XDATA, add(CFA_XSP16, literal(-15)))
          CFI (cfiCond36) V2 load(1, XDATA, add(CFA_XSP16, literal(-14)))
          CFI (cfiCond36) V3 load(1, XDATA, add(CFA_XSP16, literal(-13)))
          CFI (cfiCond36) V4 load(1, XDATA, add(CFA_XSP16, literal(-12)))
          CFI (cfiCond36) V5 load(1, XDATA, add(CFA_XSP16, literal(-11)))
          CFI (cfiCond36) V6 load(1, XDATA, add(CFA_XSP16, literal(-10)))
          CFI (cfiCond36) V7 load(1, XDATA, add(CFA_XSP16, literal(-9)))
          CFI (cfiCond36) V8 load(1, XDATA, add(CFA_XSP16, literal(-8)))
          CFI (cfiCond36) V9 load(1, XDATA, add(CFA_XSP16, literal(-7)))
          CFI (cfiCond36) R7 load(1, XDATA, add(CFA_XSP16, literal(-6)))
          CFI (cfiCond36) ?RET_LOW load(1, XDATA, add(CFA_XSP16, literal(-5)))
          CFI (cfiCond36) ?RET_HIGH load(1, XDATA, add(CFA_XSP16, literal(-4)))
          CFI (cfiCond36) ?BRET_EXT load(1, XDATA, add(CFA_XSP16, literal(-3)))
          CFI (cfiCond36) DPL0 load(1, XDATA, add(CFA_XSP16, literal(-2)))
          CFI (cfiCond36) DPH0 load(1, XDATA, add(CFA_XSP16, literal(-1)))
          CFI (cfiCond36) CFA_SP SP+0
          CFI (cfiCond36) CFA_XSP16 add(XSP16, 22)
          CFI Block cfiCond37 Using cfiCommon0
          CFI (cfiCond37) Function SendData_MQ7
          CFI (cfiCond37) Conditional ??CrossCallReturnLabel_70
          CFI (cfiCond37) R6 load(1, XDATA, add(CFA_XSP16, literal(-24)))
          CFI (cfiCond37) VB load(1, XDATA, add(CFA_XSP16, literal(-23)))
          CFI (cfiCond37) V0 load(1, XDATA, add(CFA_XSP16, literal(-22)))
          CFI (cfiCond37) V1 load(1, XDATA, add(CFA_XSP16, literal(-21)))
          CFI (cfiCond37) V2 load(1, XDATA, add(CFA_XSP16, literal(-20)))
          CFI (cfiCond37) V3 load(1, XDATA, add(CFA_XSP16, literal(-19)))
          CFI (cfiCond37) V4 load(1, XDATA, add(CFA_XSP16, literal(-18)))
          CFI (cfiCond37) V5 load(1, XDATA, add(CFA_XSP16, literal(-17)))
          CFI (cfiCond37) V6 load(1, XDATA, add(CFA_XSP16, literal(-16)))
          CFI (cfiCond37) V7 load(1, XDATA, add(CFA_XSP16, literal(-15)))
          CFI (cfiCond37) V8 load(1, XDATA, add(CFA_XSP16, literal(-14)))
          CFI (cfiCond37) V9 load(1, XDATA, add(CFA_XSP16, literal(-13)))
          CFI (cfiCond37) V10 load(1, XDATA, add(CFA_XSP16, literal(-12)))
          CFI (cfiCond37) V11 load(1, XDATA, add(CFA_XSP16, literal(-11)))
          CFI (cfiCond37) V12 load(1, XDATA, add(CFA_XSP16, literal(-10)))
          CFI (cfiCond37) V13 load(1, XDATA, add(CFA_XSP16, literal(-9)))
          CFI (cfiCond37) V14 load(1, XDATA, add(CFA_XSP16, literal(-8)))
          CFI (cfiCond37) V15 load(1, XDATA, add(CFA_XSP16, literal(-7)))
          CFI (cfiCond37) R7 load(1, XDATA, add(CFA_XSP16, literal(-6)))
          CFI (cfiCond37) ?RET_LOW load(1, XDATA, add(CFA_XSP16, literal(-5)))
          CFI (cfiCond37) ?RET_HIGH load(1, XDATA, add(CFA_XSP16, literal(-4)))
          CFI (cfiCond37) ?BRET_EXT load(1, XDATA, add(CFA_XSP16, literal(-3)))
          CFI (cfiCond37) DPL0 load(1, XDATA, add(CFA_XSP16, literal(-2)))
          CFI (cfiCond37) DPH0 load(1, XDATA, add(CFA_XSP16, literal(-1)))
          CFI (cfiCond37) CFA_SP SP+0
          CFI (cfiCond37) CFA_XSP16 add(XSP16, 28)
          CFI Block cfiCond38 Using cfiCommon0
          CFI (cfiCond38) Function SendData_PM25
          CFI (cfiCond38) Conditional ??CrossCallReturnLabel_71
          CFI (cfiCond38) R6 load(1, XDATA, add(CFA_XSP16, literal(-16)))
          CFI (cfiCond38) VB load(1, XDATA, add(CFA_XSP16, literal(-15)))
          CFI (cfiCond38) V0 load(1, XDATA, add(CFA_XSP16, literal(-14)))
          CFI (cfiCond38) V1 load(1, XDATA, add(CFA_XSP16, literal(-13)))
          CFI (cfiCond38) V2 load(1, XDATA, add(CFA_XSP16, literal(-12)))
          CFI (cfiCond38) V3 load(1, XDATA, add(CFA_XSP16, literal(-11)))
          CFI (cfiCond38) V4 load(1, XDATA, add(CFA_XSP16, literal(-10)))
          CFI (cfiCond38) V5 load(1, XDATA, add(CFA_XSP16, literal(-9)))
          CFI (cfiCond38) V6 load(1, XDATA, add(CFA_XSP16, literal(-8)))
          CFI (cfiCond38) V7 load(1, XDATA, add(CFA_XSP16, literal(-7)))
          CFI (cfiCond38) R7 load(1, XDATA, add(CFA_XSP16, literal(-6)))
          CFI (cfiCond38) ?RET_LOW load(1, XDATA, add(CFA_XSP16, literal(-5)))
          CFI (cfiCond38) ?RET_HIGH load(1, XDATA, add(CFA_XSP16, literal(-4)))
          CFI (cfiCond38) ?BRET_EXT load(1, XDATA, add(CFA_XSP16, literal(-3)))
          CFI (cfiCond38) DPL0 load(1, XDATA, add(CFA_XSP16, literal(-2)))
          CFI (cfiCond38) DPH0 load(1, XDATA, add(CFA_XSP16, literal(-1)))
          CFI (cfiCond38) CFA_SP SP+0
          CFI (cfiCond38) CFA_XSP16 add(XSP16, 19)
          CFI Block cfiPicker39 Using cfiCommon1
          CFI (cfiPicker39) NoFunction
          CFI (cfiPicker39) Picker
        MOV     A,R0
          CFI EndBlock cfiCond35
          CFI EndBlock cfiCond36
          CFI EndBlock cfiCond37
          CFI EndBlock cfiCond38
          CFI EndBlock cfiPicker39
        REQUIRE ??Subroutine38_0
        ; // Fall through to label ??Subroutine38_0

        RSEG BANKED_CODE:CODE:NOROOT(0)
??Subroutine38_0:
          CFI Block cfiCond40 Using cfiCommon0
          CFI Function SendData_DHT22
          CFI Conditional ??CrossCallReturnLabel_72
          CFI DPL0 Frame(CFA_SP, 4)
          CFI DPH0 Frame(CFA_SP, 5)
          CFI CFA_SP SP+-5
          CFI CFA_XSP16 add(XSP16, 11)
          CFI Block cfiCond41 Using cfiCommon0
          CFI (cfiCond41) Function SendData_MS1100
          CFI (cfiCond41) Conditional ??CrossCallReturnLabel_68
          CFI (cfiCond41) R6 load(1, XDATA, add(CFA_XSP16, literal(-24)))
          CFI (cfiCond41) VB load(1, XDATA, add(CFA_XSP16, literal(-23)))
          CFI (cfiCond41) V0 load(1, XDATA, add(CFA_XSP16, literal(-22)))
          CFI (cfiCond41) V1 load(1, XDATA, add(CFA_XSP16, literal(-21)))
          CFI (cfiCond41) V2 load(1, XDATA, add(CFA_XSP16, literal(-20)))
          CFI (cfiCond41) V3 load(1, XDATA, add(CFA_XSP16, literal(-19)))
          CFI (cfiCond41) V4 load(1, XDATA, add(CFA_XSP16, literal(-18)))
          CFI (cfiCond41) V5 load(1, XDATA, add(CFA_XSP16, literal(-17)))
          CFI (cfiCond41) V6 load(1, XDATA, add(CFA_XSP16, literal(-16)))
          CFI (cfiCond41) V7 load(1, XDATA, add(CFA_XSP16, literal(-15)))
          CFI (cfiCond41) V8 load(1, XDATA, add(CFA_XSP16, literal(-14)))
          CFI (cfiCond41) V9 load(1, XDATA, add(CFA_XSP16, literal(-13)))
          CFI (cfiCond41) V10 load(1, XDATA, add(CFA_XSP16, literal(-12)))
          CFI (cfiCond41) V11 load(1, XDATA, add(CFA_XSP16, literal(-11)))
          CFI (cfiCond41) V12 load(1, XDATA, add(CFA_XSP16, literal(-10)))
          CFI (cfiCond41) V13 load(1, XDATA, add(CFA_XSP16, literal(-9)))
          CFI (cfiCond41) V14 load(1, XDATA, add(CFA_XSP16, literal(-8)))
          CFI (cfiCond41) V15 load(1, XDATA, add(CFA_XSP16, literal(-7)))
          CFI (cfiCond41) R7 load(1, XDATA, add(CFA_XSP16, literal(-6)))
          CFI (cfiCond41) ?RET_LOW load(1, XDATA, add(CFA_XSP16, literal(-5)))
          CFI (cfiCond41) ?RET_HIGH load(1, XDATA, add(CFA_XSP16, literal(-4)))
          CFI (cfiCond41) ?BRET_EXT load(1, XDATA, add(CFA_XSP16, literal(-3)))
          CFI (cfiCond41) DPL0 load(1, XDATA, add(CFA_XSP16, literal(-2)))
          CFI (cfiCond41) DPH0 load(1, XDATA, add(CFA_XSP16, literal(-1)))
          CFI (cfiCond41) CFA_SP SP+0
          CFI (cfiCond41) CFA_XSP16 add(XSP16, 27)
          CFI Block cfiCond42 Using cfiCommon0
          CFI (cfiCond42) Function SendData_TGS4161
          CFI (cfiCond42) Conditional ??CrossCallReturnLabel_69
          CFI (cfiCond42) R6 load(1, XDATA, add(CFA_XSP16, literal(-18)))
          CFI (cfiCond42) VB load(1, XDATA, add(CFA_XSP16, literal(-17)))
          CFI (cfiCond42) V0 load(1, XDATA, add(CFA_XSP16, literal(-16)))
          CFI (cfiCond42) V1 load(1, XDATA, add(CFA_XSP16, literal(-15)))
          CFI (cfiCond42) V2 load(1, XDATA, add(CFA_XSP16, literal(-14)))
          CFI (cfiCond42) V3 load(1, XDATA, add(CFA_XSP16, literal(-13)))
          CFI (cfiCond42) V4 load(1, XDATA, add(CFA_XSP16, literal(-12)))
          CFI (cfiCond42) V5 load(1, XDATA, add(CFA_XSP16, literal(-11)))
          CFI (cfiCond42) V6 load(1, XDATA, add(CFA_XSP16, literal(-10)))
          CFI (cfiCond42) V7 load(1, XDATA, add(CFA_XSP16, literal(-9)))
          CFI (cfiCond42) V8 load(1, XDATA, add(CFA_XSP16, literal(-8)))
          CFI (cfiCond42) V9 load(1, XDATA, add(CFA_XSP16, literal(-7)))
          CFI (cfiCond42) R7 load(1, XDATA, add(CFA_XSP16, literal(-6)))
          CFI (cfiCond42) ?RET_LOW load(1, XDATA, add(CFA_XSP16, literal(-5)))
          CFI (cfiCond42) ?RET_HIGH load(1, XDATA, add(CFA_XSP16, literal(-4)))
          CFI (cfiCond42) ?BRET_EXT load(1, XDATA, add(CFA_XSP16, literal(-3)))
          CFI (cfiCond42) DPL0 load(1, XDATA, add(CFA_XSP16, literal(-2)))
          CFI (cfiCond42) DPH0 load(1, XDATA, add(CFA_XSP16, literal(-1)))
          CFI (cfiCond42) CFA_SP SP+0
          CFI (cfiCond42) CFA_XSP16 add(XSP16, 22)
          CFI Block cfiCond43 Using cfiCommon0
          CFI (cfiCond43) Function SendData_MQ7
          CFI (cfiCond43) Conditional ??CrossCallReturnLabel_70
          CFI (cfiCond43) R6 load(1, XDATA, add(CFA_XSP16, literal(-24)))
          CFI (cfiCond43) VB load(1, XDATA, add(CFA_XSP16, literal(-23)))
          CFI (cfiCond43) V0 load(1, XDATA, add(CFA_XSP16, literal(-22)))
          CFI (cfiCond43) V1 load(1, XDATA, add(CFA_XSP16, literal(-21)))
          CFI (cfiCond43) V2 load(1, XDATA, add(CFA_XSP16, literal(-20)))
          CFI (cfiCond43) V3 load(1, XDATA, add(CFA_XSP16, literal(-19)))
          CFI (cfiCond43) V4 load(1, XDATA, add(CFA_XSP16, literal(-18)))
          CFI (cfiCond43) V5 load(1, XDATA, add(CFA_XSP16, literal(-17)))
          CFI (cfiCond43) V6 load(1, XDATA, add(CFA_XSP16, literal(-16)))
          CFI (cfiCond43) V7 load(1, XDATA, add(CFA_XSP16, literal(-15)))
          CFI (cfiCond43) V8 load(1, XDATA, add(CFA_XSP16, literal(-14)))
          CFI (cfiCond43) V9 load(1, XDATA, add(CFA_XSP16, literal(-13)))
          CFI (cfiCond43) V10 load(1, XDATA, add(CFA_XSP16, literal(-12)))
          CFI (cfiCond43) V11 load(1, XDATA, add(CFA_XSP16, literal(-11)))
          CFI (cfiCond43) V12 load(1, XDATA, add(CFA_XSP16, literal(-10)))
          CFI (cfiCond43) V13 load(1, XDATA, add(CFA_XSP16, literal(-9)))
          CFI (cfiCond43) V14 load(1, XDATA, add(CFA_XSP16, literal(-8)))
          CFI (cfiCond43) V15 load(1, XDATA, add(CFA_XSP16, literal(-7)))
          CFI (cfiCond43) R7 load(1, XDATA, add(CFA_XSP16, literal(-6)))
          CFI (cfiCond43) ?RET_LOW load(1, XDATA, add(CFA_XSP16, literal(-5)))
          CFI (cfiCond43) ?RET_HIGH load(1, XDATA, add(CFA_XSP16, literal(-4)))
          CFI (cfiCond43) ?BRET_EXT load(1, XDATA, add(CFA_XSP16, literal(-3)))
          CFI (cfiCond43) DPL0 load(1, XDATA, add(CFA_XSP16, literal(-2)))
          CFI (cfiCond43) DPH0 load(1, XDATA, add(CFA_XSP16, literal(-1)))
          CFI (cfiCond43) CFA_SP SP+0
          CFI (cfiCond43) CFA_XSP16 add(XSP16, 28)
          CFI Block cfiCond44 Using cfiCommon0
          CFI (cfiCond44) Function SendData_PM25
          CFI (cfiCond44) Conditional ??CrossCallReturnLabel_71
          CFI (cfiCond44) R6 load(1, XDATA, add(CFA_XSP16, literal(-16)))
          CFI (cfiCond44) VB load(1, XDATA, add(CFA_XSP16, literal(-15)))
          CFI (cfiCond44) V0 load(1, XDATA, add(CFA_XSP16, literal(-14)))
          CFI (cfiCond44) V1 load(1, XDATA, add(CFA_XSP16, literal(-13)))
          CFI (cfiCond44) V2 load(1, XDATA, add(CFA_XSP16, literal(-12)))
          CFI (cfiCond44) V3 load(1, XDATA, add(CFA_XSP16, literal(-11)))
          CFI (cfiCond44) V4 load(1, XDATA, add(CFA_XSP16, literal(-10)))
          CFI (cfiCond44) V5 load(1, XDATA, add(CFA_XSP16, literal(-9)))
          CFI (cfiCond44) V6 load(1, XDATA, add(CFA_XSP16, literal(-8)))
          CFI (cfiCond44) V7 load(1, XDATA, add(CFA_XSP16, literal(-7)))
          CFI (cfiCond44) R7 load(1, XDATA, add(CFA_XSP16, literal(-6)))
          CFI (cfiCond44) ?RET_LOW load(1, XDATA, add(CFA_XSP16, literal(-5)))
          CFI (cfiCond44) ?RET_HIGH load(1, XDATA, add(CFA_XSP16, literal(-4)))
          CFI (cfiCond44) ?BRET_EXT load(1, XDATA, add(CFA_XSP16, literal(-3)))
          CFI (cfiCond44) DPL0 load(1, XDATA, add(CFA_XSP16, literal(-2)))
          CFI (cfiCond44) DPH0 load(1, XDATA, add(CFA_XSP16, literal(-1)))
          CFI (cfiCond44) CFA_SP SP+0
          CFI (cfiCond44) CFA_XSP16 add(XSP16, 19)
          CFI Block cfiPicker45 Using cfiCommon1
          CFI (cfiPicker45) NoFunction
          CFI (cfiPicker45) Picker
        MOVX    @DPTR,A
        MOV     DPL,?XSP + 0
        MOV     DPH,?XSP + 1
        MOVX    A,@DPTR
        RET
          CFI EndBlock cfiCond40
          CFI EndBlock cfiCond41
          CFI EndBlock cfiCond42
          CFI EndBlock cfiCond43
          CFI EndBlock cfiCond44
          CFI EndBlock cfiPicker45

        RSEG XDATA_I:XDATA:NOROOT(0)
// float R0_MQ7
R0_MQ7:
        DATA32
        DS 4
        REQUIRE `?<Initializer for R0_MQ7>`
        REQUIRE __INIT_XDATA_I

        RSEG XDATA_Z:XDATA:NOROOT(0)
        DATA8
// unsigned int Temp_MQ7[10]
Temp_MQ7:
        DS 20
        REQUIRE __INIT_XDATA_Z

        RSEG BANKED_CODE:CODE:NOROOT(0)
// __banked_func __xdata_reentrant void Init_MQ7(void)
Init_MQ7:
          CFI Block cfiBlock46 Using cfiCommon0
          CFI Function Init_MQ7
        CODE
        ; Saved register size: 0
        ; Auto size: 0
        ANL     0xfd,#0xbf
        ORL     0xf2,#0x40
        LJMP    ?BRET
          CFI EndBlock cfiBlock46
        REQUIRE P0DIR
        REQUIRE ADCCFG

        RSEG BANKED_CODE:CODE:NOROOT(0)
// __banked_func __xdata_reentrant void background_MQ7(void)
background_MQ7:
          CFI Block cfiBlock47 Using cfiCommon0
          CFI Function background_MQ7
        CODE
        MOV     A,#-0xa
        LCALL   ?BANKED_ENTER_XDATA
          CFI DPH0 load(1, XDATA, add(CFA_XSP16, literal(-1)))
          CFI DPL0 load(1, XDATA, add(CFA_XSP16, literal(-2)))
          CFI ?BRET_EXT load(1, XDATA, add(CFA_XSP16, literal(-3)))
          CFI ?RET_HIGH load(1, XDATA, add(CFA_XSP16, literal(-4)))
          CFI ?RET_LOW load(1, XDATA, add(CFA_XSP16, literal(-5)))
          CFI R7 load(1, XDATA, add(CFA_XSP16, literal(-6)))
          CFI V1 load(1, XDATA, add(CFA_XSP16, literal(-7)))
          CFI V0 load(1, XDATA, add(CFA_XSP16, literal(-8)))
          CFI VB load(1, XDATA, add(CFA_XSP16, literal(-9)))
          CFI R6 load(1, XDATA, add(CFA_XSP16, literal(-10)))
          CFI CFA_SP SP+0
          CFI CFA_XSP16 add(XSP16, 10)
        ; Saved register size: 10
        ; Auto size: 0
        MOV     0xb4,#0x30
        MOV     0xb6,#-0x4a
        ORL     0xb4,#0x40
??background_MQ7_0:
        MOV     A,0xb4
        MOV     C,0xE0 /* A   */.7
        JNC     ??background_MQ7_0
        LCALL   ?Subroutine27 & 0xFFFF
??CrossCallReturnLabel_46:
        LCALL   ?S_SHL
        LCALL   ?Subroutine28 & 0xFFFF
??CrossCallReturnLabel_51:
        MOV     DPTR,#??i
        LCALL   ?Subroutine9 & 0xFFFF
??CrossCallReturnLabel_8:
        MOV     A,#Temp_MQ7 & 0xff
        ADD     A,R0
        MOV     DPL,A
        MOV     A,#(Temp_MQ7 >> 8) & 0xff
        LCALL   ?Subroutine31 & 0xFFFF
??CrossCallReturnLabel_61:
        MOV     DPTR,#??i
        LCALL   ?Subroutine14 & 0xFFFF
??CrossCallReturnLabel_23:
        MOV     DPTR,#??i
        MOVX    A,@DPTR
        XRL     A,#0xa
        JNZ     ??background_MQ7_1
        INC     DPTR
        MOVX    A,@DPTR
??background_MQ7_1:
        JNZ     ??background_MQ7_2
        MOV     DPTR,#??i
        CLR     A
        MOVX    @DPTR,A
        INC     DPTR
        MOVX    @DPTR,A
??background_MQ7_2:
        LJMP    ?Subroutine2 & 0xFFFF
          CFI EndBlock cfiBlock47
        REQUIRE ADCCON1
        REQUIRE ADCCON3
        REQUIRE ADCL
        REQUIRE ADCH

        RSEG BANKED_CODE:CODE:NOROOT(0)
?Subroutine28:
          CFI Block cfiCond48 Using cfiCommon0
          CFI Function background_MS1100
          CFI Conditional ??CrossCallReturnLabel_49
          CFI R6 load(1, XDATA, add(CFA_XSP16, literal(-10)))
          CFI VB load(1, XDATA, add(CFA_XSP16, literal(-9)))
          CFI V0 load(1, XDATA, add(CFA_XSP16, literal(-8)))
          CFI V1 load(1, XDATA, add(CFA_XSP16, literal(-7)))
          CFI R7 load(1, XDATA, add(CFA_XSP16, literal(-6)))
          CFI ?RET_LOW load(1, XDATA, add(CFA_XSP16, literal(-5)))
          CFI ?RET_HIGH load(1, XDATA, add(CFA_XSP16, literal(-4)))
          CFI ?BRET_EXT load(1, XDATA, add(CFA_XSP16, literal(-3)))
          CFI DPL0 load(1, XDATA, add(CFA_XSP16, literal(-2)))
          CFI DPH0 load(1, XDATA, add(CFA_XSP16, literal(-1)))
          CFI CFA_SP SP+0
          CFI CFA_XSP16 add(XSP16, 10)
          CFI Block cfiCond49 Using cfiCommon0
          CFI (cfiCond49) Function background_TGS4161
          CFI (cfiCond49) Conditional ??CrossCallReturnLabel_50
          CFI (cfiCond49) R6 load(1, XDATA, add(CFA_XSP16, literal(-10)))
          CFI (cfiCond49) VB load(1, XDATA, add(CFA_XSP16, literal(-9)))
          CFI (cfiCond49) V0 load(1, XDATA, add(CFA_XSP16, literal(-8)))
          CFI (cfiCond49) V1 load(1, XDATA, add(CFA_XSP16, literal(-7)))
          CFI (cfiCond49) R7 load(1, XDATA, add(CFA_XSP16, literal(-6)))
          CFI (cfiCond49) ?RET_LOW load(1, XDATA, add(CFA_XSP16, literal(-5)))
          CFI (cfiCond49) ?RET_HIGH load(1, XDATA, add(CFA_XSP16, literal(-4)))
          CFI (cfiCond49) ?BRET_EXT load(1, XDATA, add(CFA_XSP16, literal(-3)))
          CFI (cfiCond49) DPL0 load(1, XDATA, add(CFA_XSP16, literal(-2)))
          CFI (cfiCond49) DPH0 load(1, XDATA, add(CFA_XSP16, literal(-1)))
          CFI (cfiCond49) CFA_SP SP+0
          CFI (cfiCond49) CFA_XSP16 add(XSP16, 10)
          CFI Block cfiCond50 Using cfiCommon0
          CFI (cfiCond50) Function background_MQ7
          CFI (cfiCond50) Conditional ??CrossCallReturnLabel_51
          CFI (cfiCond50) R6 load(1, XDATA, add(CFA_XSP16, literal(-10)))
          CFI (cfiCond50) VB load(1, XDATA, add(CFA_XSP16, literal(-9)))
          CFI (cfiCond50) V0 load(1, XDATA, add(CFA_XSP16, literal(-8)))
          CFI (cfiCond50) V1 load(1, XDATA, add(CFA_XSP16, literal(-7)))
          CFI (cfiCond50) R7 load(1, XDATA, add(CFA_XSP16, literal(-6)))
          CFI (cfiCond50) ?RET_LOW load(1, XDATA, add(CFA_XSP16, literal(-5)))
          CFI (cfiCond50) ?RET_HIGH load(1, XDATA, add(CFA_XSP16, literal(-4)))
          CFI (cfiCond50) ?BRET_EXT load(1, XDATA, add(CFA_XSP16, literal(-3)))
          CFI (cfiCond50) DPL0 load(1, XDATA, add(CFA_XSP16, literal(-2)))
          CFI (cfiCond50) DPH0 load(1, XDATA, add(CFA_XSP16, literal(-1)))
          CFI (cfiCond50) CFA_SP SP+0
          CFI (cfiCond50) CFA_XSP16 add(XSP16, 10)
          CFI Block cfiCond51 Using cfiCommon0
          CFI (cfiCond51) Function background_PM25_ADC
          CFI (cfiCond51) Conditional ??CrossCallReturnLabel_52
          CFI (cfiCond51) R6 load(1, XDATA, add(CFA_XSP16, literal(-10)))
          CFI (cfiCond51) VB load(1, XDATA, add(CFA_XSP16, literal(-9)))
          CFI (cfiCond51) V0 load(1, XDATA, add(CFA_XSP16, literal(-8)))
          CFI (cfiCond51) V1 load(1, XDATA, add(CFA_XSP16, literal(-7)))
          CFI (cfiCond51) R7 load(1, XDATA, add(CFA_XSP16, literal(-6)))
          CFI (cfiCond51) ?RET_LOW load(1, XDATA, add(CFA_XSP16, literal(-5)))
          CFI (cfiCond51) ?RET_HIGH load(1, XDATA, add(CFA_XSP16, literal(-4)))
          CFI (cfiCond51) ?BRET_EXT load(1, XDATA, add(CFA_XSP16, literal(-3)))
          CFI (cfiCond51) DPL0 load(1, XDATA, add(CFA_XSP16, literal(-2)))
          CFI (cfiCond51) DPH0 load(1, XDATA, add(CFA_XSP16, literal(-1)))
          CFI (cfiCond51) CFA_SP SP+0
          CFI (cfiCond51) CFA_XSP16 add(XSP16, 10)
          CFI Block cfiCond52 Using cfiCommon0
          CFI (cfiCond52) Function background_TGS813
          CFI (cfiCond52) Conditional ??CrossCallReturnLabel_53
          CFI (cfiCond52) R6 load(1, XDATA, add(CFA_XSP16, literal(-10)))
          CFI (cfiCond52) VB load(1, XDATA, add(CFA_XSP16, literal(-9)))
          CFI (cfiCond52) V0 load(1, XDATA, add(CFA_XSP16, literal(-8)))
          CFI (cfiCond52) V1 load(1, XDATA, add(CFA_XSP16, literal(-7)))
          CFI (cfiCond52) R7 load(1, XDATA, add(CFA_XSP16, literal(-6)))
          CFI (cfiCond52) ?RET_LOW load(1, XDATA, add(CFA_XSP16, literal(-5)))
          CFI (cfiCond52) ?RET_HIGH load(1, XDATA, add(CFA_XSP16, literal(-4)))
          CFI (cfiCond52) ?BRET_EXT load(1, XDATA, add(CFA_XSP16, literal(-3)))
          CFI (cfiCond52) DPL0 load(1, XDATA, add(CFA_XSP16, literal(-2)))
          CFI (cfiCond52) DPH0 load(1, XDATA, add(CFA_XSP16, literal(-1)))
          CFI (cfiCond52) CFA_SP SP+0
          CFI (cfiCond52) CFA_XSP16 add(XSP16, 10)
          CFI Block cfiPicker53 Using cfiCommon1
          CFI (cfiPicker53) NoFunction
          CFI (cfiPicker53) Picker
        MOV     A,R2
        ADD     A,?V0 + 0
        MOV     R2,A
        CLR     A
        ADDC    A,?V0 + 1
        MOV     R3,A
        RET
          CFI EndBlock cfiCond48
          CFI EndBlock cfiCond49
          CFI EndBlock cfiCond50
          CFI EndBlock cfiCond51
          CFI EndBlock cfiCond52
          CFI EndBlock cfiPicker53

        RSEG BANKED_CODE:CODE:NOROOT(0)
?Subroutine27:
          CFI Block cfiCond54 Using cfiCommon0
          CFI Function background_MS1100
          CFI Conditional ??CrossCallReturnLabel_44
          CFI R6 load(1, XDATA, add(CFA_XSP16, literal(-10)))
          CFI VB load(1, XDATA, add(CFA_XSP16, literal(-9)))
          CFI V0 load(1, XDATA, add(CFA_XSP16, literal(-8)))
          CFI V1 load(1, XDATA, add(CFA_XSP16, literal(-7)))
          CFI R7 load(1, XDATA, add(CFA_XSP16, literal(-6)))
          CFI ?RET_LOW load(1, XDATA, add(CFA_XSP16, literal(-5)))
          CFI ?RET_HIGH load(1, XDATA, add(CFA_XSP16, literal(-4)))
          CFI ?BRET_EXT load(1, XDATA, add(CFA_XSP16, literal(-3)))
          CFI DPL0 load(1, XDATA, add(CFA_XSP16, literal(-2)))
          CFI DPH0 load(1, XDATA, add(CFA_XSP16, literal(-1)))
          CFI CFA_SP SP+0
          CFI CFA_XSP16 add(XSP16, 10)
          CFI Block cfiCond55 Using cfiCommon0
          CFI (cfiCond55) Function background_TGS4161
          CFI (cfiCond55) Conditional ??CrossCallReturnLabel_45
          CFI (cfiCond55) R6 load(1, XDATA, add(CFA_XSP16, literal(-10)))
          CFI (cfiCond55) VB load(1, XDATA, add(CFA_XSP16, literal(-9)))
          CFI (cfiCond55) V0 load(1, XDATA, add(CFA_XSP16, literal(-8)))
          CFI (cfiCond55) V1 load(1, XDATA, add(CFA_XSP16, literal(-7)))
          CFI (cfiCond55) R7 load(1, XDATA, add(CFA_XSP16, literal(-6)))
          CFI (cfiCond55) ?RET_LOW load(1, XDATA, add(CFA_XSP16, literal(-5)))
          CFI (cfiCond55) ?RET_HIGH load(1, XDATA, add(CFA_XSP16, literal(-4)))
          CFI (cfiCond55) ?BRET_EXT load(1, XDATA, add(CFA_XSP16, literal(-3)))
          CFI (cfiCond55) DPL0 load(1, XDATA, add(CFA_XSP16, literal(-2)))
          CFI (cfiCond55) DPH0 load(1, XDATA, add(CFA_XSP16, literal(-1)))
          CFI (cfiCond55) CFA_SP SP+0
          CFI (cfiCond55) CFA_XSP16 add(XSP16, 10)
          CFI Block cfiCond56 Using cfiCommon0
          CFI (cfiCond56) Function background_MQ7
          CFI (cfiCond56) Conditional ??CrossCallReturnLabel_46
          CFI (cfiCond56) R6 load(1, XDATA, add(CFA_XSP16, literal(-10)))
          CFI (cfiCond56) VB load(1, XDATA, add(CFA_XSP16, literal(-9)))
          CFI (cfiCond56) V0 load(1, XDATA, add(CFA_XSP16, literal(-8)))
          CFI (cfiCond56) V1 load(1, XDATA, add(CFA_XSP16, literal(-7)))
          CFI (cfiCond56) R7 load(1, XDATA, add(CFA_XSP16, literal(-6)))
          CFI (cfiCond56) ?RET_LOW load(1, XDATA, add(CFA_XSP16, literal(-5)))
          CFI (cfiCond56) ?RET_HIGH load(1, XDATA, add(CFA_XSP16, literal(-4)))
          CFI (cfiCond56) ?BRET_EXT load(1, XDATA, add(CFA_XSP16, literal(-3)))
          CFI (cfiCond56) DPL0 load(1, XDATA, add(CFA_XSP16, literal(-2)))
          CFI (cfiCond56) DPH0 load(1, XDATA, add(CFA_XSP16, literal(-1)))
          CFI (cfiCond56) CFA_SP SP+0
          CFI (cfiCond56) CFA_XSP16 add(XSP16, 10)
          CFI Block cfiCond57 Using cfiCommon0
          CFI (cfiCond57) Function background_PM25_ADC
          CFI (cfiCond57) Conditional ??CrossCallReturnLabel_47
          CFI (cfiCond57) R6 load(1, XDATA, add(CFA_XSP16, literal(-10)))
          CFI (cfiCond57) VB load(1, XDATA, add(CFA_XSP16, literal(-9)))
          CFI (cfiCond57) V0 load(1, XDATA, add(CFA_XSP16, literal(-8)))
          CFI (cfiCond57) V1 load(1, XDATA, add(CFA_XSP16, literal(-7)))
          CFI (cfiCond57) R7 load(1, XDATA, add(CFA_XSP16, literal(-6)))
          CFI (cfiCond57) ?RET_LOW load(1, XDATA, add(CFA_XSP16, literal(-5)))
          CFI (cfiCond57) ?RET_HIGH load(1, XDATA, add(CFA_XSP16, literal(-4)))
          CFI (cfiCond57) ?BRET_EXT load(1, XDATA, add(CFA_XSP16, literal(-3)))
          CFI (cfiCond57) DPL0 load(1, XDATA, add(CFA_XSP16, literal(-2)))
          CFI (cfiCond57) DPH0 load(1, XDATA, add(CFA_XSP16, literal(-1)))
          CFI (cfiCond57) CFA_SP SP+0
          CFI (cfiCond57) CFA_XSP16 add(XSP16, 10)
          CFI Block cfiCond58 Using cfiCommon0
          CFI (cfiCond58) Function background_TGS813
          CFI (cfiCond58) Conditional ??CrossCallReturnLabel_48
          CFI (cfiCond58) R6 load(1, XDATA, add(CFA_XSP16, literal(-10)))
          CFI (cfiCond58) VB load(1, XDATA, add(CFA_XSP16, literal(-9)))
          CFI (cfiCond58) V0 load(1, XDATA, add(CFA_XSP16, literal(-8)))
          CFI (cfiCond58) V1 load(1, XDATA, add(CFA_XSP16, literal(-7)))
          CFI (cfiCond58) R7 load(1, XDATA, add(CFA_XSP16, literal(-6)))
          CFI (cfiCond58) ?RET_LOW load(1, XDATA, add(CFA_XSP16, literal(-5)))
          CFI (cfiCond58) ?RET_HIGH load(1, XDATA, add(CFA_XSP16, literal(-4)))
          CFI (cfiCond58) ?BRET_EXT load(1, XDATA, add(CFA_XSP16, literal(-3)))
          CFI (cfiCond58) DPL0 load(1, XDATA, add(CFA_XSP16, literal(-2)))
          CFI (cfiCond58) DPH0 load(1, XDATA, add(CFA_XSP16, literal(-1)))
          CFI (cfiCond58) CFA_SP SP+0
          CFI (cfiCond58) CFA_XSP16 add(XSP16, 10)
          CFI Block cfiPicker59 Using cfiCommon1
          CFI (cfiPicker59) NoFunction
          CFI (cfiPicker59) Picker
        MOV     A,0xba
        SWAP    A
        ANL     A,#0xf
        MOV     R2,A
        MOV     A,0xbb
        MOV     ?V0 + 0,A
        MOV     ?V0 + 1,#0x0
        MOV     A,#0x4
        MOV     R0,#?V0 + 0
        RET
          CFI EndBlock cfiCond54
          CFI EndBlock cfiCond55
          CFI EndBlock cfiCond56
          CFI EndBlock cfiCond57
          CFI EndBlock cfiCond58
          CFI EndBlock cfiPicker59

        RSEG BANKED_CODE:CODE:NOROOT(0)
?Subroutine9:
          CFI Block cfiCond60 Using cfiCommon0
          CFI Function background_MS1100
          CFI Conditional ??CrossCallReturnLabel_6
          CFI R6 load(1, XDATA, add(CFA_XSP16, literal(-10)))
          CFI VB load(1, XDATA, add(CFA_XSP16, literal(-9)))
          CFI V0 load(1, XDATA, add(CFA_XSP16, literal(-8)))
          CFI V1 load(1, XDATA, add(CFA_XSP16, literal(-7)))
          CFI R7 load(1, XDATA, add(CFA_XSP16, literal(-6)))
          CFI ?RET_LOW load(1, XDATA, add(CFA_XSP16, literal(-5)))
          CFI ?RET_HIGH load(1, XDATA, add(CFA_XSP16, literal(-4)))
          CFI ?BRET_EXT load(1, XDATA, add(CFA_XSP16, literal(-3)))
          CFI DPL0 load(1, XDATA, add(CFA_XSP16, literal(-2)))
          CFI DPH0 load(1, XDATA, add(CFA_XSP16, literal(-1)))
          CFI CFA_SP SP+0
          CFI CFA_XSP16 add(XSP16, 10)
          CFI Block cfiCond61 Using cfiCommon0
          CFI (cfiCond61) Function background_TGS4161
          CFI (cfiCond61) Conditional ??CrossCallReturnLabel_7
          CFI (cfiCond61) R6 load(1, XDATA, add(CFA_XSP16, literal(-10)))
          CFI (cfiCond61) VB load(1, XDATA, add(CFA_XSP16, literal(-9)))
          CFI (cfiCond61) V0 load(1, XDATA, add(CFA_XSP16, literal(-8)))
          CFI (cfiCond61) V1 load(1, XDATA, add(CFA_XSP16, literal(-7)))
          CFI (cfiCond61) R7 load(1, XDATA, add(CFA_XSP16, literal(-6)))
          CFI (cfiCond61) ?RET_LOW load(1, XDATA, add(CFA_XSP16, literal(-5)))
          CFI (cfiCond61) ?RET_HIGH load(1, XDATA, add(CFA_XSP16, literal(-4)))
          CFI (cfiCond61) ?BRET_EXT load(1, XDATA, add(CFA_XSP16, literal(-3)))
          CFI (cfiCond61) DPL0 load(1, XDATA, add(CFA_XSP16, literal(-2)))
          CFI (cfiCond61) DPH0 load(1, XDATA, add(CFA_XSP16, literal(-1)))
          CFI (cfiCond61) CFA_SP SP+0
          CFI (cfiCond61) CFA_XSP16 add(XSP16, 10)
          CFI Block cfiCond62 Using cfiCommon0
          CFI (cfiCond62) Function background_MQ7
          CFI (cfiCond62) Conditional ??CrossCallReturnLabel_8
          CFI (cfiCond62) R6 load(1, XDATA, add(CFA_XSP16, literal(-10)))
          CFI (cfiCond62) VB load(1, XDATA, add(CFA_XSP16, literal(-9)))
          CFI (cfiCond62) V0 load(1, XDATA, add(CFA_XSP16, literal(-8)))
          CFI (cfiCond62) V1 load(1, XDATA, add(CFA_XSP16, literal(-7)))
          CFI (cfiCond62) R7 load(1, XDATA, add(CFA_XSP16, literal(-6)))
          CFI (cfiCond62) ?RET_LOW load(1, XDATA, add(CFA_XSP16, literal(-5)))
          CFI (cfiCond62) ?RET_HIGH load(1, XDATA, add(CFA_XSP16, literal(-4)))
          CFI (cfiCond62) ?BRET_EXT load(1, XDATA, add(CFA_XSP16, literal(-3)))
          CFI (cfiCond62) DPL0 load(1, XDATA, add(CFA_XSP16, literal(-2)))
          CFI (cfiCond62) DPH0 load(1, XDATA, add(CFA_XSP16, literal(-1)))
          CFI (cfiCond62) CFA_SP SP+0
          CFI (cfiCond62) CFA_XSP16 add(XSP16, 10)
          CFI Block cfiCond63 Using cfiCommon0
          CFI (cfiCond63) Function background_PM25_ADC
          CFI (cfiCond63) Conditional ??CrossCallReturnLabel_9
          CFI (cfiCond63) R6 load(1, XDATA, add(CFA_XSP16, literal(-10)))
          CFI (cfiCond63) VB load(1, XDATA, add(CFA_XSP16, literal(-9)))
          CFI (cfiCond63) V0 load(1, XDATA, add(CFA_XSP16, literal(-8)))
          CFI (cfiCond63) V1 load(1, XDATA, add(CFA_XSP16, literal(-7)))
          CFI (cfiCond63) R7 load(1, XDATA, add(CFA_XSP16, literal(-6)))
          CFI (cfiCond63) ?RET_LOW load(1, XDATA, add(CFA_XSP16, literal(-5)))
          CFI (cfiCond63) ?RET_HIGH load(1, XDATA, add(CFA_XSP16, literal(-4)))
          CFI (cfiCond63) ?BRET_EXT load(1, XDATA, add(CFA_XSP16, literal(-3)))
          CFI (cfiCond63) DPL0 load(1, XDATA, add(CFA_XSP16, literal(-2)))
          CFI (cfiCond63) DPH0 load(1, XDATA, add(CFA_XSP16, literal(-1)))
          CFI (cfiCond63) CFA_SP SP+0
          CFI (cfiCond63) CFA_XSP16 add(XSP16, 10)
          CFI Block cfiCond64 Using cfiCommon0
          CFI (cfiCond64) Function background_TGS813
          CFI (cfiCond64) Conditional ??CrossCallReturnLabel_10
          CFI (cfiCond64) R6 load(1, XDATA, add(CFA_XSP16, literal(-10)))
          CFI (cfiCond64) VB load(1, XDATA, add(CFA_XSP16, literal(-9)))
          CFI (cfiCond64) V0 load(1, XDATA, add(CFA_XSP16, literal(-8)))
          CFI (cfiCond64) V1 load(1, XDATA, add(CFA_XSP16, literal(-7)))
          CFI (cfiCond64) R7 load(1, XDATA, add(CFA_XSP16, literal(-6)))
          CFI (cfiCond64) ?RET_LOW load(1, XDATA, add(CFA_XSP16, literal(-5)))
          CFI (cfiCond64) ?RET_HIGH load(1, XDATA, add(CFA_XSP16, literal(-4)))
          CFI (cfiCond64) ?BRET_EXT load(1, XDATA, add(CFA_XSP16, literal(-3)))
          CFI (cfiCond64) DPL0 load(1, XDATA, add(CFA_XSP16, literal(-2)))
          CFI (cfiCond64) DPH0 load(1, XDATA, add(CFA_XSP16, literal(-1)))
          CFI (cfiCond64) CFA_SP SP+0
          CFI (cfiCond64) CFA_XSP16 add(XSP16, 10)
          CFI Block cfiPicker65 Using cfiCommon1
          CFI (cfiPicker65) NoFunction
          CFI (cfiPicker65) Picker
        LCALL   ?Subroutine33 & 0xFFFF
??CrossCallReturnLabel_106:
        MOV     A,R0
        RLC     A
        MOV     R0,A
        MOV     A,R1
        RLC     A
        MOV     R1,A
        RET
          CFI EndBlock cfiCond60
          CFI EndBlock cfiCond61
          CFI EndBlock cfiCond62
          CFI EndBlock cfiCond63
          CFI EndBlock cfiCond64
          CFI EndBlock cfiPicker65

        RSEG BANKED_CODE:CODE:NOROOT(0)
?Subroutine33:
          CFI Block cfiCond66 Using cfiCommon0
          CFI Function SendData_DHT22
          CFI Conditional ??CrossCallReturnLabel_107, ??CrossCallReturnLabel_27
          CFI DPL0 Frame(CFA_SP, 4)
          CFI DPH0 Frame(CFA_SP, 5)
          CFI CFA_SP SP+-5
          CFI CFA_XSP16 add(XSP16, 11)
          CFI Block cfiCond67 Using cfiCommon0
          CFI (cfiCond67) Function SendData_DHT22
          CFI (cfiCond67) Conditional ??CrossCallReturnLabel_107, ??CrossCallReturnLabel_28
          CFI (cfiCond67) DPL0 Frame(CFA_SP, 4)
          CFI (cfiCond67) DPH0 Frame(CFA_SP, 5)
          CFI (cfiCond67) CFA_SP SP+-5
          CFI (cfiCond67) CFA_XSP16 add(XSP16, 11)
          CFI Block cfiCond68 Using cfiCommon0
          CFI (cfiCond68) Function TGS4161_EMF_350ppm
          CFI (cfiCond68) Conditional ??CrossCallReturnLabel_103
          CFI (cfiCond68) R6 load(1, XDATA, add(CFA_XSP16, literal(-10)))
          CFI (cfiCond68) VB load(1, XDATA, add(CFA_XSP16, literal(-9)))
          CFI (cfiCond68) V0 load(1, XDATA, add(CFA_XSP16, literal(-8)))
          CFI (cfiCond68) V1 load(1, XDATA, add(CFA_XSP16, literal(-7)))
          CFI (cfiCond68) R7 load(1, XDATA, add(CFA_XSP16, literal(-6)))
          CFI (cfiCond68) ?RET_LOW load(1, XDATA, add(CFA_XSP16, literal(-5)))
          CFI (cfiCond68) ?RET_HIGH load(1, XDATA, add(CFA_XSP16, literal(-4)))
          CFI (cfiCond68) ?BRET_EXT load(1, XDATA, add(CFA_XSP16, literal(-3)))
          CFI (cfiCond68) DPL0 load(1, XDATA, add(CFA_XSP16, literal(-2)))
          CFI (cfiCond68) DPH0 load(1, XDATA, add(CFA_XSP16, literal(-1)))
          CFI (cfiCond68) CFA_SP SP+0
          CFI (cfiCond68) CFA_XSP16 add(XSP16, 10)
          CFI Block cfiCond69 Using cfiCommon0
          CFI (cfiCond69) Function background_MS1100
          CFI (cfiCond69) Conditional ??CrossCallReturnLabel_106, ??CrossCallReturnLabel_6
          CFI (cfiCond69) R6 load(1, XDATA, add(CFA_XSP16, literal(-10)))
          CFI (cfiCond69) VB load(1, XDATA, add(CFA_XSP16, literal(-9)))
          CFI (cfiCond69) V0 load(1, XDATA, add(CFA_XSP16, literal(-8)))
          CFI (cfiCond69) V1 load(1, XDATA, add(CFA_XSP16, literal(-7)))
          CFI (cfiCond69) R7 load(1, XDATA, add(CFA_XSP16, literal(-6)))
          CFI (cfiCond69) ?RET_LOW load(1, XDATA, add(CFA_XSP16, literal(-5)))
          CFI (cfiCond69) ?RET_HIGH load(1, XDATA, add(CFA_XSP16, literal(-4)))
          CFI (cfiCond69) ?BRET_EXT load(1, XDATA, add(CFA_XSP16, literal(-3)))
          CFI (cfiCond69) DPL0 load(1, XDATA, add(CFA_XSP16, literal(-2)))
          CFI (cfiCond69) DPH0 load(1, XDATA, add(CFA_XSP16, literal(-1)))
          CFI (cfiCond69) CFA_SP SP+0
          CFI (cfiCond69) CFA_XSP16 add(XSP16, 10)
          CFI Block cfiCond70 Using cfiCommon0
          CFI (cfiCond70) Function background_TGS4161
          CFI (cfiCond70) Conditional ??CrossCallReturnLabel_106, ??CrossCallReturnLabel_7
          CFI (cfiCond70) R6 load(1, XDATA, add(CFA_XSP16, literal(-10)))
          CFI (cfiCond70) VB load(1, XDATA, add(CFA_XSP16, literal(-9)))
          CFI (cfiCond70) V0 load(1, XDATA, add(CFA_XSP16, literal(-8)))
          CFI (cfiCond70) V1 load(1, XDATA, add(CFA_XSP16, literal(-7)))
          CFI (cfiCond70) R7 load(1, XDATA, add(CFA_XSP16, literal(-6)))
          CFI (cfiCond70) ?RET_LOW load(1, XDATA, add(CFA_XSP16, literal(-5)))
          CFI (cfiCond70) ?RET_HIGH load(1, XDATA, add(CFA_XSP16, literal(-4)))
          CFI (cfiCond70) ?BRET_EXT load(1, XDATA, add(CFA_XSP16, literal(-3)))
          CFI (cfiCond70) DPL0 load(1, XDATA, add(CFA_XSP16, literal(-2)))
          CFI (cfiCond70) DPH0 load(1, XDATA, add(CFA_XSP16, literal(-1)))
          CFI (cfiCond70) CFA_SP SP+0
          CFI (cfiCond70) CFA_XSP16 add(XSP16, 10)
          CFI Block cfiCond71 Using cfiCommon0
          CFI (cfiCond71) Function background_MQ7
          CFI (cfiCond71) Conditional ??CrossCallReturnLabel_106, ??CrossCallReturnLabel_8
          CFI (cfiCond71) R6 load(1, XDATA, add(CFA_XSP16, literal(-10)))
          CFI (cfiCond71) VB load(1, XDATA, add(CFA_XSP16, literal(-9)))
          CFI (cfiCond71) V0 load(1, XDATA, add(CFA_XSP16, literal(-8)))
          CFI (cfiCond71) V1 load(1, XDATA, add(CFA_XSP16, literal(-7)))
          CFI (cfiCond71) R7 load(1, XDATA, add(CFA_XSP16, literal(-6)))
          CFI (cfiCond71) ?RET_LOW load(1, XDATA, add(CFA_XSP16, literal(-5)))
          CFI (cfiCond71) ?RET_HIGH load(1, XDATA, add(CFA_XSP16, literal(-4)))
          CFI (cfiCond71) ?BRET_EXT load(1, XDATA, add(CFA_XSP16, literal(-3)))
          CFI (cfiCond71) DPL0 load(1, XDATA, add(CFA_XSP16, literal(-2)))
          CFI (cfiCond71) DPH0 load(1, XDATA, add(CFA_XSP16, literal(-1)))
          CFI (cfiCond71) CFA_SP SP+0
          CFI (cfiCond71) CFA_XSP16 add(XSP16, 10)
          CFI Block cfiCond72 Using cfiCommon0
          CFI (cfiCond72) Function background_PM25_ADC
          CFI (cfiCond72) Conditional ??CrossCallReturnLabel_106, ??CrossCallReturnLabel_9
          CFI (cfiCond72) R6 load(1, XDATA, add(CFA_XSP16, literal(-10)))
          CFI (cfiCond72) VB load(1, XDATA, add(CFA_XSP16, literal(-9)))
          CFI (cfiCond72) V0 load(1, XDATA, add(CFA_XSP16, literal(-8)))
          CFI (cfiCond72) V1 load(1, XDATA, add(CFA_XSP16, literal(-7)))
          CFI (cfiCond72) R7 load(1, XDATA, add(CFA_XSP16, literal(-6)))
          CFI (cfiCond72) ?RET_LOW load(1, XDATA, add(CFA_XSP16, literal(-5)))
          CFI (cfiCond72) ?RET_HIGH load(1, XDATA, add(CFA_XSP16, literal(-4)))
          CFI (cfiCond72) ?BRET_EXT load(1, XDATA, add(CFA_XSP16, literal(-3)))
          CFI (cfiCond72) DPL0 load(1, XDATA, add(CFA_XSP16, literal(-2)))
          CFI (cfiCond72) DPH0 load(1, XDATA, add(CFA_XSP16, literal(-1)))
          CFI (cfiCond72) CFA_SP SP+0
          CFI (cfiCond72) CFA_XSP16 add(XSP16, 10)
          CFI Block cfiCond73 Using cfiCommon0
          CFI (cfiCond73) Function background_TGS813
          CFI (cfiCond73) Conditional ??CrossCallReturnLabel_106, ??CrossCallReturnLabel_10
          CFI (cfiCond73) R6 load(1, XDATA, add(CFA_XSP16, literal(-10)))
          CFI (cfiCond73) VB load(1, XDATA, add(CFA_XSP16, literal(-9)))
          CFI (cfiCond73) V0 load(1, XDATA, add(CFA_XSP16, literal(-8)))
          CFI (cfiCond73) V1 load(1, XDATA, add(CFA_XSP16, literal(-7)))
          CFI (cfiCond73) R7 load(1, XDATA, add(CFA_XSP16, literal(-6)))
          CFI (cfiCond73) ?RET_LOW load(1, XDATA, add(CFA_XSP16, literal(-5)))
          CFI (cfiCond73) ?RET_HIGH load(1, XDATA, add(CFA_XSP16, literal(-4)))
          CFI (cfiCond73) ?BRET_EXT load(1, XDATA, add(CFA_XSP16, literal(-3)))
          CFI (cfiCond73) DPL0 load(1, XDATA, add(CFA_XSP16, literal(-2)))
          CFI (cfiCond73) DPH0 load(1, XDATA, add(CFA_XSP16, literal(-1)))
          CFI (cfiCond73) CFA_SP SP+0
          CFI (cfiCond73) CFA_XSP16 add(XSP16, 10)
          CFI Block cfiCond74 Using cfiCommon0
          CFI (cfiCond74) Function SendUART
          CFI (cfiCond74) Conditional ??CrossCallReturnLabel_104
          CFI (cfiCond74) R6 load(1, XDATA, add(CFA_XSP16, literal(-9)))
          CFI (cfiCond74) VB load(1, XDATA, add(CFA_XSP16, literal(-8)))
          CFI (cfiCond74) V0 load(1, XDATA, add(CFA_XSP16, literal(-7)))
          CFI (cfiCond74) R7 load(1, XDATA, add(CFA_XSP16, literal(-6)))
          CFI (cfiCond74) ?RET_LOW load(1, XDATA, add(CFA_XSP16, literal(-5)))
          CFI (cfiCond74) ?RET_HIGH load(1, XDATA, add(CFA_XSP16, literal(-4)))
          CFI (cfiCond74) ?BRET_EXT load(1, XDATA, add(CFA_XSP16, literal(-3)))
          CFI (cfiCond74) DPL0 load(1, XDATA, add(CFA_XSP16, literal(-2)))
          CFI (cfiCond74) DPH0 load(1, XDATA, add(CFA_XSP16, literal(-1)))
          CFI (cfiCond74) CFA_SP SP+0
          CFI (cfiCond74) CFA_XSP16 add(XSP16, 115)
          CFI Block cfiCond75 Using cfiCommon0
          CFI (cfiCond75) Function SendUART
          CFI (cfiCond75) Conditional ??CrossCallReturnLabel_105
          CFI (cfiCond75) R6 load(1, XDATA, add(CFA_XSP16, literal(-9)))
          CFI (cfiCond75) VB load(1, XDATA, add(CFA_XSP16, literal(-8)))
          CFI (cfiCond75) V0 load(1, XDATA, add(CFA_XSP16, literal(-7)))
          CFI (cfiCond75) R7 load(1, XDATA, add(CFA_XSP16, literal(-6)))
          CFI (cfiCond75) ?RET_LOW load(1, XDATA, add(CFA_XSP16, literal(-5)))
          CFI (cfiCond75) ?RET_HIGH load(1, XDATA, add(CFA_XSP16, literal(-4)))
          CFI (cfiCond75) ?BRET_EXT load(1, XDATA, add(CFA_XSP16, literal(-3)))
          CFI (cfiCond75) DPL0 load(1, XDATA, add(CFA_XSP16, literal(-2)))
          CFI (cfiCond75) DPH0 load(1, XDATA, add(CFA_XSP16, literal(-1)))
          CFI (cfiCond75) CFA_SP SP+0
          CFI (cfiCond75) CFA_XSP16 add(XSP16, 115)
          CFI Block cfiCond76 Using cfiCommon0
          CFI (cfiCond76) Function SendData_DHT22
          CFI (cfiCond76) Conditional ??CrossCallReturnLabel_108, ??CrossCallReturnLabel_95
          CFI (cfiCond76) DPL0 Frame(CFA_SP, 4)
          CFI (cfiCond76) DPH0 Frame(CFA_SP, 5)
          CFI (cfiCond76) CFA_SP SP+-5
          CFI (cfiCond76) CFA_XSP16 add(XSP16, 11)
          CFI Block cfiCond77 Using cfiCommon0
          CFI (cfiCond77) Function SendData_DHT22
          CFI (cfiCond77) Conditional ??CrossCallReturnLabel_108, ??CrossCallReturnLabel_96
          CFI (cfiCond77) DPL0 Frame(CFA_SP, 4)
          CFI (cfiCond77) DPH0 Frame(CFA_SP, 5)
          CFI (cfiCond77) CFA_SP SP+-5
          CFI (cfiCond77) CFA_XSP16 add(XSP16, 11)
          CFI Block cfiCond78 Using cfiCommon0
          CFI (cfiCond78) Function SendData_DHT22
          CFI (cfiCond78) Conditional ??CrossCallReturnLabel_108, ??CrossCallReturnLabel_97
          CFI (cfiCond78) DPL0 Frame(CFA_SP, 4)
          CFI (cfiCond78) DPH0 Frame(CFA_SP, 5)
          CFI (cfiCond78) CFA_SP SP+-5
          CFI (cfiCond78) CFA_XSP16 add(XSP16, 11)
          CFI Block cfiCond79 Using cfiCommon0
          CFI (cfiCond79) Function SendData_DHT22
          CFI (cfiCond79) Conditional ??CrossCallReturnLabel_108, ??CrossCallReturnLabel_98
          CFI (cfiCond79) DPL0 Frame(CFA_SP, 4)
          CFI (cfiCond79) DPH0 Frame(CFA_SP, 5)
          CFI (cfiCond79) CFA_SP SP+-5
          CFI (cfiCond79) CFA_XSP16 add(XSP16, 11)
          CFI Block cfiCond80 Using cfiCommon0
          CFI (cfiCond80) Function SendUART
          CFI (cfiCond80) Conditional ??CrossCallReturnLabel_108, ??CrossCallReturnLabel_99
          CFI (cfiCond80) R6 load(1, XDATA, add(CFA_XSP16, literal(-9)))
          CFI (cfiCond80) VB load(1, XDATA, add(CFA_XSP16, literal(-8)))
          CFI (cfiCond80) V0 load(1, XDATA, add(CFA_XSP16, literal(-7)))
          CFI (cfiCond80) R7 load(1, XDATA, add(CFA_XSP16, literal(-6)))
          CFI (cfiCond80) ?RET_LOW load(1, XDATA, add(CFA_XSP16, literal(-5)))
          CFI (cfiCond80) ?RET_HIGH load(1, XDATA, add(CFA_XSP16, literal(-4)))
          CFI (cfiCond80) ?BRET_EXT load(1, XDATA, add(CFA_XSP16, literal(-3)))
          CFI (cfiCond80) DPL0 load(1, XDATA, add(CFA_XSP16, literal(-2)))
          CFI (cfiCond80) DPH0 load(1, XDATA, add(CFA_XSP16, literal(-1)))
          CFI (cfiCond80) CFA_SP SP+0
          CFI (cfiCond80) CFA_XSP16 add(XSP16, 115)
          CFI Block cfiCond81 Using cfiCommon0
          CFI (cfiCond81) Function SendUART
          CFI (cfiCond81) Conditional ??CrossCallReturnLabel_108, ??CrossCallReturnLabel_100
          CFI (cfiCond81) R6 load(1, XDATA, add(CFA_XSP16, literal(-9)))
          CFI (cfiCond81) VB load(1, XDATA, add(CFA_XSP16, literal(-8)))
          CFI (cfiCond81) V0 load(1, XDATA, add(CFA_XSP16, literal(-7)))
          CFI (cfiCond81) R7 load(1, XDATA, add(CFA_XSP16, literal(-6)))
          CFI (cfiCond81) ?RET_LOW load(1, XDATA, add(CFA_XSP16, literal(-5)))
          CFI (cfiCond81) ?RET_HIGH load(1, XDATA, add(CFA_XSP16, literal(-4)))
          CFI (cfiCond81) ?BRET_EXT load(1, XDATA, add(CFA_XSP16, literal(-3)))
          CFI (cfiCond81) DPL0 load(1, XDATA, add(CFA_XSP16, literal(-2)))
          CFI (cfiCond81) DPH0 load(1, XDATA, add(CFA_XSP16, literal(-1)))
          CFI (cfiCond81) CFA_SP SP+0
          CFI (cfiCond81) CFA_XSP16 add(XSP16, 115)
          CFI Block cfiCond82 Using cfiCommon0
          CFI (cfiCond82) Function SendUART
          CFI (cfiCond82) Conditional ??CrossCallReturnLabel_108, ??CrossCallReturnLabel_101
          CFI (cfiCond82) R6 load(1, XDATA, add(CFA_XSP16, literal(-9)))
          CFI (cfiCond82) VB load(1, XDATA, add(CFA_XSP16, literal(-8)))
          CFI (cfiCond82) V0 load(1, XDATA, add(CFA_XSP16, literal(-7)))
          CFI (cfiCond82) R7 load(1, XDATA, add(CFA_XSP16, literal(-6)))
          CFI (cfiCond82) ?RET_LOW load(1, XDATA, add(CFA_XSP16, literal(-5)))
          CFI (cfiCond82) ?RET_HIGH load(1, XDATA, add(CFA_XSP16, literal(-4)))
          CFI (cfiCond82) ?BRET_EXT load(1, XDATA, add(CFA_XSP16, literal(-3)))
          CFI (cfiCond82) DPL0 load(1, XDATA, add(CFA_XSP16, literal(-2)))
          CFI (cfiCond82) DPH0 load(1, XDATA, add(CFA_XSP16, literal(-1)))
          CFI (cfiCond82) CFA_SP SP+0
          CFI (cfiCond82) CFA_XSP16 add(XSP16, 115)
          CFI Block cfiCond83 Using cfiCommon0
          CFI (cfiCond83) Function SendUART
          CFI (cfiCond83) Conditional ??CrossCallReturnLabel_108, ??CrossCallReturnLabel_102
          CFI (cfiCond83) R6 load(1, XDATA, add(CFA_XSP16, literal(-9)))
          CFI (cfiCond83) VB load(1, XDATA, add(CFA_XSP16, literal(-8)))
          CFI (cfiCond83) V0 load(1, XDATA, add(CFA_XSP16, literal(-7)))
          CFI (cfiCond83) R7 load(1, XDATA, add(CFA_XSP16, literal(-6)))
          CFI (cfiCond83) ?RET_LOW load(1, XDATA, add(CFA_XSP16, literal(-5)))
          CFI (cfiCond83) ?RET_HIGH load(1, XDATA, add(CFA_XSP16, literal(-4)))
          CFI (cfiCond83) ?BRET_EXT load(1, XDATA, add(CFA_XSP16, literal(-3)))
          CFI (cfiCond83) DPL0 load(1, XDATA, add(CFA_XSP16, literal(-2)))
          CFI (cfiCond83) DPH0 load(1, XDATA, add(CFA_XSP16, literal(-1)))
          CFI (cfiCond83) CFA_SP SP+0
          CFI (cfiCond83) CFA_XSP16 add(XSP16, 115)
          CFI Block cfiPicker84 Using cfiCommon1
          CFI (cfiPicker84) NoFunction
          CFI (cfiPicker84) Picker
        MOVX    A,@DPTR
        MOV     R0,A
        INC     DPTR
        MOVX    A,@DPTR
        MOV     R1,A
        RET
          CFI EndBlock cfiCond66
          CFI EndBlock cfiCond67
          CFI EndBlock cfiCond68
          CFI EndBlock cfiCond69
          CFI EndBlock cfiCond70
          CFI EndBlock cfiCond71
          CFI EndBlock cfiCond72
          CFI EndBlock cfiCond73
          CFI EndBlock cfiCond74
          CFI EndBlock cfiCond75
          CFI EndBlock cfiCond76
          CFI EndBlock cfiCond77
          CFI EndBlock cfiCond78
          CFI EndBlock cfiCond79
          CFI EndBlock cfiCond80
          CFI EndBlock cfiCond81
          CFI EndBlock cfiCond82
          CFI EndBlock cfiCond83
          CFI EndBlock cfiPicker84

        RSEG XDATA_Z:XDATA:NOROOT(0)
        DATA16
// int background_MQ7::i
??i:
        DS 2
        REQUIRE __INIT_XDATA_Z

        RSEG BANKED_CODE:CODE:NOROOT(0)
// __banked_func __xdata_reentrant void SendData_MQ7(void)
SendData_MQ7:
          CFI Block cfiBlock85 Using cfiCommon0
          CFI Function SendData_MQ7
        CODE
        MOV     A,#-0x18
        LCALL   ?BANKED_ENTER_XDATA
          CFI DPH0 load(1, XDATA, add(CFA_XSP16, literal(-1)))
          CFI DPL0 load(1, XDATA, add(CFA_XSP16, literal(-2)))
          CFI ?BRET_EXT load(1, XDATA, add(CFA_XSP16, literal(-3)))
          CFI ?RET_HIGH load(1, XDATA, add(CFA_XSP16, literal(-4)))
          CFI ?RET_LOW load(1, XDATA, add(CFA_XSP16, literal(-5)))
          CFI R7 load(1, XDATA, add(CFA_XSP16, literal(-6)))
          CFI V15 load(1, XDATA, add(CFA_XSP16, literal(-7)))
          CFI V14 load(1, XDATA, add(CFA_XSP16, literal(-8)))
          CFI V13 load(1, XDATA, add(CFA_XSP16, literal(-9)))
          CFI V12 load(1, XDATA, add(CFA_XSP16, literal(-10)))
          CFI V11 load(1, XDATA, add(CFA_XSP16, literal(-11)))
          CFI V10 load(1, XDATA, add(CFA_XSP16, literal(-12)))
          CFI V9 load(1, XDATA, add(CFA_XSP16, literal(-13)))
          CFI V8 load(1, XDATA, add(CFA_XSP16, literal(-14)))
          CFI V7 load(1, XDATA, add(CFA_XSP16, literal(-15)))
          CFI V6 load(1, XDATA, add(CFA_XSP16, literal(-16)))
          CFI V5 load(1, XDATA, add(CFA_XSP16, literal(-17)))
          CFI V4 load(1, XDATA, add(CFA_XSP16, literal(-18)))
          CFI V3 load(1, XDATA, add(CFA_XSP16, literal(-19)))
          CFI V2 load(1, XDATA, add(CFA_XSP16, literal(-20)))
          CFI V1 load(1, XDATA, add(CFA_XSP16, literal(-21)))
          CFI V0 load(1, XDATA, add(CFA_XSP16, literal(-22)))
          CFI VB load(1, XDATA, add(CFA_XSP16, literal(-23)))
          CFI R6 load(1, XDATA, add(CFA_XSP16, literal(-24)))
          CFI CFA_SP SP+0
          CFI CFA_XSP16 add(XSP16, 24)
        ; Saved register size: 24
        ; Auto size: 4
        MOV     A,#-0x4
        LCALL   ?ALLOC_XSTACK8
          CFI CFA_XSP16 add(XSP16, 28)
        MOV     DPL,?XSP + 0
        MOV     DPH,?XSP + 1
        MOV     R4,DPL
        MOV     R5,DPH
        MOV     DPH,#(`?<Constant {0}>_2` >> 8) & 0xff
        MOV     DPL,#`?<Constant {0}>_2` & 0xff
        MOV     A,#0x4
        LCALL   ?MOVE_LONG8_XDATA_XDATA
        MOV     ?V0 + 0,A
        MOV     ?V0 + 1,A
        MOV     R2,A
??SendData_MQ7_0:
        MOV     A,R2
        CLR     C
        RLC     A
        MOV     R0,A
        CLR     A
        RLC     A
        MOV     R1,A
        MOV     A,#Temp_MQ7 & 0xff
        ADD     A,R0
        MOV     DPL,A
        MOV     A,#(Temp_MQ7 >> 8) & 0xff
        LCALL   ?Subroutine11 & 0xFFFF
??CrossCallReturnLabel_13:
        JC      ??SendData_MQ7_0
        MOV     ?V0 + 8,#0x0
        MOV     ?V0 + 9,#0x50
        MOV     ?V0 + 10,#0x43
        MOV     ?V0 + 11,#0x47
        CLR     A
        MOV     ?V0 + 2,A
        MOV     ?V0 + 3,A
        MOV     R0,#?V0 + 0
        LCALL   ?UL_TO_FLT
        MOV     DPTR,#__Constant_41200000
        MOV     R0,#?V0 + 12
        LCALL   ?L_MOV_X
        MOV     R0,#?V0 + 0
        MOV     R1,#?V0 + 12
        LCALL   ?FLT_DIV
        MOV     DPTR,#__Constant_40533333
        MOV     R0,#?V0 + 12
        LCALL   ?L_MOV_X
        MOV     R0,#?V0 + 0
        MOV     R1,#?V0 + 12
        LCALL   ?FLT_MUL
        MOV     DPTR,#__Constant_3a000000
        MOV     R0,#?V0 + 12
        LCALL   ?L_MOV_X
        MOV     R0,#?V0 + 0
        MOV     R1,#?V0 + 12
        LCALL   ?FLT_MUL
        MOV     R0,#?V0 + 8
        MOV     R1,#?V0 + 0
        LCALL   ?FLT_DIV
        MOV     DPTR,#__Constant_c61c4000
        MOV     R0,#?V0 + 0
        LCALL   ?L_MOV_X
        MOV     R0,#?V0 + 8
        MOV     R1,#?V0 + 0
        LCALL   ?FLT_ADD
        MOV     ?V0 + 0,?V0 + 8
        MOV     ?V0 + 1,?V0 + 9
        MOV     ?V0 + 2,?V0 + 10
        MOV     ?V0 + 3,?V0 + 11
        MOV     DPTR,#R0_MQ7
        MOV     R0,#?V0 + 12
        LCALL   ?L_MOV_X
        MOV     R0,#?V0 + 0
        MOV     R1,#?V0 + 12
        LCALL   ?FLT_DIV
        MOV     DPTR,#__Constant_3fd33334
        MOV     R0,#?V0 + 12
        LCALL   ?L_MOV_X
        MOV     R0,#?V0 + 0
        MOV     R1,#?V0 + 12
        LCALL   ?FLT_GE
        JNC     ??SendData_MQ7_1
        MOV     DPTR,#SensorsData + 14
        MOV     A,#0x30
        MOVX    @DPTR,A
        INC     DPTR
        MOVX    @DPTR,A
        INC     DPTR
        MOVX    @DPTR,A
        LJMP    ??CrossCallReturnLabel_43 & 0xFFFF
??SendData_MQ7_1:
        MOV     ?V0 + 0,?V0 + 8
        MOV     ?V0 + 1,?V0 + 9
        MOV     ?V0 + 2,?V0 + 10
        MOV     ?V0 + 3,?V0 + 11
        MOV     DPTR,#R0_MQ7
        MOV     R0,#?V0 + 12
        LCALL   ?L_MOV_X
        MOV     R0,#?V0 + 0
        MOV     R1,#?V0 + 12
        LCALL   ?FLT_DIV
        MOV     DPTR,#__Constant_3f800001
        MOV     R0,#?V0 + 12
        LCALL   ?L_MOV_X
        MOV     R0,#?V0 + 0
        MOV     R1,#?V0 + 12
        LCALL   ?FLT_GE
        JC      $+5
        LJMP    ??SendData_MQ7_2 & 0xFFFF
        MOV     ?V0 + 4,?V0 + 8
        MOV     ?V0 + 5,?V0 + 9
        MOV     ?V0 + 6,?V0 + 10
        MOV     ?V0 + 7,?V0 + 11
        MOV     DPTR,#R0_MQ7
        MOV     R0,#?V0 + 0
        LCALL   ?L_MOV_X
        MOV     R0,#?V0 + 4
        MOV     R1,#?V0 + 0
        LCALL   ?FLT_DIV
        MOV     DPTR,#__Constant_42480000
        MOV     R0,#?V0 + 0
        LCALL   ?L_MOV_X
        MOV     R0,#?V0 + 4
        MOV     R1,#?V0 + 0
        LCALL   ?FLT_MUL
        MOV     DPTR,#__Constant_bf266666
        MOV     R0,#?V0 + 0
        LCALL   ?L_MOV_X
        MOV     R0,#?V0 + 4
        MOV     R1,#?V0 + 0
        LCALL   ?FLT_DIV
        MOV     DPTR,#__Constant_42480000
        MOV     R0,#?V0 + 0
        LCALL   ?L_MOV_X
        MOV     R0,#?V0 + 4
        MOV     R1,#?V0 + 0
        LCALL   ?FLT_ADD
??SendData_MQ7_3:
        MOV     ?V0 + 0,?V0 + 8
        MOV     ?V0 + 1,?V0 + 9
        MOV     ?V0 + 2,?V0 + 10
        MOV     ?V0 + 3,?V0 + 11
        MOV     DPTR,#R0_MQ7
        MOV     R0,#?V0 + 12
        LCALL   ?L_MOV_X
        MOV     R0,#?V0 + 0
        MOV     R1,#?V0 + 12
        LCALL   ?FLT_DIV
        MOV     DPTR,#__Constant_3e6147af
        MOV     R0,#?V0 + 12
        LCALL   ?L_MOV_X
        MOV     R0,#?V0 + 0
        MOV     R1,#?V0 + 12
        LCALL   ?FLT_GE
        JC      $+5
        LJMP    ??SendData_MQ7_4 & 0xFFFF
        MOV     ?V0 + 0,?V0 + 8
        MOV     ?V0 + 1,?V0 + 9
        MOV     ?V0 + 2,?V0 + 10
        MOV     ?V0 + 3,?V0 + 11
        MOV     DPTR,#R0_MQ7
        MOV     R0,#?V0 + 12
        LCALL   ?L_MOV_X
        MOV     R0,#?V0 + 0
        MOV     R1,#?V0 + 12
        LCALL   ?FLT_DIV
        MOV     DPTR,#__Constant_3ec28f5d
        MOV     R0,#?V0 + 12
        LCALL   ?L_MOV_X
        MOV     R0,#?V0 + 0
        MOV     R1,#?V0 + 12
        LCALL   ?FLT_LT
        JC      $+5
        LJMP    ??SendData_MQ7_5 & 0xFFFF
        MOV     ?V0 + 4,?V0 + 8
        MOV     ?V0 + 5,?V0 + 9
        MOV     ?V0 + 6,?V0 + 10
        MOV     ?V0 + 7,?V0 + 11
        MOV     DPTR,#R0_MQ7
        MOV     R0,#?V0 + 0
        LCALL   ?L_MOV_X
        MOV     R0,#?V0 + 4
        MOV     R1,#?V0 + 0
        LCALL   ?FLT_DIV
        MOV     DPTR,#__Constant_44160000
        MOV     R0,#?V0 + 0
        LCALL   ?L_MOV_X
        MOV     R0,#?V0 + 4
        MOV     R1,#?V0 + 0
        LCALL   ?FLT_MUL
        MOV     DPTR,#__Constant_be23d70a
        MOV     R0,#?V0 + 0
        LCALL   ?L_MOV_X
        MOV     R0,#?V0 + 4
        MOV     R1,#?V0 + 0
        LCALL   ?FLT_DIV
        MOV     DPTR,#__Constant_447a0000
        LJMP    ??SendData_MQ7_6 & 0xFFFF
??SendData_MQ7_2:
        MOV     ?V0 + 0,?V0 + 8
        MOV     ?V0 + 1,?V0 + 9
        MOV     ?V0 + 2,?V0 + 10
        MOV     ?V0 + 3,?V0 + 11
        MOV     DPTR,#R0_MQ7
        MOV     R0,#?V0 + 12
        LCALL   ?L_MOV_X
        MOV     R0,#?V0 + 0
        MOV     R1,#?V0 + 12
        LCALL   ?FLT_DIV
        MOV     DPTR,#__Constant_3ec28f5d
        MOV     R0,#?V0 + 12
        LCALL   ?L_MOV_X
        MOV     R0,#?V0 + 0
        MOV     R1,#?V0 + 12
        LCALL   ?FLT_GE
        JC      $+5
        LJMP    ??SendData_MQ7_3 & 0xFFFF
        MOV     ?V0 + 4,?V0 + 8
        MOV     ?V0 + 5,?V0 + 9
        MOV     ?V0 + 6,?V0 + 10
        MOV     ?V0 + 7,?V0 + 11
        MOV     DPTR,#R0_MQ7
        MOV     R0,#?V0 + 0
        LCALL   ?L_MOV_X
        MOV     R0,#?V0 + 4
        MOV     R1,#?V0 + 0
        LCALL   ?FLT_DIV
        MOV     DPTR,#__Constant_43960000
        MOV     R0,#?V0 + 0
        LCALL   ?L_MOV_X
        MOV     R0,#?V0 + 4
        MOV     R1,#?V0 + 0
        LCALL   ?FLT_MUL
        MOV     DPTR,#__Constant_bf1eb852
        MOV     R0,#?V0 + 0
        LCALL   ?L_MOV_X
        MOV     R0,#?V0 + 4
        MOV     R1,#?V0 + 0
        LCALL   ?FLT_DIV
        MOV     DPTR,#__Constant_43c80000
        MOV     R0,#?V0 + 0
        LCALL   ?L_MOV_X
        MOV     R0,#?V0 + 4
        MOV     R1,#?V0 + 0
        LCALL   ?FLT_ADD
??SendData_MQ7_4:
        MOV     ?V0 + 0,?V0 + 8
        MOV     ?V0 + 1,?V0 + 9
        MOV     ?V0 + 2,?V0 + 10
        MOV     ?V0 + 3,?V0 + 11
        MOV     DPTR,#R0_MQ7
        MOV     R0,#?V0 + 12
        LCALL   ?L_MOV_X
        MOV     R0,#?V0 + 0
        MOV     R1,#?V0 + 12
        LCALL   ?FLT_DIV
        MOV     DPTR,#__Constant_3dc28f5d
        MOV     R0,#?V0 + 12
        LCALL   ?L_MOV_X
        MOV     R0,#?V0 + 0
        MOV     R1,#?V0 + 12
        LCALL   ?FLT_GE
        JNC     ??SendData_MQ7_5
        MOV     ?V0 + 0,?V0 + 8
        MOV     ?V0 + 1,?V0 + 9
        MOV     ?V0 + 2,?V0 + 10
        MOV     ?V0 + 3,?V0 + 11
        MOV     DPTR,#R0_MQ7
        MOV     R0,#?V0 + 12
        LCALL   ?L_MOV_X
        MOV     R0,#?V0 + 0
        MOV     R1,#?V0 + 12
        LCALL   ?FLT_DIV
        MOV     DPTR,#__Constant_3e6147af
        MOV     R0,#?V0 + 12
        LCALL   ?L_MOV_X
        MOV     R0,#?V0 + 0
        MOV     R1,#?V0 + 12
        LCALL   ?FLT_LT
        JNC     ??SendData_MQ7_5
        MOV     ?V0 + 4,?V0 + 8
        MOV     ?V0 + 5,?V0 + 9
        MOV     ?V0 + 6,?V0 + 10
        MOV     ?V0 + 7,?V0 + 11
        MOV     DPTR,#R0_MQ7
        MOV     R0,#?V0 + 0
        LCALL   ?L_MOV_X
        MOV     R0,#?V0 + 4
        MOV     R1,#?V0 + 0
        LCALL   ?FLT_DIV
        MOV     DPTR,#__Constant_c6bb8000
        MOV     R0,#?V0 + 0
        LCALL   ?L_MOV_X
        MOV     R0,#?V0 + 4
        MOV     R1,#?V0 + 0
        LCALL   ?FLT_MUL
        MOV     DPTR,#__Constant_457a0000
??SendData_MQ7_6:
        MOV     R0,#?V0 + 0
        LCALL   ?L_MOV_X
        MOV     R0,#?V0 + 4
        MOV     R1,#?V0 + 0
        LCALL   ?FLT_ADD
??SendData_MQ7_5:
        MOV     R0,#?V0 + 4
        LCALL   ?FLT_TO_L
        MOV     R4,?V0 + 4
        MOV     R5,?V0 + 5
        MOV     A,R4
        MOV     R0,A
        MOV     A,R5
        MOV     R1,A
        MOV     R2,#-0x18
        MOV     R3,#0x3
        LCALL   ?S_DIV_MOD
        LCALL   ?Subroutine20 & 0xFFFF
??CrossCallReturnLabel_74:
        LCALL   ?S_DIV_MOD
        MOV     R2,#0xa
        MOV     R3,#0x0
        LCALL   ?S_DIV_MOD
        LCALL   ?Subroutine29 & 0xFFFF
??CrossCallReturnLabel_56:
        LCALL   ?XSTACK_DISP0_8
        MOV     A,R6
        LCALL   ??Subroutine39_0 & 0xFFFF
??CrossCallReturnLabel_77:
        LCALL   ?S_DIV_MOD
        MOV     A,R2
        MOV     R0,A
        MOV     A,R3
        MOV     R1,A
        MOV     R2,#0xa
        MOV     R3,#0x0
        LCALL   ?S_DIV_MOD
        MOV     A,R0
        ADD     A,#0x30
        MOV     R7,A
        MOV     A,#0x2
        LCALL   ?XSTACK_DISP0_8
        MOV     A,R7
        LCALL   ??Subroutine41_0 & 0xFFFF
??CrossCallReturnLabel_86:
        LCALL   ?S_DIV_MOD
        MOV     A,R2
        ADD     A,#0x30
        MOV     R0,A
        MOV     A,#0x3
        LCALL   ?XSTACK_DISP0_8
        LCALL   ?Subroutine21 & 0xFFFF
??CrossCallReturnLabel_70:
        MOV     DPTR,#SensorsData + 14
        LCALL   ?Subroutine26 & 0xFFFF
??CrossCallReturnLabel_43:
        INC     DPTR
        MOVX    @DPTR,A
        MOV     A,#0x4
        LJMP    ?Subroutine3 & 0xFFFF
          CFI EndBlock cfiBlock85

        RSEG BANKED_CODE:CODE:NOROOT(0)
?Subroutine29:
          CFI Block cfiCond86 Using cfiCommon0
          CFI Function SendData_MS1100
          CFI Conditional ??CrossCallReturnLabel_54
          CFI R6 load(1, XDATA, add(CFA_XSP16, literal(-24)))
          CFI VB load(1, XDATA, add(CFA_XSP16, literal(-23)))
          CFI V0 load(1, XDATA, add(CFA_XSP16, literal(-22)))
          CFI V1 load(1, XDATA, add(CFA_XSP16, literal(-21)))
          CFI V2 load(1, XDATA, add(CFA_XSP16, literal(-20)))
          CFI V3 load(1, XDATA, add(CFA_XSP16, literal(-19)))
          CFI V4 load(1, XDATA, add(CFA_XSP16, literal(-18)))
          CFI V5 load(1, XDATA, add(CFA_XSP16, literal(-17)))
          CFI V6 load(1, XDATA, add(CFA_XSP16, literal(-16)))
          CFI V7 load(1, XDATA, add(CFA_XSP16, literal(-15)))
          CFI V8 load(1, XDATA, add(CFA_XSP16, literal(-14)))
          CFI V9 load(1, XDATA, add(CFA_XSP16, literal(-13)))
          CFI V10 load(1, XDATA, add(CFA_XSP16, literal(-12)))
          CFI V11 load(1, XDATA, add(CFA_XSP16, literal(-11)))
          CFI V12 load(1, XDATA, add(CFA_XSP16, literal(-10)))
          CFI V13 load(1, XDATA, add(CFA_XSP16, literal(-9)))
          CFI V14 load(1, XDATA, add(CFA_XSP16, literal(-8)))
          CFI V15 load(1, XDATA, add(CFA_XSP16, literal(-7)))
          CFI R7 load(1, XDATA, add(CFA_XSP16, literal(-6)))
          CFI ?RET_LOW load(1, XDATA, add(CFA_XSP16, literal(-5)))
          CFI ?RET_HIGH load(1, XDATA, add(CFA_XSP16, literal(-4)))
          CFI ?BRET_EXT load(1, XDATA, add(CFA_XSP16, literal(-3)))
          CFI DPL0 load(1, XDATA, add(CFA_XSP16, literal(-2)))
          CFI DPH0 load(1, XDATA, add(CFA_XSP16, literal(-1)))
          CFI CFA_SP SP+0
          CFI CFA_XSP16 add(XSP16, 27)
          CFI Block cfiCond87 Using cfiCommon0
          CFI (cfiCond87) Function SendData_TGS4161
          CFI (cfiCond87) Conditional ??CrossCallReturnLabel_55
          CFI (cfiCond87) R6 load(1, XDATA, add(CFA_XSP16, literal(-18)))
          CFI (cfiCond87) VB load(1, XDATA, add(CFA_XSP16, literal(-17)))
          CFI (cfiCond87) V0 load(1, XDATA, add(CFA_XSP16, literal(-16)))
          CFI (cfiCond87) V1 load(1, XDATA, add(CFA_XSP16, literal(-15)))
          CFI (cfiCond87) V2 load(1, XDATA, add(CFA_XSP16, literal(-14)))
          CFI (cfiCond87) V3 load(1, XDATA, add(CFA_XSP16, literal(-13)))
          CFI (cfiCond87) V4 load(1, XDATA, add(CFA_XSP16, literal(-12)))
          CFI (cfiCond87) V5 load(1, XDATA, add(CFA_XSP16, literal(-11)))
          CFI (cfiCond87) V6 load(1, XDATA, add(CFA_XSP16, literal(-10)))
          CFI (cfiCond87) V7 load(1, XDATA, add(CFA_XSP16, literal(-9)))
          CFI (cfiCond87) V8 load(1, XDATA, add(CFA_XSP16, literal(-8)))
          CFI (cfiCond87) V9 load(1, XDATA, add(CFA_XSP16, literal(-7)))
          CFI (cfiCond87) R7 load(1, XDATA, add(CFA_XSP16, literal(-6)))
          CFI (cfiCond87) ?RET_LOW load(1, XDATA, add(CFA_XSP16, literal(-5)))
          CFI (cfiCond87) ?RET_HIGH load(1, XDATA, add(CFA_XSP16, literal(-4)))
          CFI (cfiCond87) ?BRET_EXT load(1, XDATA, add(CFA_XSP16, literal(-3)))
          CFI (cfiCond87) DPL0 load(1, XDATA, add(CFA_XSP16, literal(-2)))
          CFI (cfiCond87) DPH0 load(1, XDATA, add(CFA_XSP16, literal(-1)))
          CFI (cfiCond87) CFA_SP SP+0
          CFI (cfiCond87) CFA_XSP16 add(XSP16, 22)
          CFI Block cfiCond88 Using cfiCommon0
          CFI (cfiCond88) Function SendData_MQ7
          CFI (cfiCond88) Conditional ??CrossCallReturnLabel_56
          CFI (cfiCond88) R6 load(1, XDATA, add(CFA_XSP16, literal(-24)))
          CFI (cfiCond88) VB load(1, XDATA, add(CFA_XSP16, literal(-23)))
          CFI (cfiCond88) V0 load(1, XDATA, add(CFA_XSP16, literal(-22)))
          CFI (cfiCond88) V1 load(1, XDATA, add(CFA_XSP16, literal(-21)))
          CFI (cfiCond88) V2 load(1, XDATA, add(CFA_XSP16, literal(-20)))
          CFI (cfiCond88) V3 load(1, XDATA, add(CFA_XSP16, literal(-19)))
          CFI (cfiCond88) V4 load(1, XDATA, add(CFA_XSP16, literal(-18)))
          CFI (cfiCond88) V5 load(1, XDATA, add(CFA_XSP16, literal(-17)))
          CFI (cfiCond88) V6 load(1, XDATA, add(CFA_XSP16, literal(-16)))
          CFI (cfiCond88) V7 load(1, XDATA, add(CFA_XSP16, literal(-15)))
          CFI (cfiCond88) V8 load(1, XDATA, add(CFA_XSP16, literal(-14)))
          CFI (cfiCond88) V9 load(1, XDATA, add(CFA_XSP16, literal(-13)))
          CFI (cfiCond88) V10 load(1, XDATA, add(CFA_XSP16, literal(-12)))
          CFI (cfiCond88) V11 load(1, XDATA, add(CFA_XSP16, literal(-11)))
          CFI (cfiCond88) V12 load(1, XDATA, add(CFA_XSP16, literal(-10)))
          CFI (cfiCond88) V13 load(1, XDATA, add(CFA_XSP16, literal(-9)))
          CFI (cfiCond88) V14 load(1, XDATA, add(CFA_XSP16, literal(-8)))
          CFI (cfiCond88) V15 load(1, XDATA, add(CFA_XSP16, literal(-7)))
          CFI (cfiCond88) R7 load(1, XDATA, add(CFA_XSP16, literal(-6)))
          CFI (cfiCond88) ?RET_LOW load(1, XDATA, add(CFA_XSP16, literal(-5)))
          CFI (cfiCond88) ?RET_HIGH load(1, XDATA, add(CFA_XSP16, literal(-4)))
          CFI (cfiCond88) ?BRET_EXT load(1, XDATA, add(CFA_XSP16, literal(-3)))
          CFI (cfiCond88) DPL0 load(1, XDATA, add(CFA_XSP16, literal(-2)))
          CFI (cfiCond88) DPH0 load(1, XDATA, add(CFA_XSP16, literal(-1)))
          CFI (cfiCond88) CFA_SP SP+0
          CFI (cfiCond88) CFA_XSP16 add(XSP16, 28)
          CFI Block cfiCond89 Using cfiCommon0
          CFI (cfiCond89) Function SendData_PM25
          CFI (cfiCond89) Conditional ??CrossCallReturnLabel_57
          CFI (cfiCond89) R6 load(1, XDATA, add(CFA_XSP16, literal(-16)))
          CFI (cfiCond89) VB load(1, XDATA, add(CFA_XSP16, literal(-15)))
          CFI (cfiCond89) V0 load(1, XDATA, add(CFA_XSP16, literal(-14)))
          CFI (cfiCond89) V1 load(1, XDATA, add(CFA_XSP16, literal(-13)))
          CFI (cfiCond89) V2 load(1, XDATA, add(CFA_XSP16, literal(-12)))
          CFI (cfiCond89) V3 load(1, XDATA, add(CFA_XSP16, literal(-11)))
          CFI (cfiCond89) V4 load(1, XDATA, add(CFA_XSP16, literal(-10)))
          CFI (cfiCond89) V5 load(1, XDATA, add(CFA_XSP16, literal(-9)))
          CFI (cfiCond89) V6 load(1, XDATA, add(CFA_XSP16, literal(-8)))
          CFI (cfiCond89) V7 load(1, XDATA, add(CFA_XSP16, literal(-7)))
          CFI (cfiCond89) R7 load(1, XDATA, add(CFA_XSP16, literal(-6)))
          CFI (cfiCond89) ?RET_LOW load(1, XDATA, add(CFA_XSP16, literal(-5)))
          CFI (cfiCond89) ?RET_HIGH load(1, XDATA, add(CFA_XSP16, literal(-4)))
          CFI (cfiCond89) ?BRET_EXT load(1, XDATA, add(CFA_XSP16, literal(-3)))
          CFI (cfiCond89) DPL0 load(1, XDATA, add(CFA_XSP16, literal(-2)))
          CFI (cfiCond89) DPH0 load(1, XDATA, add(CFA_XSP16, literal(-1)))
          CFI (cfiCond89) CFA_SP SP+0
          CFI (cfiCond89) CFA_XSP16 add(XSP16, 19)
          CFI Block cfiPicker90 Using cfiCommon1
          CFI (cfiPicker90) NoFunction
          CFI (cfiPicker90) Picker
        MOV     A,R2
        ADD     A,#0x30
        MOV     R6,A
        MOV     A,#0x1
        RET
          CFI EndBlock cfiCond86
          CFI EndBlock cfiCond87
          CFI EndBlock cfiCond88
          CFI EndBlock cfiCond89
          CFI EndBlock cfiPicker90

        RSEG BANKED_CODE:CODE:NOROOT(0)
?Subroutine26:
          CFI Block cfiCond91 Using cfiCommon0
          CFI Function SendData_TGS4161
          CFI Conditional ??CrossCallReturnLabel_42
          CFI R6 load(1, XDATA, add(CFA_XSP16, literal(-18)))
          CFI VB load(1, XDATA, add(CFA_XSP16, literal(-17)))
          CFI V0 load(1, XDATA, add(CFA_XSP16, literal(-16)))
          CFI V1 load(1, XDATA, add(CFA_XSP16, literal(-15)))
          CFI V2 load(1, XDATA, add(CFA_XSP16, literal(-14)))
          CFI V3 load(1, XDATA, add(CFA_XSP16, literal(-13)))
          CFI V4 load(1, XDATA, add(CFA_XSP16, literal(-12)))
          CFI V5 load(1, XDATA, add(CFA_XSP16, literal(-11)))
          CFI V6 load(1, XDATA, add(CFA_XSP16, literal(-10)))
          CFI V7 load(1, XDATA, add(CFA_XSP16, literal(-9)))
          CFI V8 load(1, XDATA, add(CFA_XSP16, literal(-8)))
          CFI V9 load(1, XDATA, add(CFA_XSP16, literal(-7)))
          CFI R7 load(1, XDATA, add(CFA_XSP16, literal(-6)))
          CFI ?RET_LOW load(1, XDATA, add(CFA_XSP16, literal(-5)))
          CFI ?RET_HIGH load(1, XDATA, add(CFA_XSP16, literal(-4)))
          CFI ?BRET_EXT load(1, XDATA, add(CFA_XSP16, literal(-3)))
          CFI DPL0 load(1, XDATA, add(CFA_XSP16, literal(-2)))
          CFI DPH0 load(1, XDATA, add(CFA_XSP16, literal(-1)))
          CFI CFA_SP SP+0
          CFI CFA_XSP16 add(XSP16, 22)
          CFI Block cfiCond92 Using cfiCommon0
          CFI (cfiCond92) Function SendData_MQ7
          CFI (cfiCond92) Conditional ??CrossCallReturnLabel_43
          CFI (cfiCond92) R6 load(1, XDATA, add(CFA_XSP16, literal(-24)))
          CFI (cfiCond92) VB load(1, XDATA, add(CFA_XSP16, literal(-23)))
          CFI (cfiCond92) V0 load(1, XDATA, add(CFA_XSP16, literal(-22)))
          CFI (cfiCond92) V1 load(1, XDATA, add(CFA_XSP16, literal(-21)))
          CFI (cfiCond92) V2 load(1, XDATA, add(CFA_XSP16, literal(-20)))
          CFI (cfiCond92) V3 load(1, XDATA, add(CFA_XSP16, literal(-19)))
          CFI (cfiCond92) V4 load(1, XDATA, add(CFA_XSP16, literal(-18)))
          CFI (cfiCond92) V5 load(1, XDATA, add(CFA_XSP16, literal(-17)))
          CFI (cfiCond92) V6 load(1, XDATA, add(CFA_XSP16, literal(-16)))
          CFI (cfiCond92) V7 load(1, XDATA, add(CFA_XSP16, literal(-15)))
          CFI (cfiCond92) V8 load(1, XDATA, add(CFA_XSP16, literal(-14)))
          CFI (cfiCond92) V9 load(1, XDATA, add(CFA_XSP16, literal(-13)))
          CFI (cfiCond92) V10 load(1, XDATA, add(CFA_XSP16, literal(-12)))
          CFI (cfiCond92) V11 load(1, XDATA, add(CFA_XSP16, literal(-11)))
          CFI (cfiCond92) V12 load(1, XDATA, add(CFA_XSP16, literal(-10)))
          CFI (cfiCond92) V13 load(1, XDATA, add(CFA_XSP16, literal(-9)))
          CFI (cfiCond92) V14 load(1, XDATA, add(CFA_XSP16, literal(-8)))
          CFI (cfiCond92) V15 load(1, XDATA, add(CFA_XSP16, literal(-7)))
          CFI (cfiCond92) R7 load(1, XDATA, add(CFA_XSP16, literal(-6)))
          CFI (cfiCond92) ?RET_LOW load(1, XDATA, add(CFA_XSP16, literal(-5)))
          CFI (cfiCond92) ?RET_HIGH load(1, XDATA, add(CFA_XSP16, literal(-4)))
          CFI (cfiCond92) ?BRET_EXT load(1, XDATA, add(CFA_XSP16, literal(-3)))
          CFI (cfiCond92) DPL0 load(1, XDATA, add(CFA_XSP16, literal(-2)))
          CFI (cfiCond92) DPH0 load(1, XDATA, add(CFA_XSP16, literal(-1)))
          CFI (cfiCond92) CFA_SP SP+0
          CFI (cfiCond92) CFA_XSP16 add(XSP16, 28)
          CFI Block cfiPicker93 Using cfiCommon1
          CFI (cfiPicker93) NoFunction
          CFI (cfiPicker93) Picker
        MOVX    @DPTR,A
        MOV     A,R6
        INC     DPTR
        MOVX    @DPTR,A
        MOV     A,R7
        INC     DPTR
        MOVX    @DPTR,A
        MOV     A,R0
        RET
          CFI EndBlock cfiCond91
          CFI EndBlock cfiCond92
          CFI EndBlock cfiPicker93

        RSEG BANKED_CODE:CODE:NOROOT(0)
?Subroutine20:
          CFI Block cfiCond94 Using cfiCommon0
          CFI Function SendData_TGS4161
          CFI Conditional ??CrossCallReturnLabel_73
          CFI R6 load(1, XDATA, add(CFA_XSP16, literal(-18)))
          CFI VB load(1, XDATA, add(CFA_XSP16, literal(-17)))
          CFI V0 load(1, XDATA, add(CFA_XSP16, literal(-16)))
          CFI V1 load(1, XDATA, add(CFA_XSP16, literal(-15)))
          CFI V2 load(1, XDATA, add(CFA_XSP16, literal(-14)))
          CFI V3 load(1, XDATA, add(CFA_XSP16, literal(-13)))
          CFI V4 load(1, XDATA, add(CFA_XSP16, literal(-12)))
          CFI V5 load(1, XDATA, add(CFA_XSP16, literal(-11)))
          CFI V6 load(1, XDATA, add(CFA_XSP16, literal(-10)))
          CFI V7 load(1, XDATA, add(CFA_XSP16, literal(-9)))
          CFI V8 load(1, XDATA, add(CFA_XSP16, literal(-8)))
          CFI V9 load(1, XDATA, add(CFA_XSP16, literal(-7)))
          CFI R7 load(1, XDATA, add(CFA_XSP16, literal(-6)))
          CFI ?RET_LOW load(1, XDATA, add(CFA_XSP16, literal(-5)))
          CFI ?RET_HIGH load(1, XDATA, add(CFA_XSP16, literal(-4)))
          CFI ?BRET_EXT load(1, XDATA, add(CFA_XSP16, literal(-3)))
          CFI DPL0 load(1, XDATA, add(CFA_XSP16, literal(-2)))
          CFI DPH0 load(1, XDATA, add(CFA_XSP16, literal(-1)))
          CFI CFA_SP SP+0
          CFI CFA_XSP16 add(XSP16, 22)
          CFI Block cfiCond95 Using cfiCommon0
          CFI (cfiCond95) Function SendData_MQ7
          CFI (cfiCond95) Conditional ??CrossCallReturnLabel_74
          CFI (cfiCond95) R6 load(1, XDATA, add(CFA_XSP16, literal(-24)))
          CFI (cfiCond95) VB load(1, XDATA, add(CFA_XSP16, literal(-23)))
          CFI (cfiCond95) V0 load(1, XDATA, add(CFA_XSP16, literal(-22)))
          CFI (cfiCond95) V1 load(1, XDATA, add(CFA_XSP16, literal(-21)))
          CFI (cfiCond95) V2 load(1, XDATA, add(CFA_XSP16, literal(-20)))
          CFI (cfiCond95) V3 load(1, XDATA, add(CFA_XSP16, literal(-19)))
          CFI (cfiCond95) V4 load(1, XDATA, add(CFA_XSP16, literal(-18)))
          CFI (cfiCond95) V5 load(1, XDATA, add(CFA_XSP16, literal(-17)))
          CFI (cfiCond95) V6 load(1, XDATA, add(CFA_XSP16, literal(-16)))
          CFI (cfiCond95) V7 load(1, XDATA, add(CFA_XSP16, literal(-15)))
          CFI (cfiCond95) V8 load(1, XDATA, add(CFA_XSP16, literal(-14)))
          CFI (cfiCond95) V9 load(1, XDATA, add(CFA_XSP16, literal(-13)))
          CFI (cfiCond95) V10 load(1, XDATA, add(CFA_XSP16, literal(-12)))
          CFI (cfiCond95) V11 load(1, XDATA, add(CFA_XSP16, literal(-11)))
          CFI (cfiCond95) V12 load(1, XDATA, add(CFA_XSP16, literal(-10)))
          CFI (cfiCond95) V13 load(1, XDATA, add(CFA_XSP16, literal(-9)))
          CFI (cfiCond95) V14 load(1, XDATA, add(CFA_XSP16, literal(-8)))
          CFI (cfiCond95) V15 load(1, XDATA, add(CFA_XSP16, literal(-7)))
          CFI (cfiCond95) R7 load(1, XDATA, add(CFA_XSP16, literal(-6)))
          CFI (cfiCond95) ?RET_LOW load(1, XDATA, add(CFA_XSP16, literal(-5)))
          CFI (cfiCond95) ?RET_HIGH load(1, XDATA, add(CFA_XSP16, literal(-4)))
          CFI (cfiCond95) ?BRET_EXT load(1, XDATA, add(CFA_XSP16, literal(-3)))
          CFI (cfiCond95) DPL0 load(1, XDATA, add(CFA_XSP16, literal(-2)))
          CFI (cfiCond95) DPH0 load(1, XDATA, add(CFA_XSP16, literal(-1)))
          CFI (cfiCond95) CFA_SP SP+0
          CFI (cfiCond95) CFA_XSP16 add(XSP16, 28)
          CFI Block cfiCond96 Using cfiCommon0
          CFI (cfiCond96) Function SendData_TGS813
          CFI (cfiCond96) Conditional ??CrossCallReturnLabel_75
          CFI (cfiCond96) R6 load(1, XDATA, add(CFA_XSP16, literal(-20)))
          CFI (cfiCond96) VB load(1, XDATA, add(CFA_XSP16, literal(-19)))
          CFI (cfiCond96) V0 load(1, XDATA, add(CFA_XSP16, literal(-18)))
          CFI (cfiCond96) V1 load(1, XDATA, add(CFA_XSP16, literal(-17)))
          CFI (cfiCond96) V2 load(1, XDATA, add(CFA_XSP16, literal(-16)))
          CFI (cfiCond96) V3 load(1, XDATA, add(CFA_XSP16, literal(-15)))
          CFI (cfiCond96) V4 load(1, XDATA, add(CFA_XSP16, literal(-14)))
          CFI (cfiCond96) V5 load(1, XDATA, add(CFA_XSP16, literal(-13)))
          CFI (cfiCond96) V6 load(1, XDATA, add(CFA_XSP16, literal(-12)))
          CFI (cfiCond96) V7 load(1, XDATA, add(CFA_XSP16, literal(-11)))
          CFI (cfiCond96) V8 load(1, XDATA, add(CFA_XSP16, literal(-10)))
          CFI (cfiCond96) V9 load(1, XDATA, add(CFA_XSP16, literal(-9)))
          CFI (cfiCond96) V10 load(1, XDATA, add(CFA_XSP16, literal(-8)))
          CFI (cfiCond96) V11 load(1, XDATA, add(CFA_XSP16, literal(-7)))
          CFI (cfiCond96) R7 load(1, XDATA, add(CFA_XSP16, literal(-6)))
          CFI (cfiCond96) ?RET_LOW load(1, XDATA, add(CFA_XSP16, literal(-5)))
          CFI (cfiCond96) ?RET_HIGH load(1, XDATA, add(CFA_XSP16, literal(-4)))
          CFI (cfiCond96) ?BRET_EXT load(1, XDATA, add(CFA_XSP16, literal(-3)))
          CFI (cfiCond96) DPL0 load(1, XDATA, add(CFA_XSP16, literal(-2)))
          CFI (cfiCond96) DPH0 load(1, XDATA, add(CFA_XSP16, literal(-1)))
          CFI (cfiCond96) CFA_SP SP+0
          CFI (cfiCond96) CFA_XSP16 add(XSP16, 24)
          CFI Block cfiPicker97 Using cfiCommon1
          CFI (cfiPicker97) NoFunction
          CFI (cfiPicker97) Picker
        LCALL   ?Subroutine36 & 0xFFFF
          CFI EndBlock cfiCond94
          CFI EndBlock cfiCond95
          CFI EndBlock cfiCond96
          CFI EndBlock cfiPicker97
??CrossCallReturnLabel_81:
        REQUIRE ??Subroutine39_0
        ; // Fall through to label ??Subroutine39_0

        RSEG BANKED_CODE:CODE:NOROOT(0)
??Subroutine39_0:
          CFI Block cfiCond98 Using cfiCommon0
          CFI Function SendData_TGS4161
          CFI Conditional ??CrossCallReturnLabel_76
          CFI R6 load(1, XDATA, add(CFA_XSP16, literal(-18)))
          CFI VB load(1, XDATA, add(CFA_XSP16, literal(-17)))
          CFI V0 load(1, XDATA, add(CFA_XSP16, literal(-16)))
          CFI V1 load(1, XDATA, add(CFA_XSP16, literal(-15)))
          CFI V2 load(1, XDATA, add(CFA_XSP16, literal(-14)))
          CFI V3 load(1, XDATA, add(CFA_XSP16, literal(-13)))
          CFI V4 load(1, XDATA, add(CFA_XSP16, literal(-12)))
          CFI V5 load(1, XDATA, add(CFA_XSP16, literal(-11)))
          CFI V6 load(1, XDATA, add(CFA_XSP16, literal(-10)))
          CFI V7 load(1, XDATA, add(CFA_XSP16, literal(-9)))
          CFI V8 load(1, XDATA, add(CFA_XSP16, literal(-8)))
          CFI V9 load(1, XDATA, add(CFA_XSP16, literal(-7)))
          CFI R7 load(1, XDATA, add(CFA_XSP16, literal(-6)))
          CFI ?RET_LOW load(1, XDATA, add(CFA_XSP16, literal(-5)))
          CFI ?RET_HIGH load(1, XDATA, add(CFA_XSP16, literal(-4)))
          CFI ?BRET_EXT load(1, XDATA, add(CFA_XSP16, literal(-3)))
          CFI DPL0 load(1, XDATA, add(CFA_XSP16, literal(-2)))
          CFI DPH0 load(1, XDATA, add(CFA_XSP16, literal(-1)))
          CFI CFA_SP SP+0
          CFI CFA_XSP16 add(XSP16, 22)
          CFI Block cfiCond99 Using cfiCommon0
          CFI (cfiCond99) Function SendData_MQ7
          CFI (cfiCond99) Conditional ??CrossCallReturnLabel_77
          CFI (cfiCond99) R6 load(1, XDATA, add(CFA_XSP16, literal(-24)))
          CFI (cfiCond99) VB load(1, XDATA, add(CFA_XSP16, literal(-23)))
          CFI (cfiCond99) V0 load(1, XDATA, add(CFA_XSP16, literal(-22)))
          CFI (cfiCond99) V1 load(1, XDATA, add(CFA_XSP16, literal(-21)))
          CFI (cfiCond99) V2 load(1, XDATA, add(CFA_XSP16, literal(-20)))
          CFI (cfiCond99) V3 load(1, XDATA, add(CFA_XSP16, literal(-19)))
          CFI (cfiCond99) V4 load(1, XDATA, add(CFA_XSP16, literal(-18)))
          CFI (cfiCond99) V5 load(1, XDATA, add(CFA_XSP16, literal(-17)))
          CFI (cfiCond99) V6 load(1, XDATA, add(CFA_XSP16, literal(-16)))
          CFI (cfiCond99) V7 load(1, XDATA, add(CFA_XSP16, literal(-15)))
          CFI (cfiCond99) V8 load(1, XDATA, add(CFA_XSP16, literal(-14)))
          CFI (cfiCond99) V9 load(1, XDATA, add(CFA_XSP16, literal(-13)))
          CFI (cfiCond99) V10 load(1, XDATA, add(CFA_XSP16, literal(-12)))
          CFI (cfiCond99) V11 load(1, XDATA, add(CFA_XSP16, literal(-11)))
          CFI (cfiCond99) V12 load(1, XDATA, add(CFA_XSP16, literal(-10)))
          CFI (cfiCond99) V13 load(1, XDATA, add(CFA_XSP16, literal(-9)))
          CFI (cfiCond99) V14 load(1, XDATA, add(CFA_XSP16, literal(-8)))
          CFI (cfiCond99) V15 load(1, XDATA, add(CFA_XSP16, literal(-7)))
          CFI (cfiCond99) R7 load(1, XDATA, add(CFA_XSP16, literal(-6)))
          CFI (cfiCond99) ?RET_LOW load(1, XDATA, add(CFA_XSP16, literal(-5)))
          CFI (cfiCond99) ?RET_HIGH load(1, XDATA, add(CFA_XSP16, literal(-4)))
          CFI (cfiCond99) ?BRET_EXT load(1, XDATA, add(CFA_XSP16, literal(-3)))
          CFI (cfiCond99) DPL0 load(1, XDATA, add(CFA_XSP16, literal(-2)))
          CFI (cfiCond99) DPH0 load(1, XDATA, add(CFA_XSP16, literal(-1)))
          CFI (cfiCond99) CFA_SP SP+0
          CFI (cfiCond99) CFA_XSP16 add(XSP16, 28)
          CFI Block cfiCond100 Using cfiCommon0
          CFI (cfiCond100) Function SendData_TGS813
          CFI (cfiCond100) Conditional ??CrossCallReturnLabel_78
          CFI (cfiCond100) R6 load(1, XDATA, add(CFA_XSP16, literal(-20)))
          CFI (cfiCond100) VB load(1, XDATA, add(CFA_XSP16, literal(-19)))
          CFI (cfiCond100) V0 load(1, XDATA, add(CFA_XSP16, literal(-18)))
          CFI (cfiCond100) V1 load(1, XDATA, add(CFA_XSP16, literal(-17)))
          CFI (cfiCond100) V2 load(1, XDATA, add(CFA_XSP16, literal(-16)))
          CFI (cfiCond100) V3 load(1, XDATA, add(CFA_XSP16, literal(-15)))
          CFI (cfiCond100) V4 load(1, XDATA, add(CFA_XSP16, literal(-14)))
          CFI (cfiCond100) V5 load(1, XDATA, add(CFA_XSP16, literal(-13)))
          CFI (cfiCond100) V6 load(1, XDATA, add(CFA_XSP16, literal(-12)))
          CFI (cfiCond100) V7 load(1, XDATA, add(CFA_XSP16, literal(-11)))
          CFI (cfiCond100) V8 load(1, XDATA, add(CFA_XSP16, literal(-10)))
          CFI (cfiCond100) V9 load(1, XDATA, add(CFA_XSP16, literal(-9)))
          CFI (cfiCond100) V10 load(1, XDATA, add(CFA_XSP16, literal(-8)))
          CFI (cfiCond100) V11 load(1, XDATA, add(CFA_XSP16, literal(-7)))
          CFI (cfiCond100) R7 load(1, XDATA, add(CFA_XSP16, literal(-6)))
          CFI (cfiCond100) ?RET_LOW load(1, XDATA, add(CFA_XSP16, literal(-5)))
          CFI (cfiCond100) ?RET_HIGH load(1, XDATA, add(CFA_XSP16, literal(-4)))
          CFI (cfiCond100) ?BRET_EXT load(1, XDATA, add(CFA_XSP16, literal(-3)))
          CFI (cfiCond100) DPL0 load(1, XDATA, add(CFA_XSP16, literal(-2)))
          CFI (cfiCond100) DPH0 load(1, XDATA, add(CFA_XSP16, literal(-1)))
          CFI (cfiCond100) CFA_SP SP+0
          CFI (cfiCond100) CFA_XSP16 add(XSP16, 24)
          CFI Block cfiCond101 Using cfiCommon0
          CFI (cfiCond101) Function SendData_TGS4161
          CFI (cfiCond101) Conditional ??CrossCallReturnLabel_73
          CFI (cfiCond101) R6 load(1, XDATA, add(CFA_XSP16, literal(-18)))
          CFI (cfiCond101) VB load(1, XDATA, add(CFA_XSP16, literal(-17)))
          CFI (cfiCond101) V0 load(1, XDATA, add(CFA_XSP16, literal(-16)))
          CFI (cfiCond101) V1 load(1, XDATA, add(CFA_XSP16, literal(-15)))
          CFI (cfiCond101) V2 load(1, XDATA, add(CFA_XSP16, literal(-14)))
          CFI (cfiCond101) V3 load(1, XDATA, add(CFA_XSP16, literal(-13)))
          CFI (cfiCond101) V4 load(1, XDATA, add(CFA_XSP16, literal(-12)))
          CFI (cfiCond101) V5 load(1, XDATA, add(CFA_XSP16, literal(-11)))
          CFI (cfiCond101) V6 load(1, XDATA, add(CFA_XSP16, literal(-10)))
          CFI (cfiCond101) V7 load(1, XDATA, add(CFA_XSP16, literal(-9)))
          CFI (cfiCond101) V8 load(1, XDATA, add(CFA_XSP16, literal(-8)))
          CFI (cfiCond101) V9 load(1, XDATA, add(CFA_XSP16, literal(-7)))
          CFI (cfiCond101) R7 load(1, XDATA, add(CFA_XSP16, literal(-6)))
          CFI (cfiCond101) ?RET_LOW load(1, XDATA, add(CFA_XSP16, literal(-5)))
          CFI (cfiCond101) ?RET_HIGH load(1, XDATA, add(CFA_XSP16, literal(-4)))
          CFI (cfiCond101) ?BRET_EXT load(1, XDATA, add(CFA_XSP16, literal(-3)))
          CFI (cfiCond101) DPL0 load(1, XDATA, add(CFA_XSP16, literal(-2)))
          CFI (cfiCond101) DPH0 load(1, XDATA, add(CFA_XSP16, literal(-1)))
          CFI (cfiCond101) CFA_SP SP+0
          CFI (cfiCond101) CFA_XSP16 add(XSP16, 22)
          CFI Block cfiCond102 Using cfiCommon0
          CFI (cfiCond102) Function SendData_MQ7
          CFI (cfiCond102) Conditional ??CrossCallReturnLabel_74
          CFI (cfiCond102) R6 load(1, XDATA, add(CFA_XSP16, literal(-24)))
          CFI (cfiCond102) VB load(1, XDATA, add(CFA_XSP16, literal(-23)))
          CFI (cfiCond102) V0 load(1, XDATA, add(CFA_XSP16, literal(-22)))
          CFI (cfiCond102) V1 load(1, XDATA, add(CFA_XSP16, literal(-21)))
          CFI (cfiCond102) V2 load(1, XDATA, add(CFA_XSP16, literal(-20)))
          CFI (cfiCond102) V3 load(1, XDATA, add(CFA_XSP16, literal(-19)))
          CFI (cfiCond102) V4 load(1, XDATA, add(CFA_XSP16, literal(-18)))
          CFI (cfiCond102) V5 load(1, XDATA, add(CFA_XSP16, literal(-17)))
          CFI (cfiCond102) V6 load(1, XDATA, add(CFA_XSP16, literal(-16)))
          CFI (cfiCond102) V7 load(1, XDATA, add(CFA_XSP16, literal(-15)))
          CFI (cfiCond102) V8 load(1, XDATA, add(CFA_XSP16, literal(-14)))
          CFI (cfiCond102) V9 load(1, XDATA, add(CFA_XSP16, literal(-13)))
          CFI (cfiCond102) V10 load(1, XDATA, add(CFA_XSP16, literal(-12)))
          CFI (cfiCond102) V11 load(1, XDATA, add(CFA_XSP16, literal(-11)))
          CFI (cfiCond102) V12 load(1, XDATA, add(CFA_XSP16, literal(-10)))
          CFI (cfiCond102) V13 load(1, XDATA, add(CFA_XSP16, literal(-9)))
          CFI (cfiCond102) V14 load(1, XDATA, add(CFA_XSP16, literal(-8)))
          CFI (cfiCond102) V15 load(1, XDATA, add(CFA_XSP16, literal(-7)))
          CFI (cfiCond102) R7 load(1, XDATA, add(CFA_XSP16, literal(-6)))
          CFI (cfiCond102) ?RET_LOW load(1, XDATA, add(CFA_XSP16, literal(-5)))
          CFI (cfiCond102) ?RET_HIGH load(1, XDATA, add(CFA_XSP16, literal(-4)))
          CFI (cfiCond102) ?BRET_EXT load(1, XDATA, add(CFA_XSP16, literal(-3)))
          CFI (cfiCond102) DPL0 load(1, XDATA, add(CFA_XSP16, literal(-2)))
          CFI (cfiCond102) DPH0 load(1, XDATA, add(CFA_XSP16, literal(-1)))
          CFI (cfiCond102) CFA_SP SP+0
          CFI (cfiCond102) CFA_XSP16 add(XSP16, 28)
          CFI Block cfiCond103 Using cfiCommon0
          CFI (cfiCond103) Function SendData_TGS813
          CFI (cfiCond103) Conditional ??CrossCallReturnLabel_75
          CFI (cfiCond103) R6 load(1, XDATA, add(CFA_XSP16, literal(-20)))
          CFI (cfiCond103) VB load(1, XDATA, add(CFA_XSP16, literal(-19)))
          CFI (cfiCond103) V0 load(1, XDATA, add(CFA_XSP16, literal(-18)))
          CFI (cfiCond103) V1 load(1, XDATA, add(CFA_XSP16, literal(-17)))
          CFI (cfiCond103) V2 load(1, XDATA, add(CFA_XSP16, literal(-16)))
          CFI (cfiCond103) V3 load(1, XDATA, add(CFA_XSP16, literal(-15)))
          CFI (cfiCond103) V4 load(1, XDATA, add(CFA_XSP16, literal(-14)))
          CFI (cfiCond103) V5 load(1, XDATA, add(CFA_XSP16, literal(-13)))
          CFI (cfiCond103) V6 load(1, XDATA, add(CFA_XSP16, literal(-12)))
          CFI (cfiCond103) V7 load(1, XDATA, add(CFA_XSP16, literal(-11)))
          CFI (cfiCond103) V8 load(1, XDATA, add(CFA_XSP16, literal(-10)))
          CFI (cfiCond103) V9 load(1, XDATA, add(CFA_XSP16, literal(-9)))
          CFI (cfiCond103) V10 load(1, XDATA, add(CFA_XSP16, literal(-8)))
          CFI (cfiCond103) V11 load(1, XDATA, add(CFA_XSP16, literal(-7)))
          CFI (cfiCond103) R7 load(1, XDATA, add(CFA_XSP16, literal(-6)))
          CFI (cfiCond103) ?RET_LOW load(1, XDATA, add(CFA_XSP16, literal(-5)))
          CFI (cfiCond103) ?RET_HIGH load(1, XDATA, add(CFA_XSP16, literal(-4)))
          CFI (cfiCond103) ?BRET_EXT load(1, XDATA, add(CFA_XSP16, literal(-3)))
          CFI (cfiCond103) DPL0 load(1, XDATA, add(CFA_XSP16, literal(-2)))
          CFI (cfiCond103) DPH0 load(1, XDATA, add(CFA_XSP16, literal(-1)))
          CFI (cfiCond103) CFA_SP SP+0
          CFI (cfiCond103) CFA_XSP16 add(XSP16, 24)
          CFI Block cfiPicker104 Using cfiCommon1
          CFI (cfiPicker104) NoFunction
          CFI (cfiPicker104) Picker
        MOVX    @DPTR,A
        MOV     A,R4
        MOV     R0,A
        MOV     A,R5
        MOV     R1,A
        MOV     R2,#0x64
        MOV     R3,#0x0
        RET
          CFI EndBlock cfiCond98
          CFI EndBlock cfiCond99
          CFI EndBlock cfiCond100
          CFI EndBlock cfiCond101
          CFI EndBlock cfiCond102
          CFI EndBlock cfiCond103
          CFI EndBlock cfiPicker104

        RSEG BANKED_CODE:CODE:NOROOT(0)
?Subroutine36:
          CFI Block cfiCond105 Using cfiCommon0
          CFI Function SendData_TGS4161
          CFI Conditional ??CrossCallReturnLabel_81, ??CrossCallReturnLabel_73
          CFI R6 load(1, XDATA, add(CFA_XSP16, literal(-18)))
          CFI VB load(1, XDATA, add(CFA_XSP16, literal(-17)))
          CFI V0 load(1, XDATA, add(CFA_XSP16, literal(-16)))
          CFI V1 load(1, XDATA, add(CFA_XSP16, literal(-15)))
          CFI V2 load(1, XDATA, add(CFA_XSP16, literal(-14)))
          CFI V3 load(1, XDATA, add(CFA_XSP16, literal(-13)))
          CFI V4 load(1, XDATA, add(CFA_XSP16, literal(-12)))
          CFI V5 load(1, XDATA, add(CFA_XSP16, literal(-11)))
          CFI V6 load(1, XDATA, add(CFA_XSP16, literal(-10)))
          CFI V7 load(1, XDATA, add(CFA_XSP16, literal(-9)))
          CFI V8 load(1, XDATA, add(CFA_XSP16, literal(-8)))
          CFI V9 load(1, XDATA, add(CFA_XSP16, literal(-7)))
          CFI R7 load(1, XDATA, add(CFA_XSP16, literal(-6)))
          CFI ?RET_LOW load(1, XDATA, add(CFA_XSP16, literal(-5)))
          CFI ?RET_HIGH load(1, XDATA, add(CFA_XSP16, literal(-4)))
          CFI ?BRET_EXT load(1, XDATA, add(CFA_XSP16, literal(-3)))
          CFI DPL0 load(1, XDATA, add(CFA_XSP16, literal(-2)))
          CFI DPH0 load(1, XDATA, add(CFA_XSP16, literal(-1)))
          CFI CFA_SP SP+0
          CFI CFA_XSP16 add(XSP16, 22)
          CFI Block cfiCond106 Using cfiCommon0
          CFI (cfiCond106) Function SendData_MQ7
          CFI (cfiCond106) Conditional ??CrossCallReturnLabel_81, ??CrossCallReturnLabel_74
          CFI (cfiCond106) R6 load(1, XDATA, add(CFA_XSP16, literal(-24)))
          CFI (cfiCond106) VB load(1, XDATA, add(CFA_XSP16, literal(-23)))
          CFI (cfiCond106) V0 load(1, XDATA, add(CFA_XSP16, literal(-22)))
          CFI (cfiCond106) V1 load(1, XDATA, add(CFA_XSP16, literal(-21)))
          CFI (cfiCond106) V2 load(1, XDATA, add(CFA_XSP16, literal(-20)))
          CFI (cfiCond106) V3 load(1, XDATA, add(CFA_XSP16, literal(-19)))
          CFI (cfiCond106) V4 load(1, XDATA, add(CFA_XSP16, literal(-18)))
          CFI (cfiCond106) V5 load(1, XDATA, add(CFA_XSP16, literal(-17)))
          CFI (cfiCond106) V6 load(1, XDATA, add(CFA_XSP16, literal(-16)))
          CFI (cfiCond106) V7 load(1, XDATA, add(CFA_XSP16, literal(-15)))
          CFI (cfiCond106) V8 load(1, XDATA, add(CFA_XSP16, literal(-14)))
          CFI (cfiCond106) V9 load(1, XDATA, add(CFA_XSP16, literal(-13)))
          CFI (cfiCond106) V10 load(1, XDATA, add(CFA_XSP16, literal(-12)))
          CFI (cfiCond106) V11 load(1, XDATA, add(CFA_XSP16, literal(-11)))
          CFI (cfiCond106) V12 load(1, XDATA, add(CFA_XSP16, literal(-10)))
          CFI (cfiCond106) V13 load(1, XDATA, add(CFA_XSP16, literal(-9)))
          CFI (cfiCond106) V14 load(1, XDATA, add(CFA_XSP16, literal(-8)))
          CFI (cfiCond106) V15 load(1, XDATA, add(CFA_XSP16, literal(-7)))
          CFI (cfiCond106) R7 load(1, XDATA, add(CFA_XSP16, literal(-6)))
          CFI (cfiCond106) ?RET_LOW load(1, XDATA, add(CFA_XSP16, literal(-5)))
          CFI (cfiCond106) ?RET_HIGH load(1, XDATA, add(CFA_XSP16, literal(-4)))
          CFI (cfiCond106) ?BRET_EXT load(1, XDATA, add(CFA_XSP16, literal(-3)))
          CFI (cfiCond106) DPL0 load(1, XDATA, add(CFA_XSP16, literal(-2)))
          CFI (cfiCond106) DPH0 load(1, XDATA, add(CFA_XSP16, literal(-1)))
          CFI (cfiCond106) CFA_SP SP+0
          CFI (cfiCond106) CFA_XSP16 add(XSP16, 28)
          CFI Block cfiCond107 Using cfiCommon0
          CFI (cfiCond107) Function SendData_TGS813
          CFI (cfiCond107) Conditional ??CrossCallReturnLabel_81, ??CrossCallReturnLabel_75
          CFI (cfiCond107) R6 load(1, XDATA, add(CFA_XSP16, literal(-20)))
          CFI (cfiCond107) VB load(1, XDATA, add(CFA_XSP16, literal(-19)))
          CFI (cfiCond107) V0 load(1, XDATA, add(CFA_XSP16, literal(-18)))
          CFI (cfiCond107) V1 load(1, XDATA, add(CFA_XSP16, literal(-17)))
          CFI (cfiCond107) V2 load(1, XDATA, add(CFA_XSP16, literal(-16)))
          CFI (cfiCond107) V3 load(1, XDATA, add(CFA_XSP16, literal(-15)))
          CFI (cfiCond107) V4 load(1, XDATA, add(CFA_XSP16, literal(-14)))
          CFI (cfiCond107) V5 load(1, XDATA, add(CFA_XSP16, literal(-13)))
          CFI (cfiCond107) V6 load(1, XDATA, add(CFA_XSP16, literal(-12)))
          CFI (cfiCond107) V7 load(1, XDATA, add(CFA_XSP16, literal(-11)))
          CFI (cfiCond107) V8 load(1, XDATA, add(CFA_XSP16, literal(-10)))
          CFI (cfiCond107) V9 load(1, XDATA, add(CFA_XSP16, literal(-9)))
          CFI (cfiCond107) V10 load(1, XDATA, add(CFA_XSP16, literal(-8)))
          CFI (cfiCond107) V11 load(1, XDATA, add(CFA_XSP16, literal(-7)))
          CFI (cfiCond107) R7 load(1, XDATA, add(CFA_XSP16, literal(-6)))
          CFI (cfiCond107) ?RET_LOW load(1, XDATA, add(CFA_XSP16, literal(-5)))
          CFI (cfiCond107) ?RET_HIGH load(1, XDATA, add(CFA_XSP16, literal(-4)))
          CFI (cfiCond107) ?BRET_EXT load(1, XDATA, add(CFA_XSP16, literal(-3)))
          CFI (cfiCond107) DPL0 load(1, XDATA, add(CFA_XSP16, literal(-2)))
          CFI (cfiCond107) DPH0 load(1, XDATA, add(CFA_XSP16, literal(-1)))
          CFI (cfiCond107) CFA_SP SP+0
          CFI (cfiCond107) CFA_XSP16 add(XSP16, 24)
          CFI Block cfiCond108 Using cfiCommon0
          CFI (cfiCond108) Function SendData_MS1100
          CFI (cfiCond108) Conditional ??CrossCallReturnLabel_80, ??CrossCallReturnLabel_82
          CFI (cfiCond108) R6 load(1, XDATA, add(CFA_XSP16, literal(-24)))
          CFI (cfiCond108) VB load(1, XDATA, add(CFA_XSP16, literal(-23)))
          CFI (cfiCond108) V0 load(1, XDATA, add(CFA_XSP16, literal(-22)))
          CFI (cfiCond108) V1 load(1, XDATA, add(CFA_XSP16, literal(-21)))
          CFI (cfiCond108) V2 load(1, XDATA, add(CFA_XSP16, literal(-20)))
          CFI (cfiCond108) V3 load(1, XDATA, add(CFA_XSP16, literal(-19)))
          CFI (cfiCond108) V4 load(1, XDATA, add(CFA_XSP16, literal(-18)))
          CFI (cfiCond108) V5 load(1, XDATA, add(CFA_XSP16, literal(-17)))
          CFI (cfiCond108) V6 load(1, XDATA, add(CFA_XSP16, literal(-16)))
          CFI (cfiCond108) V7 load(1, XDATA, add(CFA_XSP16, literal(-15)))
          CFI (cfiCond108) V8 load(1, XDATA, add(CFA_XSP16, literal(-14)))
          CFI (cfiCond108) V9 load(1, XDATA, add(CFA_XSP16, literal(-13)))
          CFI (cfiCond108) V10 load(1, XDATA, add(CFA_XSP16, literal(-12)))
          CFI (cfiCond108) V11 load(1, XDATA, add(CFA_XSP16, literal(-11)))
          CFI (cfiCond108) V12 load(1, XDATA, add(CFA_XSP16, literal(-10)))
          CFI (cfiCond108) V13 load(1, XDATA, add(CFA_XSP16, literal(-9)))
          CFI (cfiCond108) V14 load(1, XDATA, add(CFA_XSP16, literal(-8)))
          CFI (cfiCond108) V15 load(1, XDATA, add(CFA_XSP16, literal(-7)))
          CFI (cfiCond108) R7 load(1, XDATA, add(CFA_XSP16, literal(-6)))
          CFI (cfiCond108) ?RET_LOW load(1, XDATA, add(CFA_XSP16, literal(-5)))
          CFI (cfiCond108) ?RET_HIGH load(1, XDATA, add(CFA_XSP16, literal(-4)))
          CFI (cfiCond108) ?BRET_EXT load(1, XDATA, add(CFA_XSP16, literal(-3)))
          CFI (cfiCond108) DPL0 load(1, XDATA, add(CFA_XSP16, literal(-2)))
          CFI (cfiCond108) DPH0 load(1, XDATA, add(CFA_XSP16, literal(-1)))
          CFI (cfiCond108) CFA_SP SP+0
          CFI (cfiCond108) CFA_XSP16 add(XSP16, 27)
          CFI Block cfiCond109 Using cfiCommon0
          CFI (cfiCond109) Function SendData_PM25
          CFI (cfiCond109) Conditional ??CrossCallReturnLabel_80, ??CrossCallReturnLabel_83
          CFI (cfiCond109) R6 load(1, XDATA, add(CFA_XSP16, literal(-16)))
          CFI (cfiCond109) VB load(1, XDATA, add(CFA_XSP16, literal(-15)))
          CFI (cfiCond109) V0 load(1, XDATA, add(CFA_XSP16, literal(-14)))
          CFI (cfiCond109) V1 load(1, XDATA, add(CFA_XSP16, literal(-13)))
          CFI (cfiCond109) V2 load(1, XDATA, add(CFA_XSP16, literal(-12)))
          CFI (cfiCond109) V3 load(1, XDATA, add(CFA_XSP16, literal(-11)))
          CFI (cfiCond109) V4 load(1, XDATA, add(CFA_XSP16, literal(-10)))
          CFI (cfiCond109) V5 load(1, XDATA, add(CFA_XSP16, literal(-9)))
          CFI (cfiCond109) V6 load(1, XDATA, add(CFA_XSP16, literal(-8)))
          CFI (cfiCond109) V7 load(1, XDATA, add(CFA_XSP16, literal(-7)))
          CFI (cfiCond109) R7 load(1, XDATA, add(CFA_XSP16, literal(-6)))
          CFI (cfiCond109) ?RET_LOW load(1, XDATA, add(CFA_XSP16, literal(-5)))
          CFI (cfiCond109) ?RET_HIGH load(1, XDATA, add(CFA_XSP16, literal(-4)))
          CFI (cfiCond109) ?BRET_EXT load(1, XDATA, add(CFA_XSP16, literal(-3)))
          CFI (cfiCond109) DPL0 load(1, XDATA, add(CFA_XSP16, literal(-2)))
          CFI (cfiCond109) DPH0 load(1, XDATA, add(CFA_XSP16, literal(-1)))
          CFI (cfiCond109) CFA_SP SP+0
          CFI (cfiCond109) CFA_XSP16 add(XSP16, 19)
          CFI Block cfiPicker110 Using cfiCommon1
          CFI (cfiPicker110) NoFunction
          CFI (cfiPicker110) Picker
        MOV     A,R0
          CFI EndBlock cfiCond105
          CFI EndBlock cfiCond106
          CFI EndBlock cfiCond107
          CFI EndBlock cfiCond108
          CFI EndBlock cfiCond109
          CFI EndBlock cfiPicker110
        REQUIRE ??Subroutine40_0
        ; // Fall through to label ??Subroutine40_0

        RSEG BANKED_CODE:CODE:NOROOT(0)
??Subroutine40_0:
          CFI Block cfiCond111 Using cfiCommon0
          CFI Function SendData_DHT22
          CFI Conditional ??CrossCallReturnLabel_79
          CFI DPL0 Frame(CFA_SP, 4)
          CFI DPH0 Frame(CFA_SP, 5)
          CFI CFA_SP SP+-5
          CFI CFA_XSP16 add(XSP16, 11)
          CFI Block cfiCond112 Using cfiCommon0
          CFI (cfiCond112) Function SendData_TGS4161
          CFI (cfiCond112) Conditional ??CrossCallReturnLabel_81, ??CrossCallReturnLabel_73
          CFI (cfiCond112) R6 load(1, XDATA, add(CFA_XSP16, literal(-18)))
          CFI (cfiCond112) VB load(1, XDATA, add(CFA_XSP16, literal(-17)))
          CFI (cfiCond112) V0 load(1, XDATA, add(CFA_XSP16, literal(-16)))
          CFI (cfiCond112) V1 load(1, XDATA, add(CFA_XSP16, literal(-15)))
          CFI (cfiCond112) V2 load(1, XDATA, add(CFA_XSP16, literal(-14)))
          CFI (cfiCond112) V3 load(1, XDATA, add(CFA_XSP16, literal(-13)))
          CFI (cfiCond112) V4 load(1, XDATA, add(CFA_XSP16, literal(-12)))
          CFI (cfiCond112) V5 load(1, XDATA, add(CFA_XSP16, literal(-11)))
          CFI (cfiCond112) V6 load(1, XDATA, add(CFA_XSP16, literal(-10)))
          CFI (cfiCond112) V7 load(1, XDATA, add(CFA_XSP16, literal(-9)))
          CFI (cfiCond112) V8 load(1, XDATA, add(CFA_XSP16, literal(-8)))
          CFI (cfiCond112) V9 load(1, XDATA, add(CFA_XSP16, literal(-7)))
          CFI (cfiCond112) R7 load(1, XDATA, add(CFA_XSP16, literal(-6)))
          CFI (cfiCond112) ?RET_LOW load(1, XDATA, add(CFA_XSP16, literal(-5)))
          CFI (cfiCond112) ?RET_HIGH load(1, XDATA, add(CFA_XSP16, literal(-4)))
          CFI (cfiCond112) ?BRET_EXT load(1, XDATA, add(CFA_XSP16, literal(-3)))
          CFI (cfiCond112) DPL0 load(1, XDATA, add(CFA_XSP16, literal(-2)))
          CFI (cfiCond112) DPH0 load(1, XDATA, add(CFA_XSP16, literal(-1)))
          CFI (cfiCond112) CFA_SP SP+0
          CFI (cfiCond112) CFA_XSP16 add(XSP16, 22)
          CFI Block cfiCond113 Using cfiCommon0
          CFI (cfiCond113) Function SendData_MQ7
          CFI (cfiCond113) Conditional ??CrossCallReturnLabel_81, ??CrossCallReturnLabel_74
          CFI (cfiCond113) R6 load(1, XDATA, add(CFA_XSP16, literal(-24)))
          CFI (cfiCond113) VB load(1, XDATA, add(CFA_XSP16, literal(-23)))
          CFI (cfiCond113) V0 load(1, XDATA, add(CFA_XSP16, literal(-22)))
          CFI (cfiCond113) V1 load(1, XDATA, add(CFA_XSP16, literal(-21)))
          CFI (cfiCond113) V2 load(1, XDATA, add(CFA_XSP16, literal(-20)))
          CFI (cfiCond113) V3 load(1, XDATA, add(CFA_XSP16, literal(-19)))
          CFI (cfiCond113) V4 load(1, XDATA, add(CFA_XSP16, literal(-18)))
          CFI (cfiCond113) V5 load(1, XDATA, add(CFA_XSP16, literal(-17)))
          CFI (cfiCond113) V6 load(1, XDATA, add(CFA_XSP16, literal(-16)))
          CFI (cfiCond113) V7 load(1, XDATA, add(CFA_XSP16, literal(-15)))
          CFI (cfiCond113) V8 load(1, XDATA, add(CFA_XSP16, literal(-14)))
          CFI (cfiCond113) V9 load(1, XDATA, add(CFA_XSP16, literal(-13)))
          CFI (cfiCond113) V10 load(1, XDATA, add(CFA_XSP16, literal(-12)))
          CFI (cfiCond113) V11 load(1, XDATA, add(CFA_XSP16, literal(-11)))
          CFI (cfiCond113) V12 load(1, XDATA, add(CFA_XSP16, literal(-10)))
          CFI (cfiCond113) V13 load(1, XDATA, add(CFA_XSP16, literal(-9)))
          CFI (cfiCond113) V14 load(1, XDATA, add(CFA_XSP16, literal(-8)))
          CFI (cfiCond113) V15 load(1, XDATA, add(CFA_XSP16, literal(-7)))
          CFI (cfiCond113) R7 load(1, XDATA, add(CFA_XSP16, literal(-6)))
          CFI (cfiCond113) ?RET_LOW load(1, XDATA, add(CFA_XSP16, literal(-5)))
          CFI (cfiCond113) ?RET_HIGH load(1, XDATA, add(CFA_XSP16, literal(-4)))
          CFI (cfiCond113) ?BRET_EXT load(1, XDATA, add(CFA_XSP16, literal(-3)))
          CFI (cfiCond113) DPL0 load(1, XDATA, add(CFA_XSP16, literal(-2)))
          CFI (cfiCond113) DPH0 load(1, XDATA, add(CFA_XSP16, literal(-1)))
          CFI (cfiCond113) CFA_SP SP+0
          CFI (cfiCond113) CFA_XSP16 add(XSP16, 28)
          CFI Block cfiCond114 Using cfiCommon0
          CFI (cfiCond114) Function SendData_TGS813
          CFI (cfiCond114) Conditional ??CrossCallReturnLabel_81, ??CrossCallReturnLabel_75
          CFI (cfiCond114) R6 load(1, XDATA, add(CFA_XSP16, literal(-20)))
          CFI (cfiCond114) VB load(1, XDATA, add(CFA_XSP16, literal(-19)))
          CFI (cfiCond114) V0 load(1, XDATA, add(CFA_XSP16, literal(-18)))
          CFI (cfiCond114) V1 load(1, XDATA, add(CFA_XSP16, literal(-17)))
          CFI (cfiCond114) V2 load(1, XDATA, add(CFA_XSP16, literal(-16)))
          CFI (cfiCond114) V3 load(1, XDATA, add(CFA_XSP16, literal(-15)))
          CFI (cfiCond114) V4 load(1, XDATA, add(CFA_XSP16, literal(-14)))
          CFI (cfiCond114) V5 load(1, XDATA, add(CFA_XSP16, literal(-13)))
          CFI (cfiCond114) V6 load(1, XDATA, add(CFA_XSP16, literal(-12)))
          CFI (cfiCond114) V7 load(1, XDATA, add(CFA_XSP16, literal(-11)))
          CFI (cfiCond114) V8 load(1, XDATA, add(CFA_XSP16, literal(-10)))
          CFI (cfiCond114) V9 load(1, XDATA, add(CFA_XSP16, literal(-9)))
          CFI (cfiCond114) V10 load(1, XDATA, add(CFA_XSP16, literal(-8)))
          CFI (cfiCond114) V11 load(1, XDATA, add(CFA_XSP16, literal(-7)))
          CFI (cfiCond114) R7 load(1, XDATA, add(CFA_XSP16, literal(-6)))
          CFI (cfiCond114) ?RET_LOW load(1, XDATA, add(CFA_XSP16, literal(-5)))
          CFI (cfiCond114) ?RET_HIGH load(1, XDATA, add(CFA_XSP16, literal(-4)))
          CFI (cfiCond114) ?BRET_EXT load(1, XDATA, add(CFA_XSP16, literal(-3)))
          CFI (cfiCond114) DPL0 load(1, XDATA, add(CFA_XSP16, literal(-2)))
          CFI (cfiCond114) DPH0 load(1, XDATA, add(CFA_XSP16, literal(-1)))
          CFI (cfiCond114) CFA_SP SP+0
          CFI (cfiCond114) CFA_XSP16 add(XSP16, 24)
          CFI Block cfiCond115 Using cfiCommon0
          CFI (cfiCond115) Function SendData_MS1100
          CFI (cfiCond115) Conditional ??CrossCallReturnLabel_80, ??CrossCallReturnLabel_82
          CFI (cfiCond115) R6 load(1, XDATA, add(CFA_XSP16, literal(-24)))
          CFI (cfiCond115) VB load(1, XDATA, add(CFA_XSP16, literal(-23)))
          CFI (cfiCond115) V0 load(1, XDATA, add(CFA_XSP16, literal(-22)))
          CFI (cfiCond115) V1 load(1, XDATA, add(CFA_XSP16, literal(-21)))
          CFI (cfiCond115) V2 load(1, XDATA, add(CFA_XSP16, literal(-20)))
          CFI (cfiCond115) V3 load(1, XDATA, add(CFA_XSP16, literal(-19)))
          CFI (cfiCond115) V4 load(1, XDATA, add(CFA_XSP16, literal(-18)))
          CFI (cfiCond115) V5 load(1, XDATA, add(CFA_XSP16, literal(-17)))
          CFI (cfiCond115) V6 load(1, XDATA, add(CFA_XSP16, literal(-16)))
          CFI (cfiCond115) V7 load(1, XDATA, add(CFA_XSP16, literal(-15)))
          CFI (cfiCond115) V8 load(1, XDATA, add(CFA_XSP16, literal(-14)))
          CFI (cfiCond115) V9 load(1, XDATA, add(CFA_XSP16, literal(-13)))
          CFI (cfiCond115) V10 load(1, XDATA, add(CFA_XSP16, literal(-12)))
          CFI (cfiCond115) V11 load(1, XDATA, add(CFA_XSP16, literal(-11)))
          CFI (cfiCond115) V12 load(1, XDATA, add(CFA_XSP16, literal(-10)))
          CFI (cfiCond115) V13 load(1, XDATA, add(CFA_XSP16, literal(-9)))
          CFI (cfiCond115) V14 load(1, XDATA, add(CFA_XSP16, literal(-8)))
          CFI (cfiCond115) V15 load(1, XDATA, add(CFA_XSP16, literal(-7)))
          CFI (cfiCond115) R7 load(1, XDATA, add(CFA_XSP16, literal(-6)))
          CFI (cfiCond115) ?RET_LOW load(1, XDATA, add(CFA_XSP16, literal(-5)))
          CFI (cfiCond115) ?RET_HIGH load(1, XDATA, add(CFA_XSP16, literal(-4)))
          CFI (cfiCond115) ?BRET_EXT load(1, XDATA, add(CFA_XSP16, literal(-3)))
          CFI (cfiCond115) DPL0 load(1, XDATA, add(CFA_XSP16, literal(-2)))
          CFI (cfiCond115) DPH0 load(1, XDATA, add(CFA_XSP16, literal(-1)))
          CFI (cfiCond115) CFA_SP SP+0
          CFI (cfiCond115) CFA_XSP16 add(XSP16, 27)
          CFI Block cfiCond116 Using cfiCommon0
          CFI (cfiCond116) Function SendData_PM25
          CFI (cfiCond116) Conditional ??CrossCallReturnLabel_80, ??CrossCallReturnLabel_83
          CFI (cfiCond116) R6 load(1, XDATA, add(CFA_XSP16, literal(-16)))
          CFI (cfiCond116) VB load(1, XDATA, add(CFA_XSP16, literal(-15)))
          CFI (cfiCond116) V0 load(1, XDATA, add(CFA_XSP16, literal(-14)))
          CFI (cfiCond116) V1 load(1, XDATA, add(CFA_XSP16, literal(-13)))
          CFI (cfiCond116) V2 load(1, XDATA, add(CFA_XSP16, literal(-12)))
          CFI (cfiCond116) V3 load(1, XDATA, add(CFA_XSP16, literal(-11)))
          CFI (cfiCond116) V4 load(1, XDATA, add(CFA_XSP16, literal(-10)))
          CFI (cfiCond116) V5 load(1, XDATA, add(CFA_XSP16, literal(-9)))
          CFI (cfiCond116) V6 load(1, XDATA, add(CFA_XSP16, literal(-8)))
          CFI (cfiCond116) V7 load(1, XDATA, add(CFA_XSP16, literal(-7)))
          CFI (cfiCond116) R7 load(1, XDATA, add(CFA_XSP16, literal(-6)))
          CFI (cfiCond116) ?RET_LOW load(1, XDATA, add(CFA_XSP16, literal(-5)))
          CFI (cfiCond116) ?RET_HIGH load(1, XDATA, add(CFA_XSP16, literal(-4)))
          CFI (cfiCond116) ?BRET_EXT load(1, XDATA, add(CFA_XSP16, literal(-3)))
          CFI (cfiCond116) DPL0 load(1, XDATA, add(CFA_XSP16, literal(-2)))
          CFI (cfiCond116) DPH0 load(1, XDATA, add(CFA_XSP16, literal(-1)))
          CFI (cfiCond116) CFA_SP SP+0
          CFI (cfiCond116) CFA_XSP16 add(XSP16, 19)
          CFI Block cfiPicker117 Using cfiCommon1
          CFI (cfiPicker117) NoFunction
          CFI (cfiPicker117) Picker
        ADD     A,#0x30
        MOV     DPL,?XSP + 0
        MOV     DPH,?XSP + 1
        RET
          CFI EndBlock cfiCond111
          CFI EndBlock cfiCond112
          CFI EndBlock cfiCond113
          CFI EndBlock cfiCond114
          CFI EndBlock cfiCond115
          CFI EndBlock cfiCond116
          CFI EndBlock cfiPicker117

        RSEG BANKED_CODE:CODE:NOROOT(0)
?Subroutine19:
          CFI Block cfiCond118 Using cfiCommon0
          CFI Function SendData_MS1100
          CFI Conditional ??CrossCallReturnLabel_82
          CFI R6 load(1, XDATA, add(CFA_XSP16, literal(-24)))
          CFI VB load(1, XDATA, add(CFA_XSP16, literal(-23)))
          CFI V0 load(1, XDATA, add(CFA_XSP16, literal(-22)))
          CFI V1 load(1, XDATA, add(CFA_XSP16, literal(-21)))
          CFI V2 load(1, XDATA, add(CFA_XSP16, literal(-20)))
          CFI V3 load(1, XDATA, add(CFA_XSP16, literal(-19)))
          CFI V4 load(1, XDATA, add(CFA_XSP16, literal(-18)))
          CFI V5 load(1, XDATA, add(CFA_XSP16, literal(-17)))
          CFI V6 load(1, XDATA, add(CFA_XSP16, literal(-16)))
          CFI V7 load(1, XDATA, add(CFA_XSP16, literal(-15)))
          CFI V8 load(1, XDATA, add(CFA_XSP16, literal(-14)))
          CFI V9 load(1, XDATA, add(CFA_XSP16, literal(-13)))
          CFI V10 load(1, XDATA, add(CFA_XSP16, literal(-12)))
          CFI V11 load(1, XDATA, add(CFA_XSP16, literal(-11)))
          CFI V12 load(1, XDATA, add(CFA_XSP16, literal(-10)))
          CFI V13 load(1, XDATA, add(CFA_XSP16, literal(-9)))
          CFI V14 load(1, XDATA, add(CFA_XSP16, literal(-8)))
          CFI V15 load(1, XDATA, add(CFA_XSP16, literal(-7)))
          CFI R7 load(1, XDATA, add(CFA_XSP16, literal(-6)))
          CFI ?RET_LOW load(1, XDATA, add(CFA_XSP16, literal(-5)))
          CFI ?RET_HIGH load(1, XDATA, add(CFA_XSP16, literal(-4)))
          CFI ?BRET_EXT load(1, XDATA, add(CFA_XSP16, literal(-3)))
          CFI DPL0 load(1, XDATA, add(CFA_XSP16, literal(-2)))
          CFI DPH0 load(1, XDATA, add(CFA_XSP16, literal(-1)))
          CFI CFA_SP SP+0
          CFI CFA_XSP16 add(XSP16, 27)
          CFI Block cfiCond119 Using cfiCommon0
          CFI (cfiCond119) Function SendData_PM25
          CFI (cfiCond119) Conditional ??CrossCallReturnLabel_83
          CFI (cfiCond119) R6 load(1, XDATA, add(CFA_XSP16, literal(-16)))
          CFI (cfiCond119) VB load(1, XDATA, add(CFA_XSP16, literal(-15)))
          CFI (cfiCond119) V0 load(1, XDATA, add(CFA_XSP16, literal(-14)))
          CFI (cfiCond119) V1 load(1, XDATA, add(CFA_XSP16, literal(-13)))
          CFI (cfiCond119) V2 load(1, XDATA, add(CFA_XSP16, literal(-12)))
          CFI (cfiCond119) V3 load(1, XDATA, add(CFA_XSP16, literal(-11)))
          CFI (cfiCond119) V4 load(1, XDATA, add(CFA_XSP16, literal(-10)))
          CFI (cfiCond119) V5 load(1, XDATA, add(CFA_XSP16, literal(-9)))
          CFI (cfiCond119) V6 load(1, XDATA, add(CFA_XSP16, literal(-8)))
          CFI (cfiCond119) V7 load(1, XDATA, add(CFA_XSP16, literal(-7)))
          CFI (cfiCond119) R7 load(1, XDATA, add(CFA_XSP16, literal(-6)))
          CFI (cfiCond119) ?RET_LOW load(1, XDATA, add(CFA_XSP16, literal(-5)))
          CFI (cfiCond119) ?RET_HIGH load(1, XDATA, add(CFA_XSP16, literal(-4)))
          CFI (cfiCond119) ?BRET_EXT load(1, XDATA, add(CFA_XSP16, literal(-3)))
          CFI (cfiCond119) DPL0 load(1, XDATA, add(CFA_XSP16, literal(-2)))
          CFI (cfiCond119) DPH0 load(1, XDATA, add(CFA_XSP16, literal(-1)))
          CFI (cfiCond119) CFA_SP SP+0
          CFI (cfiCond119) CFA_XSP16 add(XSP16, 19)
          CFI Block cfiPicker120 Using cfiCommon1
          CFI (cfiPicker120) NoFunction
          CFI (cfiPicker120) Picker
        LCALL   ?Subroutine36 & 0xFFFF
          CFI EndBlock cfiCond118
          CFI EndBlock cfiCond119
          CFI EndBlock cfiPicker120
??CrossCallReturnLabel_80:
        REQUIRE ??Subroutine41_0
        ; // Fall through to label ??Subroutine41_0

        RSEG BANKED_CODE:CODE:NOROOT(0)
??Subroutine41_0:
          CFI Block cfiCond121 Using cfiCommon0
          CFI Function SendData_MS1100
          CFI Conditional ??CrossCallReturnLabel_84
          CFI R6 load(1, XDATA, add(CFA_XSP16, literal(-24)))
          CFI VB load(1, XDATA, add(CFA_XSP16, literal(-23)))
          CFI V0 load(1, XDATA, add(CFA_XSP16, literal(-22)))
          CFI V1 load(1, XDATA, add(CFA_XSP16, literal(-21)))
          CFI V2 load(1, XDATA, add(CFA_XSP16, literal(-20)))
          CFI V3 load(1, XDATA, add(CFA_XSP16, literal(-19)))
          CFI V4 load(1, XDATA, add(CFA_XSP16, literal(-18)))
          CFI V5 load(1, XDATA, add(CFA_XSP16, literal(-17)))
          CFI V6 load(1, XDATA, add(CFA_XSP16, literal(-16)))
          CFI V7 load(1, XDATA, add(CFA_XSP16, literal(-15)))
          CFI V8 load(1, XDATA, add(CFA_XSP16, literal(-14)))
          CFI V9 load(1, XDATA, add(CFA_XSP16, literal(-13)))
          CFI V10 load(1, XDATA, add(CFA_XSP16, literal(-12)))
          CFI V11 load(1, XDATA, add(CFA_XSP16, literal(-11)))
          CFI V12 load(1, XDATA, add(CFA_XSP16, literal(-10)))
          CFI V13 load(1, XDATA, add(CFA_XSP16, literal(-9)))
          CFI V14 load(1, XDATA, add(CFA_XSP16, literal(-8)))
          CFI V15 load(1, XDATA, add(CFA_XSP16, literal(-7)))
          CFI R7 load(1, XDATA, add(CFA_XSP16, literal(-6)))
          CFI ?RET_LOW load(1, XDATA, add(CFA_XSP16, literal(-5)))
          CFI ?RET_HIGH load(1, XDATA, add(CFA_XSP16, literal(-4)))
          CFI ?BRET_EXT load(1, XDATA, add(CFA_XSP16, literal(-3)))
          CFI DPL0 load(1, XDATA, add(CFA_XSP16, literal(-2)))
          CFI DPH0 load(1, XDATA, add(CFA_XSP16, literal(-1)))
          CFI CFA_SP SP+0
          CFI CFA_XSP16 add(XSP16, 27)
          CFI Block cfiCond122 Using cfiCommon0
          CFI (cfiCond122) Function SendData_TGS4161
          CFI (cfiCond122) Conditional ??CrossCallReturnLabel_85
          CFI (cfiCond122) R6 load(1, XDATA, add(CFA_XSP16, literal(-18)))
          CFI (cfiCond122) VB load(1, XDATA, add(CFA_XSP16, literal(-17)))
          CFI (cfiCond122) V0 load(1, XDATA, add(CFA_XSP16, literal(-16)))
          CFI (cfiCond122) V1 load(1, XDATA, add(CFA_XSP16, literal(-15)))
          CFI (cfiCond122) V2 load(1, XDATA, add(CFA_XSP16, literal(-14)))
          CFI (cfiCond122) V3 load(1, XDATA, add(CFA_XSP16, literal(-13)))
          CFI (cfiCond122) V4 load(1, XDATA, add(CFA_XSP16, literal(-12)))
          CFI (cfiCond122) V5 load(1, XDATA, add(CFA_XSP16, literal(-11)))
          CFI (cfiCond122) V6 load(1, XDATA, add(CFA_XSP16, literal(-10)))
          CFI (cfiCond122) V7 load(1, XDATA, add(CFA_XSP16, literal(-9)))
          CFI (cfiCond122) V8 load(1, XDATA, add(CFA_XSP16, literal(-8)))
          CFI (cfiCond122) V9 load(1, XDATA, add(CFA_XSP16, literal(-7)))
          CFI (cfiCond122) R7 load(1, XDATA, add(CFA_XSP16, literal(-6)))
          CFI (cfiCond122) ?RET_LOW load(1, XDATA, add(CFA_XSP16, literal(-5)))
          CFI (cfiCond122) ?RET_HIGH load(1, XDATA, add(CFA_XSP16, literal(-4)))
          CFI (cfiCond122) ?BRET_EXT load(1, XDATA, add(CFA_XSP16, literal(-3)))
          CFI (cfiCond122) DPL0 load(1, XDATA, add(CFA_XSP16, literal(-2)))
          CFI (cfiCond122) DPH0 load(1, XDATA, add(CFA_XSP16, literal(-1)))
          CFI (cfiCond122) CFA_SP SP+0
          CFI (cfiCond122) CFA_XSP16 add(XSP16, 22)
          CFI Block cfiCond123 Using cfiCommon0
          CFI (cfiCond123) Function SendData_MQ7
          CFI (cfiCond123) Conditional ??CrossCallReturnLabel_86
          CFI (cfiCond123) R6 load(1, XDATA, add(CFA_XSP16, literal(-24)))
          CFI (cfiCond123) VB load(1, XDATA, add(CFA_XSP16, literal(-23)))
          CFI (cfiCond123) V0 load(1, XDATA, add(CFA_XSP16, literal(-22)))
          CFI (cfiCond123) V1 load(1, XDATA, add(CFA_XSP16, literal(-21)))
          CFI (cfiCond123) V2 load(1, XDATA, add(CFA_XSP16, literal(-20)))
          CFI (cfiCond123) V3 load(1, XDATA, add(CFA_XSP16, literal(-19)))
          CFI (cfiCond123) V4 load(1, XDATA, add(CFA_XSP16, literal(-18)))
          CFI (cfiCond123) V5 load(1, XDATA, add(CFA_XSP16, literal(-17)))
          CFI (cfiCond123) V6 load(1, XDATA, add(CFA_XSP16, literal(-16)))
          CFI (cfiCond123) V7 load(1, XDATA, add(CFA_XSP16, literal(-15)))
          CFI (cfiCond123) V8 load(1, XDATA, add(CFA_XSP16, literal(-14)))
          CFI (cfiCond123) V9 load(1, XDATA, add(CFA_XSP16, literal(-13)))
          CFI (cfiCond123) V10 load(1, XDATA, add(CFA_XSP16, literal(-12)))
          CFI (cfiCond123) V11 load(1, XDATA, add(CFA_XSP16, literal(-11)))
          CFI (cfiCond123) V12 load(1, XDATA, add(CFA_XSP16, literal(-10)))
          CFI (cfiCond123) V13 load(1, XDATA, add(CFA_XSP16, literal(-9)))
          CFI (cfiCond123) V14 load(1, XDATA, add(CFA_XSP16, literal(-8)))
          CFI (cfiCond123) V15 load(1, XDATA, add(CFA_XSP16, literal(-7)))
          CFI (cfiCond123) R7 load(1, XDATA, add(CFA_XSP16, literal(-6)))
          CFI (cfiCond123) ?RET_LOW load(1, XDATA, add(CFA_XSP16, literal(-5)))
          CFI (cfiCond123) ?RET_HIGH load(1, XDATA, add(CFA_XSP16, literal(-4)))
          CFI (cfiCond123) ?BRET_EXT load(1, XDATA, add(CFA_XSP16, literal(-3)))
          CFI (cfiCond123) DPL0 load(1, XDATA, add(CFA_XSP16, literal(-2)))
          CFI (cfiCond123) DPH0 load(1, XDATA, add(CFA_XSP16, literal(-1)))
          CFI (cfiCond123) CFA_SP SP+0
          CFI (cfiCond123) CFA_XSP16 add(XSP16, 28)
          CFI Block cfiCond124 Using cfiCommon0
          CFI (cfiCond124) Function SendData_PM25
          CFI (cfiCond124) Conditional ??CrossCallReturnLabel_87
          CFI (cfiCond124) R6 load(1, XDATA, add(CFA_XSP16, literal(-16)))
          CFI (cfiCond124) VB load(1, XDATA, add(CFA_XSP16, literal(-15)))
          CFI (cfiCond124) V0 load(1, XDATA, add(CFA_XSP16, literal(-14)))
          CFI (cfiCond124) V1 load(1, XDATA, add(CFA_XSP16, literal(-13)))
          CFI (cfiCond124) V2 load(1, XDATA, add(CFA_XSP16, literal(-12)))
          CFI (cfiCond124) V3 load(1, XDATA, add(CFA_XSP16, literal(-11)))
          CFI (cfiCond124) V4 load(1, XDATA, add(CFA_XSP16, literal(-10)))
          CFI (cfiCond124) V5 load(1, XDATA, add(CFA_XSP16, literal(-9)))
          CFI (cfiCond124) V6 load(1, XDATA, add(CFA_XSP16, literal(-8)))
          CFI (cfiCond124) V7 load(1, XDATA, add(CFA_XSP16, literal(-7)))
          CFI (cfiCond124) R7 load(1, XDATA, add(CFA_XSP16, literal(-6)))
          CFI (cfiCond124) ?RET_LOW load(1, XDATA, add(CFA_XSP16, literal(-5)))
          CFI (cfiCond124) ?RET_HIGH load(1, XDATA, add(CFA_XSP16, literal(-4)))
          CFI (cfiCond124) ?BRET_EXT load(1, XDATA, add(CFA_XSP16, literal(-3)))
          CFI (cfiCond124) DPL0 load(1, XDATA, add(CFA_XSP16, literal(-2)))
          CFI (cfiCond124) DPH0 load(1, XDATA, add(CFA_XSP16, literal(-1)))
          CFI (cfiCond124) CFA_SP SP+0
          CFI (cfiCond124) CFA_XSP16 add(XSP16, 19)
          CFI Block cfiCond125 Using cfiCommon0
          CFI (cfiCond125) Function SendData_TGS813
          CFI (cfiCond125) Conditional ??CrossCallReturnLabel_88
          CFI (cfiCond125) R6 load(1, XDATA, add(CFA_XSP16, literal(-20)))
          CFI (cfiCond125) VB load(1, XDATA, add(CFA_XSP16, literal(-19)))
          CFI (cfiCond125) V0 load(1, XDATA, add(CFA_XSP16, literal(-18)))
          CFI (cfiCond125) V1 load(1, XDATA, add(CFA_XSP16, literal(-17)))
          CFI (cfiCond125) V2 load(1, XDATA, add(CFA_XSP16, literal(-16)))
          CFI (cfiCond125) V3 load(1, XDATA, add(CFA_XSP16, literal(-15)))
          CFI (cfiCond125) V4 load(1, XDATA, add(CFA_XSP16, literal(-14)))
          CFI (cfiCond125) V5 load(1, XDATA, add(CFA_XSP16, literal(-13)))
          CFI (cfiCond125) V6 load(1, XDATA, add(CFA_XSP16, literal(-12)))
          CFI (cfiCond125) V7 load(1, XDATA, add(CFA_XSP16, literal(-11)))
          CFI (cfiCond125) V8 load(1, XDATA, add(CFA_XSP16, literal(-10)))
          CFI (cfiCond125) V9 load(1, XDATA, add(CFA_XSP16, literal(-9)))
          CFI (cfiCond125) V10 load(1, XDATA, add(CFA_XSP16, literal(-8)))
          CFI (cfiCond125) V11 load(1, XDATA, add(CFA_XSP16, literal(-7)))
          CFI (cfiCond125) R7 load(1, XDATA, add(CFA_XSP16, literal(-6)))
          CFI (cfiCond125) ?RET_LOW load(1, XDATA, add(CFA_XSP16, literal(-5)))
          CFI (cfiCond125) ?RET_HIGH load(1, XDATA, add(CFA_XSP16, literal(-4)))
          CFI (cfiCond125) ?BRET_EXT load(1, XDATA, add(CFA_XSP16, literal(-3)))
          CFI (cfiCond125) DPL0 load(1, XDATA, add(CFA_XSP16, literal(-2)))
          CFI (cfiCond125) DPH0 load(1, XDATA, add(CFA_XSP16, literal(-1)))
          CFI (cfiCond125) CFA_SP SP+0
          CFI (cfiCond125) CFA_XSP16 add(XSP16, 24)
          CFI Block cfiCond126 Using cfiCommon0
          CFI (cfiCond126) Function SendData_MS1100
          CFI (cfiCond126) Conditional ??CrossCallReturnLabel_82
          CFI (cfiCond126) R6 load(1, XDATA, add(CFA_XSP16, literal(-24)))
          CFI (cfiCond126) VB load(1, XDATA, add(CFA_XSP16, literal(-23)))
          CFI (cfiCond126) V0 load(1, XDATA, add(CFA_XSP16, literal(-22)))
          CFI (cfiCond126) V1 load(1, XDATA, add(CFA_XSP16, literal(-21)))
          CFI (cfiCond126) V2 load(1, XDATA, add(CFA_XSP16, literal(-20)))
          CFI (cfiCond126) V3 load(1, XDATA, add(CFA_XSP16, literal(-19)))
          CFI (cfiCond126) V4 load(1, XDATA, add(CFA_XSP16, literal(-18)))
          CFI (cfiCond126) V5 load(1, XDATA, add(CFA_XSP16, literal(-17)))
          CFI (cfiCond126) V6 load(1, XDATA, add(CFA_XSP16, literal(-16)))
          CFI (cfiCond126) V7 load(1, XDATA, add(CFA_XSP16, literal(-15)))
          CFI (cfiCond126) V8 load(1, XDATA, add(CFA_XSP16, literal(-14)))
          CFI (cfiCond126) V9 load(1, XDATA, add(CFA_XSP16, literal(-13)))
          CFI (cfiCond126) V10 load(1, XDATA, add(CFA_XSP16, literal(-12)))
          CFI (cfiCond126) V11 load(1, XDATA, add(CFA_XSP16, literal(-11)))
          CFI (cfiCond126) V12 load(1, XDATA, add(CFA_XSP16, literal(-10)))
          CFI (cfiCond126) V13 load(1, XDATA, add(CFA_XSP16, literal(-9)))
          CFI (cfiCond126) V14 load(1, XDATA, add(CFA_XSP16, literal(-8)))
          CFI (cfiCond126) V15 load(1, XDATA, add(CFA_XSP16, literal(-7)))
          CFI (cfiCond126) R7 load(1, XDATA, add(CFA_XSP16, literal(-6)))
          CFI (cfiCond126) ?RET_LOW load(1, XDATA, add(CFA_XSP16, literal(-5)))
          CFI (cfiCond126) ?RET_HIGH load(1, XDATA, add(CFA_XSP16, literal(-4)))
          CFI (cfiCond126) ?BRET_EXT load(1, XDATA, add(CFA_XSP16, literal(-3)))
          CFI (cfiCond126) DPL0 load(1, XDATA, add(CFA_XSP16, literal(-2)))
          CFI (cfiCond126) DPH0 load(1, XDATA, add(CFA_XSP16, literal(-1)))
          CFI (cfiCond126) CFA_SP SP+0
          CFI (cfiCond126) CFA_XSP16 add(XSP16, 27)
          CFI Block cfiCond127 Using cfiCommon0
          CFI (cfiCond127) Function SendData_PM25
          CFI (cfiCond127) Conditional ??CrossCallReturnLabel_83
          CFI (cfiCond127) R6 load(1, XDATA, add(CFA_XSP16, literal(-16)))
          CFI (cfiCond127) VB load(1, XDATA, add(CFA_XSP16, literal(-15)))
          CFI (cfiCond127) V0 load(1, XDATA, add(CFA_XSP16, literal(-14)))
          CFI (cfiCond127) V1 load(1, XDATA, add(CFA_XSP16, literal(-13)))
          CFI (cfiCond127) V2 load(1, XDATA, add(CFA_XSP16, literal(-12)))
          CFI (cfiCond127) V3 load(1, XDATA, add(CFA_XSP16, literal(-11)))
          CFI (cfiCond127) V4 load(1, XDATA, add(CFA_XSP16, literal(-10)))
          CFI (cfiCond127) V5 load(1, XDATA, add(CFA_XSP16, literal(-9)))
          CFI (cfiCond127) V6 load(1, XDATA, add(CFA_XSP16, literal(-8)))
          CFI (cfiCond127) V7 load(1, XDATA, add(CFA_XSP16, literal(-7)))
          CFI (cfiCond127) R7 load(1, XDATA, add(CFA_XSP16, literal(-6)))
          CFI (cfiCond127) ?RET_LOW load(1, XDATA, add(CFA_XSP16, literal(-5)))
          CFI (cfiCond127) ?RET_HIGH load(1, XDATA, add(CFA_XSP16, literal(-4)))
          CFI (cfiCond127) ?BRET_EXT load(1, XDATA, add(CFA_XSP16, literal(-3)))
          CFI (cfiCond127) DPL0 load(1, XDATA, add(CFA_XSP16, literal(-2)))
          CFI (cfiCond127) DPH0 load(1, XDATA, add(CFA_XSP16, literal(-1)))
          CFI (cfiCond127) CFA_SP SP+0
          CFI (cfiCond127) CFA_XSP16 add(XSP16, 19)
          CFI Block cfiPicker128 Using cfiCommon1
          CFI (cfiPicker128) NoFunction
          CFI (cfiPicker128) Picker
        MOVX    @DPTR,A
        MOV     A,R4
        MOV     R0,A
        MOV     A,R5
        MOV     R1,A
        MOV     R2,#0xa
        MOV     R3,#0x0
        RET
          CFI EndBlock cfiCond121
          CFI EndBlock cfiCond122
          CFI EndBlock cfiCond123
          CFI EndBlock cfiCond124
          CFI EndBlock cfiCond125
          CFI EndBlock cfiCond126
          CFI EndBlock cfiCond127
          CFI EndBlock cfiPicker128

        RSEG XDATA_Z:XDATA:NOROOT(0)
        DATA8
// unsigned int Temp_PM25[10]
Temp_PM25:
        DS 20
        REQUIRE __INIT_XDATA_Z

        RSEG BANKED_CODE:CODE:NOROOT(0)
// __banked_func __xdata_reentrant void Init_PM25(void)
Init_PM25:
          CFI Block cfiBlock129 Using cfiCommon0
          CFI Function Init_PM25
        CODE
        ; Saved register size: 0
        ; Auto size: 0
        ANL     0xfd,#0xdf
        ORL     0xfe,#0x2
        ORL     0xf2,#0x20
        LJMP    ?BRET
          CFI EndBlock cfiBlock129
        REQUIRE P0DIR
        REQUIRE P1DIR
        REQUIRE ADCCFG

        RSEG BANKED_CODE:CODE:NOROOT(0)
// __banked_func __xdata_reentrant void background_PM25_ADC(void)
background_PM25_ADC:
          CFI Block cfiBlock130 Using cfiCommon0
          CFI Function background_PM25_ADC
        CODE
        MOV     A,#-0xa
        LCALL   ?BANKED_ENTER_XDATA
          CFI DPH0 load(1, XDATA, add(CFA_XSP16, literal(-1)))
          CFI DPL0 load(1, XDATA, add(CFA_XSP16, literal(-2)))
          CFI ?BRET_EXT load(1, XDATA, add(CFA_XSP16, literal(-3)))
          CFI ?RET_HIGH load(1, XDATA, add(CFA_XSP16, literal(-4)))
          CFI ?RET_LOW load(1, XDATA, add(CFA_XSP16, literal(-5)))
          CFI R7 load(1, XDATA, add(CFA_XSP16, literal(-6)))
          CFI V1 load(1, XDATA, add(CFA_XSP16, literal(-7)))
          CFI V0 load(1, XDATA, add(CFA_XSP16, literal(-8)))
          CFI VB load(1, XDATA, add(CFA_XSP16, literal(-9)))
          CFI R6 load(1, XDATA, add(CFA_XSP16, literal(-10)))
          CFI CFA_SP SP+0
          CFI CFA_XSP16 add(XSP16, 10)
        ; Saved register size: 10
        ; Auto size: 0
        MOV     0xb4,#0x30
        MOV     0xb6,#-0x4b
        ORL     0xb4,#0x40
??background_PM25_ADC_0:
        MOV     A,0xb4
        MOV     C,0xE0 /* A   */.7
        JNC     ??background_PM25_ADC_0
        LCALL   ?Subroutine27 & 0xFFFF
??CrossCallReturnLabel_47:
        LCALL   ?S_SHL
        LCALL   ?Subroutine28 & 0xFFFF
??CrossCallReturnLabel_52:
        MOV     DPTR,#??i_1
        LCALL   ?Subroutine9 & 0xFFFF
??CrossCallReturnLabel_9:
        MOV     A,#Temp_PM25 & 0xff
        ADD     A,R0
        MOV     DPL,A
        MOV     A,#(Temp_PM25 >> 8) & 0xff
        LCALL   ?Subroutine31 & 0xFFFF
??CrossCallReturnLabel_62:
        MOV     DPTR,#??i_1
        LCALL   ?Subroutine14 & 0xFFFF
??CrossCallReturnLabel_24:
        MOV     DPTR,#??i_1
        MOVX    A,@DPTR
        XRL     A,#0xa
        JNZ     ??background_PM25_ADC_1
        INC     DPTR
        MOVX    A,@DPTR
??background_PM25_ADC_1:
        JNZ     ??background_PM25_ADC_2
        MOV     DPTR,#??i_1
        CLR     A
        MOVX    @DPTR,A
        INC     DPTR
        MOVX    @DPTR,A
??background_PM25_ADC_2:
        LJMP    ?Subroutine2 & 0xFFFF
          CFI EndBlock cfiBlock130
        REQUIRE ADCCON1
        REQUIRE ADCCON3
        REQUIRE ADCL
        REQUIRE ADCH

        RSEG BANKED_CODE:CODE:NOROOT(0)
?Subroutine31:
          CFI Block cfiCond131 Using cfiCommon0
          CFI Function background_MS1100
          CFI Conditional ??CrossCallReturnLabel_60
          CFI R6 load(1, XDATA, add(CFA_XSP16, literal(-10)))
          CFI VB load(1, XDATA, add(CFA_XSP16, literal(-9)))
          CFI V0 load(1, XDATA, add(CFA_XSP16, literal(-8)))
          CFI V1 load(1, XDATA, add(CFA_XSP16, literal(-7)))
          CFI R7 load(1, XDATA, add(CFA_XSP16, literal(-6)))
          CFI ?RET_LOW load(1, XDATA, add(CFA_XSP16, literal(-5)))
          CFI ?RET_HIGH load(1, XDATA, add(CFA_XSP16, literal(-4)))
          CFI ?BRET_EXT load(1, XDATA, add(CFA_XSP16, literal(-3)))
          CFI DPL0 load(1, XDATA, add(CFA_XSP16, literal(-2)))
          CFI DPH0 load(1, XDATA, add(CFA_XSP16, literal(-1)))
          CFI CFA_SP SP+0
          CFI CFA_XSP16 add(XSP16, 10)
          CFI Block cfiCond132 Using cfiCommon0
          CFI (cfiCond132) Function background_MQ7
          CFI (cfiCond132) Conditional ??CrossCallReturnLabel_61
          CFI (cfiCond132) R6 load(1, XDATA, add(CFA_XSP16, literal(-10)))
          CFI (cfiCond132) VB load(1, XDATA, add(CFA_XSP16, literal(-9)))
          CFI (cfiCond132) V0 load(1, XDATA, add(CFA_XSP16, literal(-8)))
          CFI (cfiCond132) V1 load(1, XDATA, add(CFA_XSP16, literal(-7)))
          CFI (cfiCond132) R7 load(1, XDATA, add(CFA_XSP16, literal(-6)))
          CFI (cfiCond132) ?RET_LOW load(1, XDATA, add(CFA_XSP16, literal(-5)))
          CFI (cfiCond132) ?RET_HIGH load(1, XDATA, add(CFA_XSP16, literal(-4)))
          CFI (cfiCond132) ?BRET_EXT load(1, XDATA, add(CFA_XSP16, literal(-3)))
          CFI (cfiCond132) DPL0 load(1, XDATA, add(CFA_XSP16, literal(-2)))
          CFI (cfiCond132) DPH0 load(1, XDATA, add(CFA_XSP16, literal(-1)))
          CFI (cfiCond132) CFA_SP SP+0
          CFI (cfiCond132) CFA_XSP16 add(XSP16, 10)
          CFI Block cfiCond133 Using cfiCommon0
          CFI (cfiCond133) Function background_PM25_ADC
          CFI (cfiCond133) Conditional ??CrossCallReturnLabel_62
          CFI (cfiCond133) R6 load(1, XDATA, add(CFA_XSP16, literal(-10)))
          CFI (cfiCond133) VB load(1, XDATA, add(CFA_XSP16, literal(-9)))
          CFI (cfiCond133) V0 load(1, XDATA, add(CFA_XSP16, literal(-8)))
          CFI (cfiCond133) V1 load(1, XDATA, add(CFA_XSP16, literal(-7)))
          CFI (cfiCond133) R7 load(1, XDATA, add(CFA_XSP16, literal(-6)))
          CFI (cfiCond133) ?RET_LOW load(1, XDATA, add(CFA_XSP16, literal(-5)))
          CFI (cfiCond133) ?RET_HIGH load(1, XDATA, add(CFA_XSP16, literal(-4)))
          CFI (cfiCond133) ?BRET_EXT load(1, XDATA, add(CFA_XSP16, literal(-3)))
          CFI (cfiCond133) DPL0 load(1, XDATA, add(CFA_XSP16, literal(-2)))
          CFI (cfiCond133) DPH0 load(1, XDATA, add(CFA_XSP16, literal(-1)))
          CFI (cfiCond133) CFA_SP SP+0
          CFI (cfiCond133) CFA_XSP16 add(XSP16, 10)
          CFI Block cfiCond134 Using cfiCommon0
          CFI (cfiCond134) Function background_TGS813
          CFI (cfiCond134) Conditional ??CrossCallReturnLabel_63
          CFI (cfiCond134) R6 load(1, XDATA, add(CFA_XSP16, literal(-10)))
          CFI (cfiCond134) VB load(1, XDATA, add(CFA_XSP16, literal(-9)))
          CFI (cfiCond134) V0 load(1, XDATA, add(CFA_XSP16, literal(-8)))
          CFI (cfiCond134) V1 load(1, XDATA, add(CFA_XSP16, literal(-7)))
          CFI (cfiCond134) R7 load(1, XDATA, add(CFA_XSP16, literal(-6)))
          CFI (cfiCond134) ?RET_LOW load(1, XDATA, add(CFA_XSP16, literal(-5)))
          CFI (cfiCond134) ?RET_HIGH load(1, XDATA, add(CFA_XSP16, literal(-4)))
          CFI (cfiCond134) ?BRET_EXT load(1, XDATA, add(CFA_XSP16, literal(-3)))
          CFI (cfiCond134) DPL0 load(1, XDATA, add(CFA_XSP16, literal(-2)))
          CFI (cfiCond134) DPH0 load(1, XDATA, add(CFA_XSP16, literal(-1)))
          CFI (cfiCond134) CFA_SP SP+0
          CFI (cfiCond134) CFA_XSP16 add(XSP16, 10)
          CFI Block cfiPicker135 Using cfiCommon1
          CFI (cfiPicker135) NoFunction
          CFI (cfiPicker135) Picker
        ADDC    A,R1
        MOV     DPH,A
        MOV     A,R2
        MOVX    @DPTR,A
        INC     DPTR
        MOV     A,R3
        MOVX    @DPTR,A
        RET
          CFI EndBlock cfiCond131
          CFI EndBlock cfiCond132
          CFI EndBlock cfiCond133
          CFI EndBlock cfiCond134
          CFI EndBlock cfiPicker135

        RSEG BANKED_CODE:CODE:NOROOT(0)
?Subroutine14:
          CFI Block cfiCond136 Using cfiCommon0
          CFI Function background_MS1100
          CFI Conditional ??CrossCallReturnLabel_21
          CFI R6 load(1, XDATA, add(CFA_XSP16, literal(-10)))
          CFI VB load(1, XDATA, add(CFA_XSP16, literal(-9)))
          CFI V0 load(1, XDATA, add(CFA_XSP16, literal(-8)))
          CFI V1 load(1, XDATA, add(CFA_XSP16, literal(-7)))
          CFI R7 load(1, XDATA, add(CFA_XSP16, literal(-6)))
          CFI ?RET_LOW load(1, XDATA, add(CFA_XSP16, literal(-5)))
          CFI ?RET_HIGH load(1, XDATA, add(CFA_XSP16, literal(-4)))
          CFI ?BRET_EXT load(1, XDATA, add(CFA_XSP16, literal(-3)))
          CFI DPL0 load(1, XDATA, add(CFA_XSP16, literal(-2)))
          CFI DPH0 load(1, XDATA, add(CFA_XSP16, literal(-1)))
          CFI CFA_SP SP+0
          CFI CFA_XSP16 add(XSP16, 10)
          CFI Block cfiCond137 Using cfiCommon0
          CFI (cfiCond137) Function background_TGS4161
          CFI (cfiCond137) Conditional ??CrossCallReturnLabel_22
          CFI (cfiCond137) R6 load(1, XDATA, add(CFA_XSP16, literal(-10)))
          CFI (cfiCond137) VB load(1, XDATA, add(CFA_XSP16, literal(-9)))
          CFI (cfiCond137) V0 load(1, XDATA, add(CFA_XSP16, literal(-8)))
          CFI (cfiCond137) V1 load(1, XDATA, add(CFA_XSP16, literal(-7)))
          CFI (cfiCond137) R7 load(1, XDATA, add(CFA_XSP16, literal(-6)))
          CFI (cfiCond137) ?RET_LOW load(1, XDATA, add(CFA_XSP16, literal(-5)))
          CFI (cfiCond137) ?RET_HIGH load(1, XDATA, add(CFA_XSP16, literal(-4)))
          CFI (cfiCond137) ?BRET_EXT load(1, XDATA, add(CFA_XSP16, literal(-3)))
          CFI (cfiCond137) DPL0 load(1, XDATA, add(CFA_XSP16, literal(-2)))
          CFI (cfiCond137) DPH0 load(1, XDATA, add(CFA_XSP16, literal(-1)))
          CFI (cfiCond137) CFA_SP SP+0
          CFI (cfiCond137) CFA_XSP16 add(XSP16, 10)
          CFI Block cfiCond138 Using cfiCommon0
          CFI (cfiCond138) Function background_MQ7
          CFI (cfiCond138) Conditional ??CrossCallReturnLabel_23
          CFI (cfiCond138) R6 load(1, XDATA, add(CFA_XSP16, literal(-10)))
          CFI (cfiCond138) VB load(1, XDATA, add(CFA_XSP16, literal(-9)))
          CFI (cfiCond138) V0 load(1, XDATA, add(CFA_XSP16, literal(-8)))
          CFI (cfiCond138) V1 load(1, XDATA, add(CFA_XSP16, literal(-7)))
          CFI (cfiCond138) R7 load(1, XDATA, add(CFA_XSP16, literal(-6)))
          CFI (cfiCond138) ?RET_LOW load(1, XDATA, add(CFA_XSP16, literal(-5)))
          CFI (cfiCond138) ?RET_HIGH load(1, XDATA, add(CFA_XSP16, literal(-4)))
          CFI (cfiCond138) ?BRET_EXT load(1, XDATA, add(CFA_XSP16, literal(-3)))
          CFI (cfiCond138) DPL0 load(1, XDATA, add(CFA_XSP16, literal(-2)))
          CFI (cfiCond138) DPH0 load(1, XDATA, add(CFA_XSP16, literal(-1)))
          CFI (cfiCond138) CFA_SP SP+0
          CFI (cfiCond138) CFA_XSP16 add(XSP16, 10)
          CFI Block cfiCond139 Using cfiCommon0
          CFI (cfiCond139) Function background_PM25_ADC
          CFI (cfiCond139) Conditional ??CrossCallReturnLabel_24
          CFI (cfiCond139) R6 load(1, XDATA, add(CFA_XSP16, literal(-10)))
          CFI (cfiCond139) VB load(1, XDATA, add(CFA_XSP16, literal(-9)))
          CFI (cfiCond139) V0 load(1, XDATA, add(CFA_XSP16, literal(-8)))
          CFI (cfiCond139) V1 load(1, XDATA, add(CFA_XSP16, literal(-7)))
          CFI (cfiCond139) R7 load(1, XDATA, add(CFA_XSP16, literal(-6)))
          CFI (cfiCond139) ?RET_LOW load(1, XDATA, add(CFA_XSP16, literal(-5)))
          CFI (cfiCond139) ?RET_HIGH load(1, XDATA, add(CFA_XSP16, literal(-4)))
          CFI (cfiCond139) ?BRET_EXT load(1, XDATA, add(CFA_XSP16, literal(-3)))
          CFI (cfiCond139) DPL0 load(1, XDATA, add(CFA_XSP16, literal(-2)))
          CFI (cfiCond139) DPH0 load(1, XDATA, add(CFA_XSP16, literal(-1)))
          CFI (cfiCond139) CFA_SP SP+0
          CFI (cfiCond139) CFA_XSP16 add(XSP16, 10)
          CFI Block cfiCond140 Using cfiCommon0
          CFI (cfiCond140) Function background_TGS813
          CFI (cfiCond140) Conditional ??CrossCallReturnLabel_25
          CFI (cfiCond140) R6 load(1, XDATA, add(CFA_XSP16, literal(-10)))
          CFI (cfiCond140) VB load(1, XDATA, add(CFA_XSP16, literal(-9)))
          CFI (cfiCond140) V0 load(1, XDATA, add(CFA_XSP16, literal(-8)))
          CFI (cfiCond140) V1 load(1, XDATA, add(CFA_XSP16, literal(-7)))
          CFI (cfiCond140) R7 load(1, XDATA, add(CFA_XSP16, literal(-6)))
          CFI (cfiCond140) ?RET_LOW load(1, XDATA, add(CFA_XSP16, literal(-5)))
          CFI (cfiCond140) ?RET_HIGH load(1, XDATA, add(CFA_XSP16, literal(-4)))
          CFI (cfiCond140) ?BRET_EXT load(1, XDATA, add(CFA_XSP16, literal(-3)))
          CFI (cfiCond140) DPL0 load(1, XDATA, add(CFA_XSP16, literal(-2)))
          CFI (cfiCond140) DPH0 load(1, XDATA, add(CFA_XSP16, literal(-1)))
          CFI (cfiCond140) CFA_SP SP+0
          CFI (cfiCond140) CFA_XSP16 add(XSP16, 10)
          CFI Block cfiCond141 Using cfiCommon0
          CFI (cfiCond141) Function SampleApp_MessageMSGCB
          CFI (cfiCond141) Conditional ??CrossCallReturnLabel_26
          CFI (cfiCond141) R6 load(1, XDATA, add(CFA_XSP16, literal(-11)))
          CFI (cfiCond141) VB load(1, XDATA, add(CFA_XSP16, literal(-10)))
          CFI (cfiCond141) V0 load(1, XDATA, add(CFA_XSP16, literal(-9)))
          CFI (cfiCond141) V1 load(1, XDATA, add(CFA_XSP16, literal(-8)))
          CFI (cfiCond141) V2 load(1, XDATA, add(CFA_XSP16, literal(-7)))
          CFI (cfiCond141) R7 load(1, XDATA, add(CFA_XSP16, literal(-6)))
          CFI (cfiCond141) ?RET_LOW load(1, XDATA, add(CFA_XSP16, literal(-5)))
          CFI (cfiCond141) ?RET_HIGH load(1, XDATA, add(CFA_XSP16, literal(-4)))
          CFI (cfiCond141) ?BRET_EXT load(1, XDATA, add(CFA_XSP16, literal(-3)))
          CFI (cfiCond141) DPL0 load(1, XDATA, add(CFA_XSP16, literal(-2)))
          CFI (cfiCond141) DPH0 load(1, XDATA, add(CFA_XSP16, literal(-1)))
          CFI (cfiCond141) CFA_SP SP+0
          CFI (cfiCond141) CFA_XSP16 add(XSP16, 11)
          CFI Block cfiPicker142 Using cfiCommon1
          CFI (cfiPicker142) NoFunction
          CFI (cfiPicker142) Picker
        LCALL   ?Subroutine34 & 0xFFFF
??CrossCallReturnLabel_67:
        RET
          CFI EndBlock cfiCond136
          CFI EndBlock cfiCond137
          CFI EndBlock cfiCond138
          CFI EndBlock cfiCond139
          CFI EndBlock cfiCond140
