###############################################################################
#                                                                             #
# IAR C/C++ Compiler V8.20.2.41139 for 8051             05/Oct/2015  18:23:57 #
# Copyright 2004-2013 IAR Systems AB.                                         #
#                                                                             #
#    Core               =  plain                                              #
#    Code model         =  banked                                             #
#    Data model         =  large                                              #
#    Calling convention =  xdata reentrant                                    #
#    Constant location  =  data_rom                                           #
#    Dptr setup         =  1,16                                               #
#                                                                             #
#    Source file        =  C:\Users\user\Desktop\3 new task perfect ROOM1     #
#                          DHT22\ZStack-2.5.1a\Projects\zstack\Samples\Sample #
#                          App\Source\SampleApp.c                             #
#    Command line       =  -f "C:\Users\user\Desktop\3 new task perfect       #
#                          ROOM1 DHT22\ZStack-2.5.1a\Projects\zstack\Samples\ #
#                          SampleApp\CC2530DB\..\..\..\Tools\CC2530DB\f8wEnde #
#                          v.cfg" (-DCPU32MHZ -DROOT=__near_func              #
#                          -DMAC_CFG_TX_DATA_MAX=3 -DMAC_CFG_TX_MAX=6         #
#                          -DMAC_CFG_RX_MAX=3) -f "C:\Users\user\Desktop\3    #
#                          new task perfect ROOM1 DHT22\ZStack-2.5.1a\Project #
#                          s\zstack\Samples\SampleApp\CC2530DB\..\..\..\Tools #
#                          \CC2530DB\f8wConfig.cfg" (-DZIGBEEPRO -DSECURE=0   #
#                          -DZG_SECURE_DYNAMIC=0 -DREFLECTOR                  #
#                          -DDEFAULT_CHANLIST=0x00000800                      #
#                          -DZDAPP_CONFIG_PAN_ID=0xFFF1                       #
#                          -DNWK_START_DELAY=100 -DEXTENDED_JOINING_RANDOM_MA #
#                          SK=0x007F -DBEACON_REQUEST_DELAY=100               #
#                          -DBEACON_REQ_DELAY_MASK=0x00FF                     #
#                          -DLINK_STATUS_JITTER_MASK=0x007F                   #
#                          -DROUTE_EXPIRY_TIME=30 -DAPSC_ACK_WAIT_DURATION_PO #
#                          LLED=3000 -DNWK_INDIRECT_MSG_TIMEOUT=7             #
#                          -DMAX_RREQ_ENTRIES=8 -DAPSC_MAX_FRAME_RETRIES=3    #
#                          -DNWK_MAX_DATA_RETRIES=2                           #
#                          -DMAX_POLL_FAILURE_RETRIES=2 -DMAX_BCAST=9         #
#                          -DAPS_MAX_GROUPS=16 -DMAX_RTG_ENTRIES=40           #
#                          -DNWK_MAX_BINDING_ENTRIES=4                        #
#                          -DMAX_BINDING_CLUSTER_IDS=4 "-DDEFAULT_KEY={0x01,  #
#                          0x03, 0x05, 0x07, 0x09, 0x0B, 0x0D, 0x0F, 0x00,    #
#                          0x02, 0x04, 0x06, 0x08, 0x0A, 0x0C, 0x0D}"         #
#                          -DMAC_MAX_FRAME_SIZE=116                           #
#                          -DZDNWKMGR_MIN_TRANSMISSIONS=20 "-DCONST=const     #
#                          __code" -DGENERIC=__generic                        #
#                          -DRFD_RCVC_ALWAYS_ON=FALSE -DPOLL_RATE=1000        #
#                          -DQUEUED_POLL_RATE=100 -DRESPONSE_POLL_RATE=100)   #
#                          -DREJOIN_POLL_RATE=440 "C:\Users\user\Desktop\3    #
#                          new task perfect ROOM1 DHT22\ZStack-2.5.1a\Project #
#                          s\zstack\Samples\SampleApp\Source\SampleApp.c" -D  #
#                          NWK_AUTO_POLL -D ZTOOL_P1 -D MT_TASK -D            #
#                          MT_SYS_FUNC -D MT_ZDO_FUNC -D LCD_SUPPORTED=DEBUG  #
#                          -lC "C:\Users\user\Desktop\3 new task perfect      #
#                          ROOM1 DHT22\ZStack-2.5.1a\Projects\zstack\Samples\ #
#                          SampleApp\CC2530DB\EndDeviceEB\List\" -lA          #
#                          "C:\Users\user\Desktop\3 new task perfect ROOM1    #
#                          DHT22\ZStack-2.5.1a\Projects\zstack\Samples\Sample #
#                          App\CC2530DB\EndDeviceEB\List\" --diag_suppress    #
#                          Pe001,Pa010 -o "C:\Users\user\Desktop\3 new task   #
#                          perfect ROOM1 DHT22\ZStack-2.5.1a\Projects\zstack\ #
#                          Samples\SampleApp\CC2530DB\EndDeviceEB\Obj\" -e    #
#                          --no_code_motion --debug --core=plain --dptr=16,1  #
#                          --data_model=large --code_model=banked             #
#                          --calling_convention=xdata_reentrant               #
#                          --place_constants=data_rom --nr_virtual_regs 16    #
#                          -I "C:\Users\user\Desktop\3 new task perfect       #
#                          ROOM1 DHT22\ZStack-2.5.1a\Projects\zstack\Samples\ #
#                          SampleApp\CC2530DB\" -I "C:\Users\user\Desktop\3   #
#                          new task perfect ROOM1 DHT22\ZStack-2.5.1a\Project #
#                          s\zstack\Samples\SampleApp\CC2530DB\..\Source\"    #
#                          -I "C:\Users\user\Desktop\3 new task perfect       #
#                          ROOM1 DHT22\ZStack-2.5.1a\Projects\zstack\Samples\ #
#                          SampleApp\CC2530DB\..\..\..\ZMain\TI2530DB\" -I    #
#                          "C:\Users\user\Desktop\3 new task perfect ROOM1    #
#                          DHT22\ZStack-2.5.1a\Projects\zstack\Samples\Sample #
#                          App\CC2530DB\..\..\..\..\..\Components\hal\include #
#                          \" -I "C:\Users\user\Desktop\3 new task perfect    #
#                          ROOM1 DHT22\ZStack-2.5.1a\Projects\zstack\Samples\ #
#                          SampleApp\CC2530DB\..\..\..\..\..\Components\hal\t #
#                          arget\CC2530EB\" -I "C:\Users\user\Desktop\3 new   #
#                          task perfect ROOM1 DHT22\ZStack-2.5.1a\Projects\zs #
#                          tack\Samples\SampleApp\CC2530DB\..\..\..\..\..\Com #
#                          ponents\mac\include\" -I "C:\Users\user\Desktop\3  #
#                          new task perfect ROOM1 DHT22\ZStack-2.5.1a\Project #
#                          s\zstack\Samples\SampleApp\CC2530DB\..\..\..\..\.. #
#                          \Components\mac\high_level\" -I                    #
#                          "C:\Users\user\Desktop\3 new task perfect ROOM1    #
#                          DHT22\ZStack-2.5.1a\Projects\zstack\Samples\Sample #
#                          App\CC2530DB\..\..\..\..\..\Components\mac\low_lev #
#                          el\srf04\" -I "C:\Users\user\Desktop\3 new task    #
#                          perfect ROOM1 DHT22\ZStack-2.5.1a\Projects\zstack\ #
#                          Samples\SampleApp\CC2530DB\..\..\..\..\..\Componen #
#                          ts\mac\low_level\srf04\single_chip\" -I            #
#                          "C:\Users\user\Desktop\3 new task perfect ROOM1    #
#                          DHT22\ZStack-2.5.1a\Projects\zstack\Samples\Sample #
#                          App\CC2530DB\..\..\..\..\..\Components\mt\" -I     #
#                          "C:\Users\user\Desktop\3 new task perfect ROOM1    #
#                          DHT22\ZStack-2.5.1a\Projects\zstack\Samples\Sample #
#                          App\CC2530DB\..\..\..\..\..\Components\osal\includ #
#                          e\" -I "C:\Users\user\Desktop\3 new task perfect   #
#                          ROOM1 DHT22\ZStack-2.5.1a\Projects\zstack\Samples\ #
#                          SampleApp\CC2530DB\..\..\..\..\..\Components\servi #
#                          ces\saddr\" -I "C:\Users\user\Desktop\3 new task   #
#                          perfect ROOM1 DHT22\ZStack-2.5.1a\Projects\zstack\ #
#                          Samples\SampleApp\CC2530DB\..\..\..\..\..\Componen #
#                          ts\services\sdata\" -I "C:\Users\user\Desktop\3    #
#                          new task perfect ROOM1 DHT22\ZStack-2.5.1a\Project #
#                          s\zstack\Samples\SampleApp\CC2530DB\..\..\..\..\.. #
#                          \Components\stack\af\" -I                          #
#                          "C:\Users\user\Desktop\3 new task perfect ROOM1    #
#                          DHT22\ZStack-2.5.1a\Projects\zstack\Samples\Sample #
#                          App\CC2530DB\..\..\..\..\..\Components\stack\nwk\" #
#                           -I "C:\Users\user\Desktop\3 new task perfect      #
#                          ROOM1 DHT22\ZStack-2.5.1a\Projects\zstack\Samples\ #
#                          SampleApp\CC2530DB\..\..\..\..\..\Components\stack #
#                          \sapi\" -I "C:\Users\user\Desktop\3 new task       #
#                          perfect ROOM1 DHT22\ZStack-2.5.1a\Projects\zstack\ #
#                          Samples\SampleApp\CC2530DB\..\..\..\..\..\Componen #
#                          ts\stack\sec\" -I "C:\Users\user\Desktop\3 new     #
#                          task perfect ROOM1 DHT22\ZStack-2.5.1a\Projects\zs #
#                          tack\Samples\SampleApp\CC2530DB\..\..\..\..\..\Com #
#                          ponents\stack\sys\" -I "C:\Users\user\Desktop\3    #
#                          new task perfect ROOM1 DHT22\ZStack-2.5.1a\Project #
#                          s\zstack\Samples\SampleApp\CC2530DB\..\..\..\..\.. #
#                          \Components\stack\zdo\" -I                         #
#                          "C:\Users\user\Desktop\3 new task perfect ROOM1    #
#                          DHT22\ZStack-2.5.1a\Projects\zstack\Samples\Sample #
#                          App\CC2530DB\..\..\..\..\..\Components\zmac\" -I   #
#                          "C:\Users\user\Desktop\3 new task perfect ROOM1    #
#                          DHT22\ZStack-2.5.1a\Projects\zstack\Samples\Sample #
#                          App\CC2530DB\..\..\..\..\..\Components\zmac\f8w\"  #
#                          -Ohz                                               #
#    List file          =  C:\Users\user\Desktop\3 new task perfect ROOM1     #
#                          DHT22\ZStack-2.5.1a\Projects\zstack\Samples\Sample #
#                          App\CC2530DB\EndDeviceEB\List\SampleApp.lst        #
#    Object file        =  C:\Users\user\Desktop\3 new task perfect ROOM1     #
#                          DHT22\ZStack-2.5.1a\Projects\zstack\Samples\Sample #
#                          App\CC2530DB\EndDeviceEB\Obj\SampleApp.r51         #
#                                                                             #
#                                                                             #
###############################################################################

C:\Users\user\Desktop\3 new task perfect ROOM1 DHT22\ZStack-2.5.1a\Projects\zstack\Samples\SampleApp\Source\SampleApp.c
      1          /**************************************************************************************************
      2            Filename:       SampleApp.c
      3            Revised:        $Date: 2009-03-18 15:56:27 -0700 (Wed, 18 Mar 2009) $
      4            Revision:       $Revision: 19453 $
      5          
      6            Description:    Sample Application (no Profile).
      7          
      8          
      9            Copyright 2007 Texas Instruments Incorporated. All rights reserved.
     10          
     11            IMPORTANT: Your use of this Software is limited to those specific rights
     12            granted under the terms of a software license agreement between the user
     13            who downloaded the software, his/her employer (which must be your employer)
     14            and Texas Instruments Incorporated (the "License").  You may not use this
     15            Software unless you agree to abide by the terms of the License. The License
     16            limits your use, and you acknowledge, that the Software may not be modified,
     17            copied or distributed unless embedded on a Texas Instruments microcontroller
     18            or used solely and exclusively in conjunction with a Texas Instruments radio
     19            frequency transceiver, which is integrated into your product.  Other than for
     20            the foregoing purpose, you may not use, reproduce, copy, prepare derivative
     21            works of, modify, distribute, perform, display or sell this Software and/or
     22            its documentation for any purpose.
     23          
     24            YOU FURTHER ACKNOWLEDGE AND AGREE THAT THE SOFTWARE AND DOCUMENTATION ARE
     25            PROVIDED ÙjS IS?WITHOUT WARRANTY OF ANY KIND, EITHER EXPRESS OR IMPLIED,
     26            INCLUDING WITHOUT LIMITATION, ANY WARRANTY OF MERCHANTABILITY, TITLE,
     27            NON-INFRINGEMENT AND FITNESS FOR A PARTICULAR PURPOSE. IN NO EVENT SHALL
     28            TEXAS INSTRUMENTS OR ITS LICENSORS BE LIABLE OR OBLIGATED UNDER CONTRACT,
     29            NEGLIGENCE, STRICT LIABILITY, CONTRIBUTION, BREACH OF WARRANTY, OR OTHER
     30            LEGAL EQUITABLE THEORY ANY DIRECT OR INDIRECT DAMAGES OR EXPENSES
     31            INCLUDING BUT NOT LIMITED TO ANY INCIDENTAL, SPECIAL, INDIRECT, PUNITIVE
     32            OR CONSEQUENTIAL DAMAGES, LOST PROFITS OR LOST DATA, COST OF PROCUREMENT
     33            OF SUBSTITUTE GOODS, TECHNOLOGY, SERVICES, OR ANY CLAIMS BY THIRD PARTIES
     34            (INCLUDING BUT NOT LIMITED TO ANY DEFENSE THEREOF), OR OTHER SIMILAR COSTS.
     35          
     36            Should you have any questions regarding your right to use this Software,
     37            contact Texas Instruments Incorporated at www.TI.com.
     38          **************************************************************************************************/
     39          
     40          /*********************************************************************
     41            This application isn't intended to do anything useful, it is
     42            intended to be a simple example of an application's structure.
     43          
     44            This application sends it's messages either as broadcast or
     45            broadcast filtered group messages.  The other (more normal)
     46            message addressing is unicast.  Most of the other sample
     47            applications are written to support the unicast message model.
     48          
     49            Key control:
     50              SW1:  Sends a flash command to all devices in Group 1.
     51              SW2:  Adds/Removes (toggles) this device in and out
     52                    of Group 1.  This will enable and disable the
     53                    reception of the flash command.
     54          *********************************************************************/
     55          
     56          /*********************************************************************
     57           * INCLUDES
     58           */
     59          #include <ioCC2530.h>

   \                                 In  segment SFR_AN, at 0x80
   \   union <unnamed> volatile __sfr _A_P0
   \                     _A_P0:
   \   000000                DS 1

   \                                 In  segment SFR_AN, at 0x90
   \   union <unnamed> volatile __sfr _A_P1
   \                     _A_P1:
   \   000000                DS 1

   \                                 In  segment SFR_AN, at 0xb4
   \   unsigned char volatile __sfr ADCCON1
   \                     ADCCON1:
   \   000000                DS 1

   \                                 In  segment SFR_AN, at 0xb6
   \   unsigned char volatile __sfr ADCCON3
   \                     ADCCON3:
   \   000000                DS 1

   \                                 In  segment SFR_AN, at 0xba
   \   unsigned char volatile __sfr ADCL
   \                     ADCL:
   \   000000                DS 1

   \                                 In  segment SFR_AN, at 0xbb
   \   unsigned char volatile __sfr ADCH
   \                     ADCH:
   \   000000                DS 1

   \                                 In  segment SFR_AN, at 0xf2
   \   unsigned char volatile __sfr ADCCFG
   \                     ADCCFG:
   \   000000                DS 1

   \                                 In  segment SFR_AN, at 0xfd
   \   unsigned char volatile __sfr P0DIR
   \                     P0DIR:
   \   000000                DS 1

   \                                 In  segment SFR_AN, at 0xfe
   \   unsigned char volatile __sfr P1DIR
   \                     P1DIR:
   \   000000                DS 1
     60          #include "OSAL.h"
     61          #include "ZGlobals.h"
     62          #include "AF.h"
     63          #include "aps_groups.h"
     64          #include "ZDApp.h"
     65          
     66          #include "SampleApp.h"
     67          #include "SampleAppHw.h"
     68          
     69          #include "OnBoard.h"
     70          
     71          /* HAL */
     72          #include "hal_lcd.h"
     73          #include "hal_led.h"
     74          #include "hal_key.h"
     75          #include "MT_UART.h"
     76          #include "MT_APP.h"
     77          #include "MT.h"
     78          
     79          
     80          #include "Sensor.h"

   \                                 In  segment XDATA_Z, align 1, keep-with-next
   \   unsigned int wendu
   \                     wendu:
   \   000000                DS 2
   \   000002                REQUIRE __INIT_XDATA_Z

   \                                 In  segment XDATA_Z, align 1, keep-with-next
   \   unsigned int shidu
   \                     shidu:
   \   000000                DS 2
   \   000002                REQUIRE __INIT_XDATA_Z

   \                                 In  segment XDATA_Z, align 1, keep-with-next
   \   int shiduTemp[10]
   \                     shiduTemp:
   \   000000                DS 20
   \   000014                REQUIRE __INIT_XDATA_Z

   \                                 In  segment XDATA_Z, align 1, keep-with-next
   \   int wenduTemp[10]
   \                     wenduTemp:
   \   000000                DS 20
   \   000014                REQUIRE __INIT_XDATA_Z

   \                                 In  segment XDATA_Z, align 1, keep-with-next
   \   unsigned char DHT22_num
   \                     DHT22_num:
   \   000000                DS 1
   \   000001                REQUIRE __INIT_XDATA_Z

   \                                 In  segment XDATA_Z, align 1, keep-with-next
   \   uchar ucharFLAG
   \                     ucharFLAG:
   \   000000                DS 1
   \   000001                REQUIRE __INIT_XDATA_Z

   \                                 In  segment XDATA_Z, align 1, keep-with-next
   \   uchar uchartemp
   \                     uchartemp:
   \   000000                DS 1
   \   000001                REQUIRE __INIT_XDATA_Z

   \                                 In  segment XDATA_Z, align 1, keep-with-next
   \   uchar shidu_shi
   \                     shidu_shi:
   \   000000                DS 1
   \   000001                REQUIRE __INIT_XDATA_Z

   \                                 In  segment XDATA_Z, align 1, keep-with-next
   \   uchar shidu_ge
   \                     shidu_ge:
   \   000000                DS 1
   \   000001                REQUIRE __INIT_XDATA_Z

   \                                 In  segment XDATA_Z, align 1, keep-with-next
   \   uchar wendu_shi
   \                     wendu_shi:
   \   000000                DS 1
   \   000001                REQUIRE __INIT_XDATA_Z

   \                                 In  segment XDATA_Z, align 1, keep-with-next
   \   uchar wendu_ge
   \                     wendu_ge:
   \   000000                DS 1
   \   000001                REQUIRE __INIT_XDATA_Z

   \                                 In  segment XDATA_Z, align 1, keep-with-next
   \   uchar wendu_dian
   \                     wendu_dian:
   \   000000                DS 1
   \   000001                REQUIRE __INIT_XDATA_Z

   \                                 In  segment XDATA_Z, align 1, keep-with-next
   \   uchar shidu_dian
   \                     shidu_dian:
   \   000000                DS 1
   \   000001                REQUIRE __INIT_XDATA_Z

   \                                 In  segment XDATA_Z, align 1, keep-with-next
   \   uchar ucharT_data_H
   \                     ucharT_data_H:
   \   000000                DS 1
   \   000001                REQUIRE __INIT_XDATA_Z

   \                                 In  segment XDATA_Z, align 1, keep-with-next
   \   uchar ucharT_data_L
   \                     ucharT_data_L:
   \   000000                DS 1
   \   000001                REQUIRE __INIT_XDATA_Z

   \                                 In  segment XDATA_Z, align 1, keep-with-next
   \   uchar ucharRH_data_H
   \                     ucharRH_data_H:
   \   000000                DS 1
   \   000001                REQUIRE __INIT_XDATA_Z

   \                                 In  segment XDATA_Z, align 1, keep-with-next
   \   uchar ucharRH_data_L
   \                     ucharRH_data_L:
   \   000000                DS 1
   \   000001                REQUIRE __INIT_XDATA_Z

   \                                 In  segment XDATA_Z, align 1, keep-with-next
   \   uchar ucharcheckdata
   \                     ucharcheckdata:
   \   000000                DS 1
   \   000001                REQUIRE __INIT_XDATA_Z

   \                                 In  segment XDATA_Z, align 1, keep-with-next
   \   uchar ucharT_data_H_temp
   \                     ucharT_data_H_temp:
   \   000000                DS 1
   \   000001                REQUIRE __INIT_XDATA_Z

   \                                 In  segment XDATA_Z, align 1, keep-with-next
   \   uchar ucharT_data_L_temp
   \                     ucharT_data_L_temp:
   \   000000                DS 1
   \   000001                REQUIRE __INIT_XDATA_Z

   \                                 In  segment XDATA_Z, align 1, keep-with-next
   \   uchar ucharRH_data_H_temp
   \                     ucharRH_data_H_temp:
   \   000000                DS 1
   \   000001                REQUIRE __INIT_XDATA_Z

   \                                 In  segment XDATA_Z, align 1, keep-with-next
   \   uchar ucharRH_data_L_temp
   \                     ucharRH_data_L_temp:
   \   000000                DS 1
   \   000001                REQUIRE __INIT_XDATA_Z

   \                                 In  segment XDATA_Z, align 1, keep-with-next
   \   uchar ucharcheckdata_temp
   \                     ucharcheckdata_temp:
   \   000000                DS 1
   \   000001                REQUIRE __INIT_XDATA_Z

   \                                 In  segment XDATA_Z, align 1, keep-with-next
   \   uchar ucharcomdata
   \                     ucharcomdata:
   \   000000                DS 1
   \   000001                REQUIRE __INIT_XDATA_Z

   \                                 In  segment XDATA_Z, align 1, keep-with-next
   \   uchar ErrFLAG
   \                     ErrFLAG:
   \   000000                DS 1
   \   000001                REQUIRE __INIT_XDATA_Z

   \                                 In  segment XDATA_Z, align 1, keep-with-next
   \   unsigned char SensorsData[23]
   \                     SensorsData:
   \   000000                DS 23
   \   000017                REQUIRE __INIT_XDATA_Z

   \                                 In  segment BANKED_CODE, align 1, keep-with-next
   \   __banked_func __xdata_reentrant void SendData(unsigned int, unsigned char)
   \                     SendData:
   \   000000   C082         PUSH    DPL
   \   000002   C083         PUSH    DPH
   \   000004                ; Saved register size: 2
   \   000004                ; Auto size: 0
   \   000004   12....       LCALL   ?Subroutine7 & 0xFFFF
   \                     ??CrossCallReturnLabel_4:
   \   000007   E9           MOV     A,R1
   \   000008   02....       LJMP    ?Subroutine0 & 0xFFFF

   \                                 In  segment BANKED_CODE, align 1, keep-with-next
   \                     ?Subroutine7:
   \   000000   74..         MOV     A,#SensorsData & 0xff
   \   000002   2A           ADD     A,R2
   \   000003   F582         MOV     DPL,A
   \   000005   74..         MOV     A,#(SensorsData >> 8) & 0xff
   \   000007   3B           ADDC    A,R3
   \   000008   F583         MOV     DPH,A
   \   00000A   22           RET

   \                                 In  segment BANKED_CODE, align 1, keep-with-next
   \                     ?Subroutine0:
   \   000000   F0           MOVX    @DPTR,A
   \   000001                REQUIRE ??Subroutine37_0
   \   000001                ; // Fall through to label ??Subroutine37_0

   \                                 In  segment BANKED_CODE, align 1, keep-with-next
   \                     ??Subroutine37_0:
   \   000000   D083         POP     DPH
   \   000002   D082         POP     DPL
   \   000004   02....       LJMP    ?BRET

   \                                 In  segment BANKED_CODE, align 1, keep-with-next
   \   __banked_func __xdata_reentrant unsigned char ReadData(unsigned int)
   \                     ReadData:
   \   000000   C082         PUSH    DPL
   \   000002   C083         PUSH    DPH
   \   000004                ; Saved register size: 2
   \   000004                ; Auto size: 0
   \   000004   12....       LCALL   ?Subroutine7 & 0xFFFF
   \                     ??CrossCallReturnLabel_5:
   \   000007   E0           MOVX    A,@DPTR
   \   000008   F9           MOV     R1,A
   \   000009   02....       LJMP    ??Subroutine37_0 & 0xFFFF

   \                                 In  segment BANKED_CODE, align 1, keep-with-next
   \   __banked_func __xdata_reentrant void delay_25us(void)
   \                     delay_25us:
   \   000000                ; Saved register size: 0
   \   000000                ; Auto size: 0
   \   000000   743C         MOV     A,#0x3c
   \                     ??delay_25us_0:
   \   000002   00           nop
   \   000003   14           DEC     A
   \   000004   70FC         JNZ     ??delay_25us_0
   \   000006   02....       LJMP    ?BRET

   \                                 In  segment BANKED_CODE, align 1, keep-with-next
   \   __banked_func __xdata_reentrant void SendData_DHT22(void)
   \                     SendData_DHT22:
   \   000000   C082         PUSH    DPL
   \   000002   C083         PUSH    DPH
   \   000004                ; Saved register size: 2
   \   000004                ; Auto size: 11
   \   000004   74F5         MOV     A,#-0xb
   \   000006   12....       LCALL   ?ALLOC_XSTACK8
   \   000009   90....       MOV     DPTR,#wendu
   \   00000C   12....       LCALL   ?Subroutine15 & 0xFFFF
   \                     ??CrossCallReturnLabel_27:
   \   00000F   12....       LCALL   ?US_DIV_MOD
   \   000012   E8           MOV     A,R0
   \   000013   90....       MOV     DPTR,#wendu_shi
   \   000016   12....       LCALL   ?Subroutine8 & 0xFFFF
   \                     ??CrossCallReturnLabel_95:
   \   000019   12....       LCALL   ?US_DIV_MOD
   \   00001C   7A0A         MOV     R2,#0xa
   \   00001E   7B00         MOV     R3,#0x0
   \   000020   12....       LCALL   ?US_DIV_MOD
   \   000023   EA           MOV     A,R2
   \   000024   90....       MOV     DPTR,#wendu_ge
   \   000027   12....       LCALL   ?Subroutine8 & 0xFFFF
   \                     ??CrossCallReturnLabel_96:
   \   00002A   12....       LCALL   ?US_DIV_MOD
   \   00002D   EA           MOV     A,R2
   \   00002E   90....       MOV     DPTR,#wendu_dian
   \   000031   F0           MOVX    @DPTR,A
   \   000032   90....       MOV     DPTR,#shidu
   \   000035   12....       LCALL   ?Subroutine15 & 0xFFFF
   \                     ??CrossCallReturnLabel_28:
   \   000038   12....       LCALL   ?US_DIV_MOD
   \   00003B   E8           MOV     A,R0
   \   00003C   90....       MOV     DPTR,#shidu_shi
   \   00003F   F0           MOVX    @DPTR,A
   \   000040   90....       MOV     DPTR,#shidu
   \   000043   12....       LCALL   ??Subroutine43_0 & 0xFFFF
   \                     ??CrossCallReturnLabel_97:
   \   000046   12....       LCALL   ?US_DIV_MOD
   \   000049   7A0A         MOV     R2,#0xa
   \   00004B   7B00         MOV     R3,#0x0
   \   00004D   12....       LCALL   ?US_DIV_MOD
   \   000050   EA           MOV     A,R2
   \   000051   90....       MOV     DPTR,#shidu_ge
   \   000054   F0           MOVX    @DPTR,A
   \   000055   90....       MOV     DPTR,#shidu
   \   000058   12....       LCALL   ??Subroutine43_0 & 0xFFFF
   \                     ??CrossCallReturnLabel_98:
   \   00005B   12....       LCALL   ?US_DIV_MOD
   \   00005E   EA           MOV     A,R2
   \   00005F   90....       MOV     DPTR,#shidu_dian
   \   000062   F0           MOVX    @DPTR,A
   \   000063   90....       MOV     DPTR,#wendu_shi
   \   000066   E0           MOVX    A,@DPTR
   \   000067   2430         ADD     A,#0x30
   \   000069   C0E0         PUSH    A
   \   00006B   7405         MOV     A,#0x5
   \   00006D   12....       LCALL   ?XSTACK_DISP0_8
   \   000070   D0E0         POP     A
   \   000072   F0           MOVX    @DPTR,A
   \   000073   90....       MOV     DPTR,#wendu_ge
   \   000076   E0           MOVX    A,@DPTR
   \   000077   2430         ADD     A,#0x30
   \   000079   F8           MOV     R0,A
   \   00007A   7406         MOV     A,#0x6
   \   00007C   12....       LCALL   ?XSTACK_DISP0_8
   \   00007F   E8           MOV     A,R0
   \   000080   F0           MOVX    @DPTR,A
   \   000081   7407         MOV     A,#0x7
   \   000083   12....       LCALL   ?XSTACK_DISP0_8
   \   000086   742E         MOV     A,#0x2e
   \   000088   F0           MOVX    @DPTR,A
   \   000089   90....       MOV     DPTR,#wendu_dian
   \   00008C   E0           MOVX    A,@DPTR
   \   00008D   2430         ADD     A,#0x30
   \   00008F   F9           MOV     R1,A
   \   000090   7408         MOV     A,#0x8
   \   000092   12....       LCALL   ?XSTACK_DISP0_8
   \   000095   E9           MOV     A,R1
   \   000096   F0           MOVX    @DPTR,A
   \   000097   7409         MOV     A,#0x9
   \   000099   12....       LCALL   ?XSTACK_DISP0_8
   \   00009C   742A         MOV     A,#0x2a
   \   00009E   F0           MOVX    @DPTR,A
   \   00009F   740A         MOV     A,#0xa
   \   0000A1   12....       LCALL   ?XSTACK_DISP0_8
   \   0000A4   7443         MOV     A,#0x43
   \   0000A6   F0           MOVX    @DPTR,A
   \   0000A7   7405         MOV     A,#0x5
   \   0000A9   12....       LCALL   ?XSTACK_DISP0_8
   \   0000AC   E0           MOVX    A,@DPTR
   \   0000AD   90....       MOV     DPTR,#SensorsData + 1
   \   0000B0   F0           MOVX    @DPTR,A
   \   0000B1   E8           MOV     A,R0
   \   0000B2   A3           INC     DPTR
   \   0000B3   F0           MOVX    @DPTR,A
   \   0000B4   E9           MOV     A,R1
   \   0000B5   A3           INC     DPTR
   \   0000B6   F0           MOVX    @DPTR,A
   \   0000B7   90....       MOV     DPTR,#shidu_shi
   \   0000BA   E0           MOVX    A,@DPTR
   \   0000BB   12....       LCALL   ??Subroutine40_0 & 0xFFFF
   \                     ??CrossCallReturnLabel_79:
   \   0000BE   F0           MOVX    @DPTR,A
   \   0000BF   90....       MOV     DPTR,#shidu_ge
   \   0000C2   E0           MOVX    A,@DPTR
   \   0000C3   2430         ADD     A,#0x30
   \   0000C5   F8           MOV     R0,A
   \   0000C6   7401         MOV     A,#0x1
   \   0000C8   12....       LCALL   ?XSTACK_DISP0_8
   \   0000CB   E8           MOV     A,R0
   \   0000CC   F0           MOVX    @DPTR,A
   \   0000CD   7402         MOV     A,#0x2
   \   0000CF   12....       LCALL   ?XSTACK_DISP0_8
   \   0000D2   742E         MOV     A,#0x2e
   \   0000D4   F0           MOVX    @DPTR,A
   \   0000D5   90....       MOV     DPTR,#shidu_dian
   \   0000D8   E0           MOVX    A,@DPTR
   \   0000D9   2430         ADD     A,#0x30
   \   0000DB   F9           MOV     R1,A
   \   0000DC   7403         MOV     A,#0x3
   \   0000DE   12....       LCALL   ?XSTACK_DISP0_8
   \   0000E1   E9           MOV     A,R1
   \   0000E2   F0           MOVX    @DPTR,A
   \   0000E3   7404         MOV     A,#0x4
   \   0000E5   12....       LCALL   ?XSTACK_DISP0_8
   \   0000E8   7425         MOV     A,#0x25
   \   0000EA   12....       LCALL   ??Subroutine38_0 & 0xFFFF
   \                     ??CrossCallReturnLabel_72:
   \   0000ED   90....       MOV     DPTR,#SensorsData + 4
   \   0000F0   F0           MOVX    @DPTR,A
   \   0000F1   E8           MOV     A,R0
   \   0000F2   A3           INC     DPTR
   \   0000F3   F0           MOVX    @DPTR,A
   \   0000F4   E9           MOV     A,R1
   \   0000F5   A3           INC     DPTR
   \   0000F6   F0           MOVX    @DPTR,A
   \   0000F7   740B         MOV     A,#0xb
   \   0000F9   12....       LCALL   ?DEALLOC_XSTACK8
   \   0000FC   02....       LJMP    ??Subroutine37_0 & 0xFFFF

   \                                 In  segment BANKED_CODE, align 1, keep-with-next
   \                     ?Subroutine15:
   \   000000   12....       LCALL   ?Subroutine33 & 0xFFFF
   \                     ??CrossCallReturnLabel_107:
   \   000003   7A64         MOV     R2,#0x64
   \   000005   7B00         MOV     R3,#0x0
   \   000007   22           RET

   \                                 In  segment BANKED_CODE, align 1, keep-with-next
   \                     ??Subroutine38_0:
   \   000000   F0           MOVX    @DPTR,A
   \   000001   85..82       MOV     DPL,?XSP + 0
   \   000004   85..83       MOV     DPH,?XSP + 1
   \   000007   E0           MOVX    A,@DPTR
   \   000008   22           RET

   \                                 In  segment BANKED_CODE, align 1, keep-with-next
   \                     ?Subroutine33:
   \   000000   E0           MOVX    A,@DPTR
   \   000001   F8           MOV     R0,A
   \   000002   A3           INC     DPTR
   \   000003   E0           MOVX    A,@DPTR
   \   000004   F9           MOV     R1,A
   \   000005   22           RET

   \                                 In  segment BANKED_CODE, align 1, keep-with-next
   \                     ??Subroutine40_0:
   \   000000   2430         ADD     A,#0x30
   \   000002   85..82       MOV     DPL,?XSP + 0
   \   000005   85..83       MOV     DPH,?XSP + 1
   \   000008   22           RET

   \                                 In  segment BANKED_CODE, align 1, keep-with-next
   \                     ?Subroutine8:
   \   000000   F0           MOVX    @DPTR,A
   \   000001   90....       MOV     DPTR,#wendu
   \   000004                REQUIRE ??Subroutine43_0
   \   000004                ; // Fall through to label ??Subroutine43_0

   \                                 In  segment BANKED_CODE, align 1, keep-with-next
   \                     ??Subroutine43_0:
   \   000000   12....       LCALL   ?Subroutine33 & 0xFFFF
   \                     ??CrossCallReturnLabel_108:
   \   000003   7A0A         MOV     R2,#0xa
   \   000005   7B00         MOV     R3,#0x0
   \   000007   22           RET

   \                                 In  segment BANKED_CODE, align 1, keep-with-next
   \   __banked_func __xdata_reentrant void COM(void)
   \                     COM:
   \   000000   74F7         MOV     A,#-0x9
   \   000002   12....       LCALL   ?BANKED_ENTER_XDATA
   \   000005                ; Saved register size: 9
   \   000005                ; Auto size: 0
   \   000005   7E08         MOV     R6,#0x8
   \                     ??COM_0:
   \   000007   90....       MOV     DPTR,#ErrFLAG
   \   00000A   7402         MOV     A,#0x2
   \   00000C   F0           MOVX    @DPTR,A
   \                     ??COM_1:
   \   00000D   A281         MOV     C,0x80.1
   \   00000F   4005         JC      ??COM_2
   \   000011   12....       LCALL   ?Subroutine12 & 0xFFFF
   \                     ??CrossCallReturnLabel_15:
   \   000014   70F7         JNZ     ??COM_1
   \                     ??COM_2:
   \   000016                ; Setup parameters for call to function delay_25us
   \   000016   12....       LCALL   ??delay_25us?relay
   \   000019                ; Setup parameters for call to function delay_25us
   \   000019   12....       LCALL   ??delay_25us?relay
   \   00001C   90....       MOV     DPTR,#uchartemp
   \   00001F   E4           CLR     A
   \   000020   F0           MOVX    @DPTR,A
   \   000021   A281         MOV     C,0x80.1
   \   000023   5002         JNC     ??COM_3
   \   000025   04           INC     A
   \   000026   F0           MOVX    @DPTR,A
   \                     ??COM_3:
   \   000027   90....       MOV     DPTR,#ErrFLAG
   \   00002A   7402         MOV     A,#0x2
   \   00002C   F0           MOVX    @DPTR,A
   \                     ??COM_4:
   \   00002D   A281         MOV     C,0x80.1
   \   00002F   5005         JNC     ??COM_5
   \   000031   12....       LCALL   ?Subroutine12 & 0xFFFF
   \                     ??CrossCallReturnLabel_16:
   \   000034   70F7         JNZ     ??COM_4
   \                     ??COM_5:
   \   000036   90....       MOV     DPTR,#uchartemp
   \   000039   E0           MOVX    A,@DPTR
   \   00003A   F8           MOV     R0,A
   \   00003B   90....       MOV     DPTR,#ucharcomdata
   \   00003E   E0           MOVX    A,@DPTR
   \   00003F   C3           CLR     C
   \   000040   33           RLC     A
   \   000041   48           ORL     A,R0
   \   000042   F0           MOVX    @DPTR,A
   \   000043   1E           DEC     R6
   \   000044   EE           MOV     A,R6
   \   000045   70C0         JNZ     ??COM_0
   \   000047   02....       LJMP    ?Subroutine1 & 0xFFFF
   \   00004A                REQUIRE _A_P0

   \                                 In  segment BANKED_CODE, align 1, keep-with-next
   \                     ?Subroutine12:
   \   000000   E0           MOVX    A,@DPTR
   \   000001   F8           MOV     R0,A
   \   000002   7401         MOV     A,#0x1
   \   000004   28           ADD     A,R0
   \   000005   F0           MOVX    @DPTR,A
   \   000006   E8           MOV     A,R0
   \   000007   22           RET

   \                                 In  segment BANKED_CODE, align 1, keep-with-next
   \                     ?Subroutine1:
   \   000000   7F01         MOV     R7,#0x1
   \   000002   02....       LJMP    ?BANKED_LEAVE_XDATA

   \                                 In  segment BANKED_CODE, align 1, keep-with-next
   \   __banked_func __xdata_reentrant void DHT22(void)
   \                     DHT22:
   \   000000   74F7         MOV     A,#-0x9
   \   000002   12....       LCALL   ?BANKED_ENTER_XDATA
   \   000005                ; Saved register size: 9
   \   000005                ; Auto size: 0
   \   000005   43FD02       ORL     0xfd,#0x2
   \   000008   C281         CLR     0x80.1
   \   00000A   7E1C         MOV     R6,#0x1c
   \                     ??DHT22_0:
   \   00000C                ; Setup parameters for call to function delay_25us
   \   00000C   12....       LCALL   ??delay_25us?relay
   \   00000F   1E           DEC     R6
   \   000010   EE           MOV     A,R6
   \   000011   70F9         JNZ     ??DHT22_0
   \   000013   D281         SETB    0x80.1
   \   000015   53FDFD       ANL     0xfd,#0xfd
   \   000018                ; Setup parameters for call to function delay_25us
   \   000018   12....       LCALL   ??delay_25us?relay
   \   00001B                ; Setup parameters for call to function delay_25us
   \   00001B   12....       LCALL   ??delay_25us?relay
   \   00001E   90....       MOV     DPTR,#ErrFLAG
   \   000021   7402         MOV     A,#0x2
   \   000023   F0           MOVX    @DPTR,A
   \                     ??DHT22_1:
   \   000024   A281         MOV     C,0x80.1
   \   000026   4005         JC      ??DHT22_2
   \   000028   12....       LCALL   ?Subroutine12 & 0xFFFF
   \                     ??CrossCallReturnLabel_17:
   \   00002B   70F7         JNZ     ??DHT22_1
   \                     ??DHT22_2:
   \   00002D   7402         MOV     A,#0x2
   \   00002F   F0           MOVX    @DPTR,A
   \                     ??DHT22_3:
   \   000030   A281         MOV     C,0x80.1
   \   000032   5005         JNC     ??DHT22_4
   \   000034   12....       LCALL   ?Subroutine12 & 0xFFFF
   \                     ??CrossCallReturnLabel_18:
   \   000037   70F7         JNZ     ??DHT22_3
   \                     ??DHT22_4:
   \   000039                ; Setup parameters for call to function COM
   \   000039   12....       LCALL   ??COM?relay
   \   00003C   90....       MOV     DPTR,#ucharcomdata
   \   00003F   E0           MOVX    A,@DPTR
   \   000040   90....       MOV     DPTR,#ucharRH_data_H_temp
   \   000043   F0           MOVX    @DPTR,A
   \   000044                ; Setup parameters for call to function COM
   \   000044   12....       LCALL   ??COM?relay
   \   000047   90....       MOV     DPTR,#ucharcomdata
   \   00004A   E0           MOVX    A,@DPTR
   \   00004B   90....       MOV     DPTR,#ucharRH_data_L_temp
   \   00004E   F0           MOVX    @DPTR,A
   \   00004F                ; Setup parameters for call to function COM
   \   00004F   12....       LCALL   ??COM?relay
   \   000052   90....       MOV     DPTR,#ucharcomdata
   \   000055   E0           MOVX    A,@DPTR
   \   000056   90....       MOV     DPTR,#ucharT_data_H_temp
   \   000059   F0           MOVX    @DPTR,A
   \   00005A                ; Setup parameters for call to function COM
   \   00005A   12....       LCALL   ??COM?relay
   \   00005D   90....       MOV     DPTR,#ucharcomdata
   \   000060   E0           MOVX    A,@DPTR
   \   000061   90....       MOV     DPTR,#ucharT_data_L_temp
   \   000064   F0           MOVX    @DPTR,A
   \   000065                ; Setup parameters for call to function COM
   \   000065   12....       LCALL   ??COM?relay
   \   000068   90....       MOV     DPTR,#ucharcomdata
   \   00006B   E0           MOVX    A,@DPTR
   \   00006C   90....       MOV     DPTR,#ucharcheckdata_temp
   \   00006F   F0           MOVX    @DPTR,A
   \   000070   D281         SETB    0x80.1
   \   000072   90....       MOV     DPTR,#ucharRH_data_L_temp
   \   000075   E0           MOVX    A,@DPTR
   \   000076   FA           MOV     R2,A
   \   000077   90....       MOV     DPTR,#ucharRH_data_H_temp
   \   00007A   E0           MOVX    A,@DPTR
   \   00007B   F9           MOV     R1,A
   \   00007C   90....       MOV     DPTR,#ucharT_data_L_temp
   \   00007F   E0           MOVX    A,@DPTR
   \   000080   F8           MOV     R0,A
   \   000081   90....       MOV     DPTR,#ucharT_data_H_temp
   \   000084   E0           MOVX    A,@DPTR
   \   000085   28           ADD     A,R0
   \   000086   29           ADD     A,R1
   \   000087   2A           ADD     A,R2
   \   000088   90....       MOV     DPTR,#uchartemp
   \   00008B   F0           MOVX    @DPTR,A
   \   00008C   F8           MOV     R0,A
   \   00008D   90....       MOV     DPTR,#ucharcheckdata_temp
   \   000090   E0           MOVX    A,@DPTR
   \   000091   68           XRL     A,R0
   \   000092   7028         JNZ     ??DHT22_5
   \   000094   90....       MOV     DPTR,#ucharRH_data_H_temp
   \   000097   E0           MOVX    A,@DPTR
   \   000098   90....       MOV     DPTR,#ucharRH_data_H
   \   00009B   F0           MOVX    @DPTR,A
   \   00009C   90....       MOV     DPTR,#ucharRH_data_L_temp
   \   00009F   E0           MOVX    A,@DPTR
   \   0000A0   90....       MOV     DPTR,#ucharRH_data_L
   \   0000A3   F0           MOVX    @DPTR,A
   \   0000A4   90....       MOV     DPTR,#ucharT_data_H_temp
   \   0000A7   E0           MOVX    A,@DPTR
   \   0000A8   90....       MOV     DPTR,#ucharT_data_H
   \   0000AB   F0           MOVX    @DPTR,A
   \   0000AC   90....       MOV     DPTR,#ucharT_data_L_temp
   \   0000AF   E0           MOVX    A,@DPTR
   \   0000B0   90....       MOV     DPTR,#ucharT_data_L
   \   0000B3   F0           MOVX    @DPTR,A
   \   0000B4   90....       MOV     DPTR,#ucharcheckdata_temp
   \   0000B7   E0           MOVX    A,@DPTR
   \   0000B8   90....       MOV     DPTR,#ucharcheckdata
   \   0000BB   F0           MOVX    @DPTR,A
   \                     ??DHT22_5:
   \   0000BC   90....       MOV     DPTR,#ucharT_data_H
   \   0000BF   E0           MOVX    A,@DPTR
   \   0000C0   F9           MOV     R1,A
   \   0000C1   90....       MOV     DPTR,#ucharT_data_L
   \   0000C4   E0           MOVX    A,@DPTR
   \   0000C5   90....       MOV     DPTR,#wendu
   \   0000C8   12....       LCALL   ??Subroutine42_0 & 0xFFFF
   \                     ??CrossCallReturnLabel_89:
   \   0000CB   90....       MOV     DPTR,#ucharRH_data_H
   \   0000CE   E0           MOVX    A,@DPTR
   \   0000CF   F9           MOV     R1,A
   \   0000D0   90....       MOV     DPTR,#ucharRH_data_L
   \   0000D3   E0           MOVX    A,@DPTR
   \   0000D4   90....       MOV     DPTR,#shidu
   \   0000D7   12....       LCALL   ??Subroutine42_0 & 0xFFFF
   \                     ??CrossCallReturnLabel_90:
   \   0000DA   43FD02       ORL     0xfd,#0x2
   \   0000DD   02....       LJMP    ?Subroutine1 & 0xFFFF
   \   0000E0                REQUIRE P0DIR
   \   0000E0                REQUIRE _A_P0

   \                                 In  segment BANKED_CODE, align 1, keep-with-next
   \                     ??Subroutine42_0:
   \   000000   F0           MOVX    @DPTR,A
   \   000001   A3           INC     DPTR
   \   000002   E9           MOV     A,R1
   \   000003   F0           MOVX    @DPTR,A
   \   000004   22           RET

   \                                 In  segment BANKED_CODE, align 1, keep-with-next
   \   __banked_func __xdata_reentrant void DHT22_background(void)
   \                     DHT22_background:
   \   000000   C082         PUSH    DPL
   \   000002   C083         PUSH    DPH
   \   000004                ; Saved register size: 2
   \   000004                ; Auto size: 0

    unsigned char j;
                  ^
"C:\Users\user\Desktop\3 new task perfect ROOM1 DHT22\ZStack-2.5.1a\Projects\zstack\Samples\SampleApp\Source\Sensor.h",149  Warning[Pe177]: 
          variable "j" was declared but never referenced
   \   000004                ; Setup parameters for call to function DHT22
   \   000004   12....       LCALL   ??DHT22?relay
   \   000007   80..         SJMP    ??Subroutine37_0

   \                                 In  segment BANKED_CODE, align 1, keep-with-next
   \   __banked_func __xdata_reentrant unsigned int Shiwen(void)
   \                     Shiwen:
   \   000000   C082         PUSH    DPL
   \   000002   C083         PUSH    DPH
   \   000004                ; Saved register size: 2
   \   000004                ; Auto size: 0
   \   000004   90....       MOV     DPTR,#wendu
   \   000007   E0           MOVX    A,@DPTR
   \   000008   FA           MOV     R2,A
   \   000009   A3           INC     DPTR
   \   00000A   E0           MOVX    A,@DPTR
   \   00000B   FB           MOV     R3,A
   \   00000C   80..         SJMP    ??Subroutine37_0

   \                                 In  segment XDATA_Z, align 1, keep-with-next
   \   int Temp_MS1100[10]
   \                     Temp_MS1100:
   \   000000                DS 20
   \   000014                REQUIRE __INIT_XDATA_Z

   \                                 In  segment BANKED_CODE, align 1, keep-with-next
   \   __banked_func __xdata_reentrant void Init_MS1100(void)
   \                     Init_MS1100:
   \   000000                ; Saved register size: 0
   \   000000                ; Auto size: 0
   \   000000   53FDEF       ANL     0xfd,#0xef
   \   000003   43F210       ORL     0xf2,#0x10
   \   000006   02....       LJMP    ?BRET
   \   000009                REQUIRE P0DIR
   \   000009                REQUIRE ADCCFG

   \                                 In  segment BANKED_CODE, align 1, keep-with-next
   \   __banked_func __xdata_reentrant void background_MS1100(void)
   \                     background_MS1100:
   \   000000   74F6         MOV     A,#-0xa
   \   000002   12....       LCALL   ?BANKED_ENTER_XDATA
   \   000005                ; Saved register size: 10
   \   000005                ; Auto size: 0
   \   000005   75B430       MOV     0xb4,#0x30
   \   000008   75B6B4       MOV     0xb6,#-0x4c
   \   00000B   43B440       ORL     0xb4,#0x40
   \                     ??background_MS1100_0:
   \   00000E   E5B4         MOV     A,0xb4
   \   000010   A2E7         MOV     C,0xE0 /* A   */.7
   \   000012   50FA         JNC     ??background_MS1100_0
   \   000014   12....       LCALL   ?Subroutine27 & 0xFFFF
   \                     ??CrossCallReturnLabel_44:
   \   000017   12....       LCALL   ?S_SHL
   \   00001A   12....       LCALL   ?Subroutine28 & 0xFFFF
   \                     ??CrossCallReturnLabel_49:
   \   00001D   90....       MOV     DPTR,#??i_MS1100
   \   000020   12....       LCALL   ?Subroutine9 & 0xFFFF
   \                     ??CrossCallReturnLabel_6:
   \   000023   74..         MOV     A,#Temp_MS1100 & 0xff
   \   000025   28           ADD     A,R0
   \   000026   F582         MOV     DPL,A
   \   000028   74..         MOV     A,#(Temp_MS1100 >> 8) & 0xff
   \   00002A   12....       LCALL   ?Subroutine31 & 0xFFFF
   \                     ??CrossCallReturnLabel_60:
   \   00002D   90....       MOV     DPTR,#??i_MS1100
   \   000030   12....       LCALL   ?Subroutine14 & 0xFFFF
   \                     ??CrossCallReturnLabel_21:
   \   000033   90....       MOV     DPTR,#??i_MS1100
   \   000036   E0           MOVX    A,@DPTR
   \   000037   640A         XRL     A,#0xa
   \   000039   7002         JNZ     ??background_MS1100_1
   \   00003B   A3           INC     DPTR
   \   00003C   E0           MOVX    A,@DPTR
   \                     ??background_MS1100_1:
   \   00003D   7007         JNZ     ??background_MS1100_2
   \   00003F   90....       MOV     DPTR,#??i_MS1100
   \   000042   E4           CLR     A
   \   000043   F0           MOVX    @DPTR,A
   \   000044   A3           INC     DPTR
   \   000045   F0           MOVX    @DPTR,A
   \                     ??background_MS1100_2:
   \   000046   02....       LJMP    ?Subroutine2 & 0xFFFF
   \   000049                REQUIRE ADCCON1
   \   000049                REQUIRE ADCCON3
   \   000049                REQUIRE ADCL
   \   000049                REQUIRE ADCH

   \                                 In  segment BANKED_CODE, align 1, keep-with-next
   \                     ?Subroutine28:
   \   000000   EA           MOV     A,R2
   \   000001   25..         ADD     A,?V0 + 0
   \   000003   FA           MOV     R2,A
   \   000004   E4           CLR     A
   \   000005   35..         ADDC    A,?V0 + 1
   \   000007   FB           MOV     R3,A
   \   000008   22           RET

   \                                 In  segment BANKED_CODE, align 1, keep-with-next
   \                     ?Subroutine27:
   \   000000   E5BA         MOV     A,0xba
   \   000002   C4           SWAP    A
   \   000003   540F         ANL     A,#0xf
   \   000005   FA           MOV     R2,A
   \   000006   E5BB         MOV     A,0xbb
   \   000008   F5..         MOV     ?V0 + 0,A
   \   00000A   75..00       MOV     ?V0 + 1,#0x0
   \   00000D   7404         MOV     A,#0x4
   \   00000F   78..         MOV     R0,#?V0 + 0
   \   000011   22           RET

   \                                 In  segment BANKED_CODE, align 1, keep-with-next
   \                     ?Subroutine9:
   \   000000   12....       LCALL   ?Subroutine33 & 0xFFFF
   \                     ??CrossCallReturnLabel_106:
   \   000003   E8           MOV     A,R0
   \   000004   33           RLC     A
   \   000005   F8           MOV     R0,A
   \   000006   E9           MOV     A,R1
   \   000007   33           RLC     A
   \   000008   F9           MOV     R1,A
   \   000009   22           RET

   \                                 In  segment BANKED_CODE, align 1, keep-with-next
   \                     ?Subroutine31:
   \   000000   39           ADDC    A,R1
   \   000001   F583         MOV     DPH,A
   \   000003   EA           MOV     A,R2
   \   000004   F0           MOVX    @DPTR,A
   \   000005   A3           INC     DPTR
   \   000006   EB           MOV     A,R3
   \   000007   F0           MOVX    @DPTR,A
   \   000008   22           RET

   \                                 In  segment BANKED_CODE, align 1, keep-with-next
   \                     ?Subroutine14:
   \   000000   12....       LCALL   ?Subroutine34 & 0xFFFF
   \                     ??CrossCallReturnLabel_67:
   \   000003   22           RET

   \                                 In  segment BANKED_CODE, align 1, keep-with-next
   \                     ?Subroutine34:
   \   000000   E0           MOVX    A,@DPTR
   \   000001   2401         ADD     A,#0x1
   \   000003   F0           MOVX    @DPTR,A
   \   000004   A3           INC     DPTR
   \   000005   E0           MOVX    A,@DPTR
   \   000006   3400         ADDC    A,#0x0
   \   000008   F0           MOVX    @DPTR,A
   \   000009   22           RET

   \                                 In  segment BANKED_CODE, align 1, keep-with-next
   \                     ?Subroutine2:
   \   000000   7F02         MOV     R7,#0x2
   \   000002   02....       LJMP    ?BANKED_LEAVE_XDATA

   \                                 In  segment XDATA_Z, align 1, keep-with-next
   \   int background_MS1100::i_MS1100
   \                     ??i_MS1100:
   \   000000                DS 2
   \   000002                REQUIRE __INIT_XDATA_Z

   \                                 In  segment BANKED_CODE, align 1, keep-with-next
   \   __banked_func __xdata_reentrant void SendData_MS1100(void)
   \                     SendData_MS1100:
   \   000000   74E8         MOV     A,#-0x18
   \   000002   12....       LCALL   ?BANKED_ENTER_XDATA
   \   000005                ; Saved register size: 24
   \   000005                ; Auto size: 3
   \   000005   74FD         MOV     A,#-0x3
   \   000007   12....       LCALL   ?ALLOC_XSTACK8
   \   00000A   7E00         MOV     R6,#0x0
   \   00000C   85..82       MOV     DPL,?XSP + 0
   \   00000F   85..83       MOV     DPH,?XSP + 1
   \   000012   AC82         MOV     R4,DPL
   \   000014   AD83         MOV     R5,DPH
   \   000016   7583..       MOV     DPH,#(`?<Constant {0}>` >> 8) & 0xff
   \   000019   7582..       MOV     DPL,#`?<Constant {0}>` & 0xff
   \   00001C   7403         MOV     A,#0x3
   \   00001E   12....       LCALL   ?MOVE_LONG8_XDATA_XDATA
   \   000021   F8           MOV     R0,A
   \   000022   F9           MOV     R1,A
   \                     ??SendData_MS1100_0:
   \   000023   EE           MOV     A,R6
   \   000024   C3           CLR     C
   \   000025   33           RLC     A
   \   000026   FA           MOV     R2,A
   \   000027   E4           CLR     A
   \   000028   33           RLC     A
   \   000029   FB           MOV     R3,A
   \   00002A   74..         MOV     A,#Temp_MS1100 & 0xff
   \   00002C   2A           ADD     A,R2
   \   00002D   F582         MOV     DPL,A
   \   00002F   74..         MOV     A,#(Temp_MS1100 >> 8) & 0xff
   \   000031   12....       LCALL   ?Subroutine6 & 0xFFFF
   \                     ??CrossCallReturnLabel_2:
   \   000034   0E           INC     R6
   \   000035   EE           MOV     A,R6
   \   000036   C3           CLR     C
   \   000037   940A         SUBB    A,#0xa
   \   000039   40E8         JC      ??SendData_MS1100_0
   \   00003B                ; Setup parameters for call to function pow
   \   00003B   75..8F       MOV     ?V0 + 8,#-0x71
   \   00003E   75..C2       MOV     ?V0 + 9,#-0x3e
   \   000041   75..35       MOV     ?V0 + 10,#0x35
   \   000044   75..3F       MOV     ?V0 + 11,#0x3f
   \   000047   75..00       MOV     ?V0 + 4,#0x0
   \   00004A   75..00       MOV     ?V0 + 5,#0x0
   \   00004D   75..A0       MOV     ?V0 + 6,#-0x60
   \   000050   75..40       MOV     ?V0 + 7,#0x40
   \   000053   7A0A         MOV     R2,#0xa
   \   000055   7B00         MOV     R3,#0x0
   \   000057   12....       LCALL   ?US_DIV_MOD
   \   00005A   88..         MOV     ?V0 + 0,R0
   \   00005C   89..         MOV     ?V0 + 1,R1
   \   00005E   E4           CLR     A
   \   00005F   F5..         MOV     ?V0 + 2,A
   \   000061   F5..         MOV     ?V0 + 3,A
   \   000063   78..         MOV     R0,#?V0 + 0
   \   000065   12....       LCALL   ?UL_TO_FLT
   \   000068   90....       MOV     DPTR,#__Constant_40533333
   \   00006B   78..         MOV     R0,#?V0 + 12
   \   00006D   12....       LCALL   ?L_MOV_X
   \   000070   78..         MOV     R0,#?V0 + 0
   \   000072   79..         MOV     R1,#?V0 + 12
   \   000074   12....       LCALL   ?FLT_MUL
   \   000077   90....       MOV     DPTR,#__Constant_3a000000
   \   00007A   78..         MOV     R0,#?V0 + 12
   \   00007C   12....       LCALL   ?L_MOV_X
   \   00007F   78..         MOV     R0,#?V0 + 0
   \   000081   79..         MOV     R1,#?V0 + 12
   \   000083   12....       LCALL   ?FLT_MUL
   \   000086   78..         MOV     R0,#?V0 + 4
   \   000088   79..         MOV     R1,#?V0 + 0
   \   00008A   12....       LCALL   ?FLT_DIV
   \   00008D   90....       MOV     DPTR,#__Constant_bf800000
   \   000090   78..         MOV     R0,#?V0 + 0
   \   000092   12....       LCALL   ?L_MOV_X
   \   000095   78..         MOV     R0,#?V0 + 4
   \   000097   79..         MOV     R1,#?V0 + 0
   \   000099   12....       LCALL   ?FLT_ADD
   \   00009C   90....       MOV     DPTR,#__Constant_461c4000
   \   00009F   78..         MOV     R0,#?V0 + 0
   \   0000A1   12....       LCALL   ?L_MOV_X
   \   0000A4   78..         MOV     R0,#?V0 + 4
   \   0000A6   79..         MOV     R1,#?V0 + 0
   \   0000A8   12....       LCALL   ?FLT_MUL
   \   0000AB   90....       MOV     DPTR,#__Constant_46d33a00
   \   0000AE   78..         MOV     R0,#?V0 + 0
   \   0000B0   12....       LCALL   ?L_MOV_X
   \   0000B3   78..         MOV     R0,#?V0 + 4
   \   0000B5   79..         MOV     R1,#?V0 + 0
   \   0000B7   12....       LCALL   ?FLT_DIV
   \   0000BA   78..         MOV     R0,#?V0 + 8
   \   0000BC   79..         MOV     R1,#?V0 + 4
   \   0000BE   12....       LCALL   ?FLT_SUB
   \   0000C1   90....       MOV     DPTR,#__Constant_403d70a4
   \   0000C4   78..         MOV     R0,#?V0 + 0
   \   0000C6   12....       LCALL   ?L_MOV_X
   \   0000C9   78..         MOV     R0,#?V0 + 8
   \   0000CB   79..         MOV     R1,#?V0 + 0
   \   0000CD   12....       LCALL   ?FLT_DIV
   \   0000D0   78..         MOV     R0,#?V0 + 8
   \   0000D2   12....       LCALL   ?PUSH_XSTACK_I_FOUR
   \   0000D5   90....       MOV     DPTR,#__Constant_41200000
   \   0000D8   12....       LCALL   ?XLOAD_R2345
   \   0000DB   12....       LCALL   ??pow?relay
   \   0000DE   7404         MOV     A,#0x4
   \   0000E0   12....       LCALL   ?DEALLOC_XSTACK8
   \   0000E3   8A..         MOV     ?V0 + 0,R2
   \   0000E5   8B..         MOV     ?V0 + 1,R3
   \   0000E7   8C..         MOV     ?V0 + 2,R4
   \   0000E9   8D..         MOV     ?V0 + 3,R5
   \   0000EB   78..         MOV     R0,#?V0 + 0
   \   0000ED   12....       LCALL   ?FLT_TO_L
   \   0000F0   AC..         MOV     R4,?V0 + 0
   \   0000F2   AD..         MOV     R5,?V0 + 1
   \   0000F4   EC           MOV     A,R4
   \   0000F5   F8           MOV     R0,A
   \   0000F6   ED           MOV     A,R5
   \   0000F7   F9           MOV     R1,A
   \   0000F8   7A64         MOV     R2,#0x64
   \   0000FA   7B00         MOV     R3,#0x0
   \   0000FC   12....       LCALL   ?S_DIV_MOD
   \   0000FF   12....       LCALL   ?Subroutine19 & 0xFFFF
   \                     ??CrossCallReturnLabel_82:
   \   000102   12....       LCALL   ?S_DIV_MOD
   \   000105   7A0A         MOV     R2,#0xa
   \   000107   7B00         MOV     R3,#0x0
   \   000109   12....       LCALL   ?S_DIV_MOD
   \   00010C   12....       LCALL   ?Subroutine29 & 0xFFFF
   \                     ??CrossCallReturnLabel_54:
   \   00010F   12....       LCALL   ?XSTACK_DISP0_8
   \   000112   EE           MOV     A,R6
   \   000113   12....       LCALL   ??Subroutine41_0 & 0xFFFF
   \                     ??CrossCallReturnLabel_84:
   \   000116   12....       LCALL   ?S_DIV_MOD
   \   000119   EA           MOV     A,R2
   \   00011A   2430         ADD     A,#0x30
   \   00011C   F8           MOV     R0,A
   \   00011D   7402         MOV     A,#0x2
   \   00011F   12....       LCALL   ?XSTACK_DISP0_8
   \   000122   12....       LCALL   ?Subroutine21 & 0xFFFF
   \                     ??CrossCallReturnLabel_68:
   \   000125   90....       MOV     DPTR,#SensorsData + 18
   \   000128   F0           MOVX    @DPTR,A
   \   000129   EE           MOV     A,R6
   \   00012A   A3           INC     DPTR
   \   00012B   F0           MOVX    @DPTR,A
   \   00012C   E8           MOV     A,R0
   \   00012D   A3           INC     DPTR
   \   00012E   F0           MOVX    @DPTR,A
   \   00012F   7403         MOV     A,#0x3
   \   000131                REQUIRE ?Subroutine3
   \   000131                ; // Fall through to label ?Subroutine3

   \                                 In  segment BANKED_CODE, align 1, keep-with-next
   \                     ?Subroutine3:
   \   000000   12....       LCALL   ?DEALLOC_XSTACK8
   \   000003   7F10         MOV     R7,#0x10
   \   000005   02....       LJMP    ?BANKED_LEAVE_XDATA

   \                                 In  segment BANKED_CODE, align 1, keep-with-next
   \                     ?Subroutine21:
   \   000000   E8           MOV     A,R0
   \   000001                REQUIRE ??Subroutine38_0
   \   000001                ; // Fall through to label ??Subroutine38_0

   \                                 In  segment BANKED_CODE, align 1, keep-with-next
   \                     ?Subroutine29:
   \   000000   EA           MOV     A,R2
   \   000001   2430         ADD     A,#0x30
   \   000003   FE           MOV     R6,A
   \   000004   7401         MOV     A,#0x1
   \   000006   22           RET

   \                                 In  segment BANKED_CODE, align 1, keep-with-next
   \                     ?Subroutine36:
   \   000000   E8           MOV     A,R0
   \   000001                REQUIRE ??Subroutine40_0
   \   000001                ; // Fall through to label ??Subroutine40_0

   \                                 In  segment BANKED_CODE, align 1, keep-with-next
   \                     ?Subroutine19:
   \   000000   12....       LCALL   ?Subroutine36 & 0xFFFF
   \                     ??CrossCallReturnLabel_80:
   \   000003                REQUIRE ??Subroutine41_0
   \   000003                ; // Fall through to label ??Subroutine41_0

   \                                 In  segment BANKED_CODE, align 1, keep-with-next
   \                     ??Subroutine41_0:
   \   000000   F0           MOVX    @DPTR,A
   \   000001   EC           MOV     A,R4
   \   000002   F8           MOV     R0,A
   \   000003   ED           MOV     A,R5
   \   000004   F9           MOV     R1,A
   \   000005   7A0A         MOV     R2,#0xa
   \   000007   7B00         MOV     R3,#0x0
   \   000009   22           RET

   \                                 In  segment BANKED_CODE, align 1, keep-with-next
   \                     ?Subroutine6:
   \   000000   3B           ADDC    A,R3
   \   000001   F583         MOV     DPH,A
   \   000003   E0           MOVX    A,@DPTR
   \   000004   28           ADD     A,R0
   \   000005   F8           MOV     R0,A
   \   000006   A3           INC     DPTR
   \   000007   E0           MOVX    A,@DPTR
   \   000008   39           ADDC    A,R1
   \   000009   F9           MOV     R1,A
   \   00000A   22           RET

   \                                 In  segment XDATA_Z, align 1, keep-with-next
   \   unsigned int Temp_TGS4161[10]
   \                     Temp_TGS4161:
   \   000000                DS 20
   \   000014                REQUIRE __INIT_XDATA_Z

   \                                 In  segment BANKED_CODE, align 1, keep-with-next
   \   __banked_func __xdata_reentrant void Init_TGS4161(void)
   \                     Init_TGS4161:
   \   000000                ; Saved register size: 0
   \   000000                ; Auto size: 0
   \   000000   53FDFE       ANL     0xfd,#0xfe
   \   000003   43F201       ORL     0xf2,#0x1
   \   000006   02....       LJMP    ?BRET
   \   000009                REQUIRE P0DIR
   \   000009                REQUIRE ADCCFG

   \                                 In  segment BANKED_CODE, align 1, keep-with-next
   \   __banked_func __xdata_reentrant void background_TGS4161(void)
   \                     background_TGS4161:
   \   000000   74F6         MOV     A,#-0xa
   \   000002   12....       LCALL   ?BANKED_ENTER_XDATA
   \   000005                ; Saved register size: 10
   \   000005                ; Auto size: 0
   \   000005   75B430       MOV     0xb4,#0x30
   \   000008   75B6B0       MOV     0xb6,#-0x50
   \   00000B   43B440       ORL     0xb4,#0x40
   \                     ??background_TGS4161_0:
   \   00000E   E5B4         MOV     A,0xb4
   \   000010   A2E7         MOV     C,0xE0 /* A   */.7
   \   000012   50FA         JNC     ??background_TGS4161_0
   \   000014   12....       LCALL   ?Subroutine27 & 0xFFFF
   \                     ??CrossCallReturnLabel_45:
   \   000017   12....       LCALL   ?S_SHL
   \   00001A   12....       LCALL   ?Subroutine28 & 0xFFFF
   \                     ??CrossCallReturnLabel_50:
   \   00001D   90....       MOV     DPTR,#??i_TGS4161
   \   000020   12....       LCALL   ?Subroutine9 & 0xFFFF
   \                     ??CrossCallReturnLabel_7:
   \   000023   12....       LCALL   ?Subroutine30 & 0xFFFF
   \                     ??CrossCallReturnLabel_58:
   \   000026   EA           MOV     A,R2
   \   000027   F0           MOVX    @DPTR,A
   \   000028   A3           INC     DPTR
   \   000029   EB           MOV     A,R3
   \   00002A   F0           MOVX    @DPTR,A
   \   00002B   90....       MOV     DPTR,#??i_TGS4161
   \   00002E   12....       LCALL   ?Subroutine14 & 0xFFFF
   \                     ??CrossCallReturnLabel_22:
   \   000031   90....       MOV     DPTR,#??i_TGS4161
   \   000034   E0           MOVX    A,@DPTR
   \   000035   640A         XRL     A,#0xa
   \   000037   7002         JNZ     ??background_TGS4161_1
   \   000039   A3           INC     DPTR
   \   00003A   E0           MOVX    A,@DPTR
   \                     ??background_TGS4161_1:
   \   00003B   7007         JNZ     ??background_TGS4161_2
   \   00003D   90....       MOV     DPTR,#??i_TGS4161
   \   000040   E4           CLR     A
   \   000041   F0           MOVX    @DPTR,A
   \   000042   A3           INC     DPTR
   \   000043   F0           MOVX    @DPTR,A
   \                     ??background_TGS4161_2:
   \   000044   02....       LJMP    ?Subroutine2 & 0xFFFF
   \   000047                REQUIRE ADCCON1
   \   000047                REQUIRE ADCCON3
   \   000047                REQUIRE ADCL
   \   000047                REQUIRE ADCH

   \                                 In  segment BANKED_CODE, align 1, keep-with-next
   \                     ?Subroutine30:
   \   000000   74..         MOV     A,#Temp_TGS4161 & 0xff
   \   000002   28           ADD     A,R0
   \   000003   F582         MOV     DPL,A
   \   000005   74..         MOV     A,#(Temp_TGS4161 >> 8) & 0xff
   \   000007   39           ADDC    A,R1
   \   000008   F583         MOV     DPH,A
   \   00000A   22           RET

   \                                 In  segment XDATA_Z, align 1, keep-with-next
   \   int background_TGS4161::i_TGS4161
   \                     ??i_TGS4161:
   \   000000                DS 2
   \   000002                REQUIRE __INIT_XDATA_Z

   \                                 In  segment BANKED_CODE, align 1, keep-with-next
   \   __banked_func __xdata_reentrant unsigned int TGS4161_EMF_350ppm(void)
   \                     TGS4161_EMF_350ppm:
   \   000000   74F6         MOV     A,#-0xa
   \   000002   12....       LCALL   ?BANKED_ENTER_XDATA
   \   000005                ; Saved register size: 10
   \   000005                ; Auto size: 0
   \   000005   90....       MOV     DPTR,#wendu
   \   000008   12....       LCALL   ?Subroutine33 & 0xFFFF
   \                     ??CrossCallReturnLabel_103:
   \   00000B   E8           MOV     A,R0
   \   00000C   24D3         ADD     A,#-0x2d
   \   00000E   FA           MOV     R2,A
   \   00000F   E9           MOV     A,R1
   \   000010   34FE         ADDC    A,#-0x2
   \   000012   FB           MOV     R3,A
   \   000013   C3           CLR     C
   \   000014   EA           MOV     A,R2
   \   000015   9464         SUBB    A,#0x64
   \   000017   EB           MOV     A,R3
   \   000018   9400         SUBB    A,#0x0
   \   00001A   E8           MOV     A,R0
   \   00001B   501F         JNC     ??TGS4161_EMF_350ppm_0
   \   00001D   24D4         ADD     A,#-0x2c
   \   00001F   F5..         MOV     ?V0 + 0,A
   \   000021   E9           MOV     A,R1
   \   000022   34FE         ADDC    A,#-0x2
   \   000024   F5..         MOV     ?V0 + 1,A
   \   000026   7403         MOV     A,#0x3
   \   000028   78..         MOV     R0,#?V0 + 0
   \   00002A   12....       LCALL   ?S_SHL
   \   00002D   A8..         MOV     R0,?V0 + 0
   \   00002F   A9..         MOV     R1,?V0 + 1
   \   000031   7A64         MOV     R2,#0x64
   \   000033   FB           MOV     R3,A
   \   000034   12....       LCALL   ?US_DIV_MOD
   \   000037   E8           MOV     A,R0
   \   000038   2432         ADD     A,#0x32
   \   00003A   8052         SJMP    ??TGS4161_EMF_350ppm_1
   \                     ??TGS4161_EMF_350ppm_0:
   \   00003C   2437         ADD     A,#0x37
   \   00003E   12....       LCALL   ?Subroutine32 & 0xFFFF
   \                     ??CrossCallReturnLabel_64:
   \   000041   E8           MOV     A,R0
   \   000042   5022         JNC     ??TGS4161_EMF_350ppm_2
   \   000044   2438         ADD     A,#0x38
   \   000046   F8           MOV     R0,A
   \   000047   E9           MOV     A,R1
   \   000048   34FF         ADDC    A,#-0x1
   \   00004A   F9           MOV     R1,A
   \   00004B   E8           MOV     A,R0
   \   00004C   75F006       MOV     B,#0x6
   \   00004F   A4           MUL     AB
   \   000050   F8           MOV     R0,A
   \   000051   AAF0         MOV     R2,B
   \   000053   75F006       MOV     B,#0x6
   \   000056   E9           MOV     A,R1
   \   000057   A4           MUL     AB
   \   000058   2A           ADD     A,R2
   \   000059   F9           MOV     R1,A
   \   00005A   7A64         MOV     R2,#0x64
   \   00005C   7B00         MOV     R3,#0x0
   \   00005E   12....       LCALL   ?US_DIV_MOD
   \   000061   E8           MOV     A,R0
   \   000062   242C         ADD     A,#0x2c
   \   000064   8028         SJMP    ??TGS4161_EMF_350ppm_1
   \                     ??TGS4161_EMF_350ppm_2:
   \   000066   249B         ADD     A,#-0x65
   \   000068   12....       LCALL   ?Subroutine32 & 0xFFFF
   \                     ??CrossCallReturnLabel_65:
   \   00006B   5028         JNC     ??TGS4161_EMF_350ppm_3
   \   00006D   E8           MOV     A,R0
   \   00006E   249C         ADD     A,#-0x64
   \   000070   F8           MOV     R0,A
   \   000071   E9           MOV     A,R1
   \   000072   34FF         ADDC    A,#-0x1
   \   000074   F9           MOV     R1,A
   \   000075   E8           MOV     A,R0
   \   000076   75F007       MOV     B,#0x7
   \   000079   A4           MUL     AB
   \   00007A   F8           MOV     R0,A
   \   00007B   AAF0         MOV     R2,B
   \   00007D   75F007       MOV     B,#0x7
   \   000080   E9           MOV     A,R1
   \   000081   A4           MUL     AB
   \   000082   2A           ADD     A,R2
   \   000083   F9           MOV     R1,A
   \   000084   7A64         MOV     R2,#0x64
   \   000086   7B00         MOV     R3,#0x0
   \   000088   12....       LCALL   ?US_DIV_MOD
   \   00008B   E8           MOV     A,R0
   \   00008C   2425         ADD     A,#0x25
   \                     ??TGS4161_EMF_350ppm_1:
   \   00008E   FA           MOV     R2,A
   \   00008F   E9           MOV     A,R1
   \   000090   3401         ADDC    A,#0x1
   \   000092   FB           MOV     R3,A
   \   000093   8004         SJMP    ??TGS4161_EMF_350ppm_4
   \                     ??TGS4161_EMF_350ppm_3:
   \   000095   7A00         MOV     R2,#0x0
   \   000097   7B00         MOV     R3,#0x0
   \                     ??TGS4161_EMF_350ppm_4:
   \   000099   02....       LJMP    ?Subroutine2 & 0xFFFF

   \                                 In  segment BANKED_CODE, align 1, keep-with-next
   \                     ?Subroutine32:
   \   000000   FA           MOV     R2,A
   \   000001   E9           MOV     A,R1
   \   000002   34FF         ADDC    A,#-0x1
   \   000004   FB           MOV     R3,A
   \   000005   C3           CLR     C
   \   000006   EA           MOV     A,R2
   \   000007   9464         SUBB    A,#0x64
   \   000009   EB           MOV     A,R3
   \   00000A   9400         SUBB    A,#0x0
   \   00000C   22           RET

   \                                 In  segment BANKED_CODE, align 1, keep-with-next
   \   __banked_func __xdata_reentrant void SendData_TGS4161(void)
   \                     SendData_TGS4161:
   \   000000   74EE         MOV     A,#-0x12
   \   000002   12....       LCALL   ?BANKED_ENTER_XDATA
   \   000005                ; Saved register size: 18
   \   000005                ; Auto size: 4
   \   000005   74FC         MOV     A,#-0x4
   \   000007   12....       LCALL   ?ALLOC_XSTACK8
   \   00000A   75..00       MOV     ?V0 + 0,#0x0
   \   00000D   7E00         MOV     R6,#0x0
   \   00000F   7F00         MOV     R7,#0x0
   \   000011                ; Setup parameters for call to function TGS4161_EMF_350ppm
   \   000011   12....       LCALL   ??TGS4161_EMF_350ppm?relay
   \   000014   8A..         MOV     ?V0 + 8,R2
   \   000016   8B..         MOV     ?V0 + 9,R3
   \                     ??SendData_TGS4161_0:
   \   000018   E5..         MOV     A,?V0 + 0
   \   00001A   C3           CLR     C
   \   00001B   33           RLC     A
   \   00001C   F8           MOV     R0,A
   \   00001D   E4           CLR     A
   \   00001E   33           RLC     A
   \   00001F   F9           MOV     R1,A
   \   000020   12....       LCALL   ?Subroutine30 & 0xFFFF
   \                     ??CrossCallReturnLabel_59:
   \   000023   E0           MOVX    A,@DPTR
   \   000024   2E           ADD     A,R6
   \   000025   FE           MOV     R6,A
   \   000026   A3           INC     DPTR
   \   000027   E0           MOVX    A,@DPTR
   \   000028   3F           ADDC    A,R7
   \   000029   FF           MOV     R7,A
   \   00002A   05..         INC     ?V0 + 0
   \   00002C   E5..         MOV     A,?V0 + 0
   \   00002E   C3           CLR     C
   \   00002F   940A         SUBB    A,#0xa
   \   000031   40E5         JC      ??SendData_TGS4161_0
   \   000033   EE           MOV     A,R6
   \   000034   F8           MOV     R0,A
   \   000035   EF           MOV     A,R7
   \   000036   F9           MOV     R1,A
   \   000037   7A0A         MOV     R2,#0xa
   \   000039   7B00         MOV     R3,#0x0
   \   00003B   12....       LCALL   ?US_DIV_MOD
   \   00003E   88..         MOV     ?V0 + 0,R0
   \   000040   89..         MOV     ?V0 + 1,R1
   \   000042   E4           CLR     A
   \   000043   F5..         MOV     ?V0 + 2,A
   \   000045   F5..         MOV     ?V0 + 3,A
   \   000047   78..         MOV     R0,#?V0 + 0
   \   000049   12....       LCALL   ?UL_TO_FLT
   \   00004C   90....       MOV     DPTR,#__Constant_447a0000
   \   00004F   78..         MOV     R0,#?V0 + 4
   \   000051   12....       LCALL   ?L_MOV_X
   \   000054   78..         MOV     R0,#?V0 + 0
   \   000056   79..         MOV     R1,#?V0 + 4
   \   000058   12....       LCALL   ?FLT_MUL
   \   00005B   90....       MOV     DPTR,#__Constant_39800000
   \   00005E   78..         MOV     R0,#?V0 + 4
   \   000060   12....       LCALL   ?L_MOV_X
   \   000063   78..         MOV     R0,#?V0 + 0
   \   000065   79..         MOV     R1,#?V0 + 4
   \   000067   12....       LCALL   ?FLT_MUL
   \   00006A   85....       MOV     ?V0 + 4,?V0 + 0
   \   00006D   85....       MOV     ?V0 + 5,?V0 + 1
   \   000070   85....       MOV     ?V0 + 6,?V0 + 2
   \   000073   85....       MOV     ?V0 + 7,?V0 + 3
   \   000076   78..         MOV     R0,#?V0 + 4
   \   000078   12....       LCALL   ?FLT_TO_L
   \   00007B   A8..         MOV     R0,?V0 + 4
   \   00007D   A9..         MOV     R1,?V0 + 5
   \   00007F   85..82       MOV     DPL,?XSP + 0
   \   000082   85..83       MOV     DPH,?XSP + 1
   \   000085   AC82         MOV     R4,DPL
   \   000087   AD83         MOV     R5,DPH
   \   000089   7583..       MOV     DPH,#(`?<Constant {0}>_1` >> 8) & 0xff
   \   00008C   7582..       MOV     DPL,#`?<Constant {0}>_1` & 0xff
   \   00008F   7404         MOV     A,#0x4
   \   000091   12....       LCALL   ?MOVE_LONG8_XDATA_XDATA
   \   000094   C3           CLR     C
   \   000095   E5..         MOV     A,?V0 + 8
   \   000097   98           SUBB    A,R0
   \   000098   E5..         MOV     A,?V0 + 9
   \   00009A   99           SUBB    A,R1
   \   00009B   500D         JNC     ??SendData_TGS4161_1
   \   00009D   90....       MOV     DPTR,#SensorsData + 10
   \   0000A0   7430         MOV     A,#0x30
   \   0000A2   F0           MOVX    @DPTR,A
   \   0000A3   A3           INC     DPTR
   \   0000A4   F0           MOVX    @DPTR,A
   \   0000A5   A3           INC     DPTR
   \   0000A6   F0           MOVX    @DPTR,A
   \   0000A7   02....       LJMP    ??CrossCallReturnLabel_42 & 0xFFFF
   \                     ??SendData_TGS4161_1:
   \   0000AA   E5..         MOV     A,?V0 + 8
   \   0000AC   C3           CLR     C
   \   0000AD   98           SUBB    A,R0
   \   0000AE   FA           MOV     R2,A
   \   0000AF   E5..         MOV     A,?V0 + 9
   \   0000B1   99           SUBB    A,R1
   \   0000B2   FB           MOV     R3,A
   \   0000B3   EA           MOV     A,R2
   \   0000B4   4B           ORL     A,R3
   \   0000B5   6044         JZ      ??SendData_TGS4161_2
   \   0000B7   C3           CLR     C
   \   0000B8   EA           MOV     A,R2
   \   0000B9   940D         SUBB    A,#0xd
   \   0000BB   EB           MOV     A,R3
   \   0000BC   9400         SUBB    A,#0x0
   \   0000BE   503B         JNC     ??SendData_TGS4161_2
   \   0000C0   8A..         MOV     ?V0 + 0,R2
   \   0000C2   8B..         MOV     ?V0 + 1,R3
   \   0000C4   E4           CLR     A
   \   0000C5   F5..         MOV     ?V0 + 2,A
   \   0000C7   F5..         MOV     ?V0 + 3,A
   \   0000C9   78..         MOV     R0,#?V0 + 0
   \   0000CB   12....       LCALL   ?UL_TO_FLT
   \   0000CE   90....       MOV     DPTR,#__Constant_42480000
   \   0000D1   78..         MOV     R0,#?V0 + 4
   \   0000D3   12....       LCALL   ?L_MOV_X
   \   0000D6   78..         MOV     R0,#?V0 + 0
   \   0000D8   79..         MOV     R1,#?V0 + 4
   \   0000DA   12....       LCALL   ?FLT_MUL
   \   0000DD   90....       MOV     DPTR,#__Constant_40400000
   \   0000E0   78..         MOV     R0,#?V0 + 4
   \   0000E2   12....       LCALL   ?L_MOV_X
   \   0000E5   78..         MOV     R0,#?V0 + 0
   \   0000E7   79..         MOV     R1,#?V0 + 4
   \   0000E9   12....       LCALL   ?FLT_DIV
   \   0000EC   90....       MOV     DPTR,#__Constant_43af0000
   \   0000EF   78..         MOV     R0,#?V0 + 4
   \   0000F1   12....       LCALL   ?L_MOV_X
   \   0000F4   78..         MOV     R0,#?V0 + 0
   \   0000F6   79..         MOV     R1,#?V0 + 4
   \   0000F8   12....       LCALL   ?FLT_ADD
   \                     ??SendData_TGS4161_2:
   \   0000FB   EA           MOV     A,R2
   \   0000FC   24F3         ADD     A,#-0xd
   \   0000FE   F8           MOV     R0,A
   \   0000FF   EB           MOV     A,R3
   \   000100   34FF         ADDC    A,#-0x1
   \   000102   F9           MOV     R1,A
   \   000103   C3           CLR     C
   \   000104   E8           MOV     A,R0
   \   000105   940D         SUBB    A,#0xd
   \   000107   E9           MOV     A,R1
   \   000108   9400         SUBB    A,#0x0
   \   00010A   502C         JNC     ??SendData_TGS4161_3
   \   00010C   8A..         MOV     ?V0 + 0,R2
   \   00010E   8B..         MOV     ?V0 + 1,R3
   \   000110   E4           CLR     A
   \   000111   F5..         MOV     ?V0 + 2,A
   \   000113   F5..         MOV     ?V0 + 3,A
   \   000115   78..         MOV     R0,#?V0 + 0
   \   000117   12....       LCALL   ?UL_TO_FLT
   \   00011A   90....       MOV     DPTR,#__Constant_41c80000
   \   00011D   78..         MOV     R0,#?V0 + 4
   \   00011F   12....       LCALL   ?L_MOV_X
   \   000122   78..         MOV     R0,#?V0 + 0
   \   000124   79..         MOV     R1,#?V0 + 4
   \   000126   12....       LCALL   ?FLT_MUL
   \   000129   90....       MOV     DPTR,#__Constant_437a0000
   \   00012C   78..         MOV     R0,#?V0 + 4
   \   00012E   12....       LCALL   ?L_MOV_X
   \   000131   78..         MOV     R0,#?V0 + 0
   \   000133   79..         MOV     R1,#?V0 + 4
   \   000135   12....       LCALL   ?FLT_ADD
   \                     ??SendData_TGS4161_3:
   \   000138   EA           MOV     A,R2
   \   000139   24E4         ADD     A,#-0x1c
   \   00013B   F8           MOV     R0,A
   \   00013C   EB           MOV     A,R3
   \   00013D   34FF         ADDC    A,#-0x1
   \   00013F   F9           MOV     R1,A
   \   000140   C3           CLR     C
   \   000141   E8           MOV     A,R0
   \   000142   942C         SUBB    A,#0x2c
   \   000144   E9           MOV     A,R1
   \   000145   9400         SUBB    A,#0x0
   \   000147   5047         JNC     ??SendData_TGS4161_4
   \   000149                ; Setup parameters for call to function pow
   \   000149   8A..         MOV     ?V0 + 0,R2
   \   00014B   8B..         MOV     ?V0 + 1,R3
   \   00014D   E4           CLR     A
   \   00014E   F5..         MOV     ?V0 + 2,A
   \   000150   F5..         MOV     ?V0 + 3,A
   \   000152   78..         MOV     R0,#?V0 + 0
   \   000154   12....       LCALL   ?UL_TO_FLT
   \   000157   90....       MOV     DPTR,#__Constant_431cb333
   \   00015A   78..         MOV     R0,#?V0 + 4
   \   00015C   12....       LCALL   ?L_MOV_X
   \   00015F   78..         MOV     R0,#?V0 + 0
   \   000161   79..         MOV     R1,#?V0 + 4
   \   000163   12....       LCALL   ?FLT_ADD
   \   000166   90....       MOV     DPTR,#__Constant_427647ae
   \   000169   78..         MOV     R0,#?V0 + 4
   \   00016B   12....       LCALL   ?L_MOV_X
   \   00016E   78..         MOV     R0,#?V0 + 0
   \   000170   79..         MOV     R1,#?V0 + 4
   \   000172   12....       LCALL   ?FLT_DIV
   \   000175   78..         MOV     R0,#?V0 + 0
   \   000177   12....       LCALL   ?PUSH_XSTACK_I_FOUR
   \   00017A   90....       MOV     DPTR,#__Constant_41200000
   \   00017D   12....       LCALL   ?XLOAD_R2345
   \   000180   12....       LCALL   ??pow?relay
   \   000183   7404         MOV     A,#0x4
   \   000185   12....       LCALL   ?DEALLOC_XSTACK8
   \   000188   8A..         MOV     ?V0 + 0,R2
   \   00018A   8B..         MOV     ?V0 + 1,R3
   \   00018C   8C..         MOV     ?V0 + 2,R4
   \   00018E   8D..         MOV     ?V0 + 3,R5
   \                     ??SendData_TGS4161_4:
   \   000190   78..         MOV     R0,#?V0 + 0
   \   000192   12....       LCALL   ?FLT_TO_L
   \   000195   AC..         MOV     R4,?V0 + 0
   \   000197   AD..         MOV     R5,?V0 + 1
   \   000199   EC           MOV     A,R4
   \   00019A   F8           MOV     R0,A
   \   00019B   ED           MOV     A,R5
   \   00019C   F9           MOV     R1,A
   \   00019D   7AE8         MOV     R2,#-0x18
   \   00019F   7B03         MOV     R3,#0x3
   \   0001A1   12....       LCALL   ?S_DIV_MOD
   \   0001A4   12....       LCALL   ?Subroutine20 & 0xFFFF
   \                     ??CrossCallReturnLabel_73:
   \   0001A7   12....       LCALL   ?S_DIV_MOD
   \   0001AA   7A0A         MOV     R2,#0xa
   \   0001AC   7B00         MOV     R3,#0x0
   \   0001AE   12....       LCALL   ?S_DIV_MOD
   \   0001B1   12....       LCALL   ?Subroutine29 & 0xFFFF
   \                     ??CrossCallReturnLabel_55:
   \   0001B4   12....       LCALL   ?XSTACK_DISP0_8
   \   0001B7   EE           MOV     A,R6
   \   0001B8   12....       LCALL   ??Subroutine39_0 & 0xFFFF
   \                     ??CrossCallReturnLabel_76:
   \   0001BB   12....       LCALL   ?S_DIV_MOD
   \   0001BE   EA           MOV     A,R2
   \   0001BF   F8           MOV     R0,A
   \   0001C0   EB           MOV     A,R3
   \   0001C1   F9           MOV     R1,A
   \   0001C2   7A0A         MOV     R2,#0xa
   \   0001C4   7B00         MOV     R3,#0x0
   \   0001C6   12....       LCALL   ?S_DIV_MOD
   \   0001C9   E8           MOV     A,R0
   \   0001CA   2430         ADD     A,#0x30
   \   0001CC   FF           MOV     R7,A
   \   0001CD   7402         MOV     A,#0x2
   \   0001CF   12....       LCALL   ?XSTACK_DISP0_8
   \   0001D2   EF           MOV     A,R7
   \   0001D3   12....       LCALL   ??Subroutine41_0 & 0xFFFF
   \                     ??CrossCallReturnLabel_85:
   \   0001D6   12....       LCALL   ?S_DIV_MOD
   \   0001D9   EA           MOV     A,R2
   \   0001DA   2430         ADD     A,#0x30
   \   0001DC   F8           MOV     R0,A
   \   0001DD   7403         MOV     A,#0x3
   \   0001DF   12....       LCALL   ?XSTACK_DISP0_8
   \   0001E2   12....       LCALL   ?Subroutine21 & 0xFFFF
   \                     ??CrossCallReturnLabel_69:
   \   0001E5   90....       MOV     DPTR,#SensorsData + 10
   \   0001E8   12....       LCALL   ?Subroutine26 & 0xFFFF
   \                     ??CrossCallReturnLabel_42:
   \   0001EB   A3           INC     DPTR
   \   0001EC   F0           MOVX    @DPTR,A
   \   0001ED   7404         MOV     A,#0x4
   \   0001EF   12....       LCALL   ?DEALLOC_XSTACK8
   \   0001F2   7F0A         MOV     R7,#0xa
   \   0001F4   02....       LJMP    ?BANKED_LEAVE_XDATA

   \                                 In  segment BANKED_CODE, align 1, keep-with-next
   \                     ?Subroutine26:
   \   000000   F0           MOVX    @DPTR,A
   \   000001   EE           MOV     A,R6
   \   000002   A3           INC     DPTR
   \   000003   F0           MOVX    @DPTR,A
   \   000004   EF           MOV     A,R7
   \   000005   A3           INC     DPTR
   \   000006   F0           MOVX    @DPTR,A
   \   000007   E8           MOV     A,R0
   \   000008   22           RET

   \                                 In  segment BANKED_CODE, align 1, keep-with-next
   \                     ?Subroutine20:
   \   000000   12....       LCALL   ?Subroutine36 & 0xFFFF
   \                     ??CrossCallReturnLabel_81:
   \   000003                REQUIRE ??Subroutine39_0
   \   000003                ; // Fall through to label ??Subroutine39_0

   \                                 In  segment BANKED_CODE, align 1, keep-with-next
   \                     ??Subroutine39_0:
   \   000000   F0           MOVX    @DPTR,A
   \   000001   EC           MOV     A,R4
   \   000002   F8           MOV     R0,A
   \   000003   ED           MOV     A,R5
   \   000004   F9           MOV     R1,A
   \   000005   7A64         MOV     R2,#0x64
   \   000007   7B00         MOV     R3,#0x0
   \   000009   22           RET

   \                                 In  segment XDATA_I, align 1, keep-with-next
   \   float R0_MQ7
   \                     R0_MQ7:
   \   000000                DS 4
   \   000004                REQUIRE `?<Initializer for R0_MQ7>`
   \   000004                REQUIRE __INIT_XDATA_I

   \                                 In  segment XDATA_Z, align 1, keep-with-next
   \   unsigned int Temp_MQ7[10]
   \                     Temp_MQ7:
   \   000000                DS 20
   \   000014                REQUIRE __INIT_XDATA_Z

   \                                 In  segment BANKED_CODE, align 1, keep-with-next
   \   __banked_func __xdata_reentrant void Init_MQ7(void)
   \                     Init_MQ7:
   \   000000                ; Saved register size: 0
   \   000000                ; Auto size: 0
   \   000000   53FDBF       ANL     0xfd,#0xbf
   \   000003   43F240       ORL     0xf2,#0x40
   \   000006   02....       LJMP    ?BRET
   \   000009                REQUIRE P0DIR
   \   000009                REQUIRE ADCCFG

   \                                 In  segment BANKED_CODE, align 1, keep-with-next
   \   __banked_func __xdata_reentrant void background_MQ7(void)
   \                     background_MQ7:
   \   000000   74F6         MOV     A,#-0xa
   \   000002   12....       LCALL   ?BANKED_ENTER_XDATA
   \   000005                ; Saved register size: 10
   \   000005                ; Auto size: 0
   \   000005   75B430       MOV     0xb4,#0x30
   \   000008   75B6B6       MOV     0xb6,#-0x4a
   \   00000B   43B440       ORL     0xb4,#0x40
   \                     ??background_MQ7_0:
   \   00000E   E5B4         MOV     A,0xb4
   \   000010   A2E7         MOV     C,0xE0 /* A   */.7
   \   000012   50FA         JNC     ??background_MQ7_0
   \   000014   12....       LCALL   ?Subroutine27 & 0xFFFF
   \                     ??CrossCallReturnLabel_46:
   \   000017   12....       LCALL   ?S_SHL
   \   00001A   12....       LCALL   ?Subroutine28 & 0xFFFF
   \                     ??CrossCallReturnLabel_51:
   \   00001D   90....       MOV     DPTR,#??i
   \   000020   12....       LCALL   ?Subroutine9 & 0xFFFF
   \                     ??CrossCallReturnLabel_8:
   \   000023   74..         MOV     A,#Temp_MQ7 & 0xff
   \   000025   28           ADD     A,R0
   \   000026   F582         MOV     DPL,A
   \   000028   74..         MOV     A,#(Temp_MQ7 >> 8) & 0xff
   \   00002A   12....       LCALL   ?Subroutine31 & 0xFFFF
   \                     ??CrossCallReturnLabel_61:
   \   00002D   90....       MOV     DPTR,#??i
   \   000030   12....       LCALL   ?Subroutine14 & 0xFFFF
   \                     ??CrossCallReturnLabel_23:
   \   000033   90....       MOV     DPTR,#??i
   \   000036   E0           MOVX    A,@DPTR
   \   000037   640A         XRL     A,#0xa
   \   000039   7002         JNZ     ??background_MQ7_1
   \   00003B   A3           INC     DPTR
   \   00003C   E0           MOVX    A,@DPTR
   \                     ??background_MQ7_1:
   \   00003D   7007         JNZ     ??background_MQ7_2
   \   00003F   90....       MOV     DPTR,#??i
   \   000042   E4           CLR     A
   \   000043   F0           MOVX    @DPTR,A
   \   000044   A3           INC     DPTR
   \   000045   F0           MOVX    @DPTR,A
   \                     ??background_MQ7_2:
   \   000046   02....       LJMP    ?Subroutine2 & 0xFFFF
   \   000049                REQUIRE ADCCON1
   \   000049                REQUIRE ADCCON3
   \   000049                REQUIRE ADCL
   \   000049                REQUIRE ADCH

   \                                 In  segment XDATA_Z, align 1, keep-with-next
   \   int background_MQ7::i
   \                     ??i:
   \   000000                DS 2
   \   000002                REQUIRE __INIT_XDATA_Z

   \                                 In  segment BANKED_CODE, align 1, keep-with-next
   \   __banked_func __xdata_reentrant void SendData_MQ7(void)
   \                     SendData_MQ7:
   \   000000   74E8         MOV     A,#-0x18
   \   000002   12....       LCALL   ?BANKED_ENTER_XDATA
   \   000005                ; Saved register size: 24
   \   000005                ; Auto size: 4
   \   000005   74FC         MOV     A,#-0x4
   \   000007   12....       LCALL   ?ALLOC_XSTACK8
   \   00000A   85..82       MOV     DPL,?XSP + 0
   \   00000D   85..83       MOV     DPH,?XSP + 1
   \   000010   AC82         MOV     R4,DPL
   \   000012   AD83         MOV     R5,DPH
   \   000014   7583..       MOV     DPH,#(`?<Constant {0}>_2` >> 8) & 0xff
   \   000017   7582..       MOV     DPL,#`?<Constant {0}>_2` & 0xff
   \   00001A   7404         MOV     A,#0x4
   \   00001C   12....       LCALL   ?MOVE_LONG8_XDATA_XDATA
   \   00001F   F5..         MOV     ?V0 + 0,A
   \   000021   F5..         MOV     ?V0 + 1,A
   \   000023   FA           MOV     R2,A
   \                     ??SendData_MQ7_0:
   \   000024   EA           MOV     A,R2
   \   000025   C3           CLR     C
   \   000026   33           RLC     A
   \   000027   F8           MOV     R0,A
   \   000028   E4           CLR     A
   \   000029   33           RLC     A
   \   00002A   F9           MOV     R1,A
   \   00002B   74..         MOV     A,#Temp_MQ7 & 0xff
   \   00002D   28           ADD     A,R0
   \   00002E   F582         MOV     DPL,A
   \   000030   74..         MOV     A,#(Temp_MQ7 >> 8) & 0xff
   \   000032   12....       LCALL   ?Subroutine11 & 0xFFFF
   \                     ??CrossCallReturnLabel_13:
   \   000035   40ED         JC      ??SendData_MQ7_0
   \   000037   75..00       MOV     ?V0 + 8,#0x0
   \   00003A   75..50       MOV     ?V0 + 9,#0x50
   \   00003D   75..43       MOV     ?V0 + 10,#0x43
   \   000040   75..47       MOV     ?V0 + 11,#0x47
   \   000043   E4           CLR     A
   \   000044   F5..         MOV     ?V0 + 2,A
   \   000046   F5..         MOV     ?V0 + 3,A
   \   000048   78..         MOV     R0,#?V0 + 0
   \   00004A   12....       LCALL   ?UL_TO_FLT
   \   00004D   90....       MOV     DPTR,#__Constant_41200000
   \   000050   78..         MOV     R0,#?V0 + 12
   \   000052   12....       LCALL   ?L_MOV_X
   \   000055   78..         MOV     R0,#?V0 + 0
   \   000057   79..         MOV     R1,#?V0 + 12
   \   000059   12....       LCALL   ?FLT_DIV
   \   00005C   90....       MOV     DPTR,#__Constant_40533333
   \   00005F   78..         MOV     R0,#?V0 + 12
   \   000061   12....       LCALL   ?L_MOV_X
   \   000064   78..         MOV     R0,#?V0 + 0
   \   000066   79..         MOV     R1,#?V0 + 12
   \   000068   12....       LCALL   ?FLT_MUL
   \   00006B   90....       MOV     DPTR,#__Constant_3a000000
   \   00006E   78..         MOV     R0,#?V0 + 12
   \   000070   12....       LCALL   ?L_MOV_X
   \   000073   78..         MOV     R0,#?V0 + 0
   \   000075   79..         MOV     R1,#?V0 + 12
   \   000077   12....       LCALL   ?FLT_MUL
   \   00007A   78..         MOV     R0,#?V0 + 8
   \   00007C   79..         MOV     R1,#?V0 + 0
   \   00007E   12....       LCALL   ?FLT_DIV
   \   000081   90....       MOV     DPTR,#__Constant_c61c4000
   \   000084   78..         MOV     R0,#?V0 + 0
   \   000086   12....       LCALL   ?L_MOV_X
   \   000089   78..         MOV     R0,#?V0 + 8
   \   00008B   79..         MOV     R1,#?V0 + 0
   \   00008D   12....       LCALL   ?FLT_ADD
   \   000090   85....       MOV     ?V0 + 0,?V0 + 8
   \   000093   85....       MOV     ?V0 + 1,?V0 + 9
   \   000096   85....       MOV     ?V0 + 2,?V0 + 10
   \   000099   85....       MOV     ?V0 + 3,?V0 + 11
   \   00009C   90....       MOV     DPTR,#R0_MQ7
   \   00009F   78..         MOV     R0,#?V0 + 12
   \   0000A1   12....       LCALL   ?L_MOV_X
   \   0000A4   78..         MOV     R0,#?V0 + 0
   \   0000A6   79..         MOV     R1,#?V0 + 12
   \   0000A8   12....       LCALL   ?FLT_DIV
   \   0000AB   90....       MOV     DPTR,#__Constant_3fd33334
   \   0000AE   78..         MOV     R0,#?V0 + 12
   \   0000B0   12....       LCALL   ?L_MOV_X
   \   0000B3   78..         MOV     R0,#?V0 + 0
   \   0000B5   79..         MOV     R1,#?V0 + 12
   \   0000B7   12....       LCALL   ?FLT_GE
   \   0000BA   500D         JNC     ??SendData_MQ7_1
   \   0000BC   90....       MOV     DPTR,#SensorsData + 14
   \   0000BF   7430         MOV     A,#0x30
   \   0000C1   F0           MOVX    @DPTR,A
   \   0000C2   A3           INC     DPTR
   \   0000C3   F0           MOVX    @DPTR,A
   \   0000C4   A3           INC     DPTR
   \   0000C5   F0           MOVX    @DPTR,A
   \   0000C6   02....       LJMP    ??CrossCallReturnLabel_43 & 0xFFFF
   \                     ??SendData_MQ7_1:
   \   0000C9   85....       MOV     ?V0 + 0,?V0 + 8
   \   0000CC   85....       MOV     ?V0 + 1,?V0 + 9
   \   0000CF   85....       MOV     ?V0 + 2,?V0 + 10
   \   0000D2   85....       MOV     ?V0 + 3,?V0 + 11
   \   0000D5   90....       MOV     DPTR,#R0_MQ7
   \   0000D8   78..         MOV     R0,#?V0 + 12
   \   0000DA   12....       LCALL   ?L_MOV_X
   \   0000DD   78..         MOV     R0,#?V0 + 0
   \   0000DF   79..         MOV     R1,#?V0 + 12
   \   0000E1   12....       LCALL   ?FLT_DIV
   \   0000E4   90....       MOV     DPTR,#__Constant_3f800001
   \   0000E7   78..         MOV     R0,#?V0 + 12
   \   0000E9   12....       LCALL   ?L_MOV_X
   \   0000EC   78..         MOV     R0,#?V0 + 0
   \   0000EE   79..         MOV     R1,#?V0 + 12
   \   0000F0   12....       LCALL   ?FLT_GE
   \   0000F3   4003         JC      $+5
   \   0000F5   02....       LJMP    ??SendData_MQ7_2 & 0xFFFF
   \   0000F8   85....       MOV     ?V0 + 4,?V0 + 8
   \   0000FB   85....       MOV     ?V0 + 5,?V0 + 9
   \   0000FE   85....       MOV     ?V0 + 6,?V0 + 10
   \   000101   85....       MOV     ?V0 + 7,?V0 + 11
   \   000104   90....       MOV     DPTR,#R0_MQ7
   \   000107   78..         MOV     R0,#?V0 + 0
   \   000109   12....       LCALL   ?L_MOV_X
   \   00010C   78..         MOV     R0,#?V0 + 4
   \   00010E   79..         MOV     R1,#?V0 + 0
   \   000110   12....       LCALL   ?FLT_DIV
   \   000113   90....       MOV     DPTR,#__Constant_42480000
   \   000116   78..         MOV     R0,#?V0 + 0
   \   000118   12....       LCALL   ?L_MOV_X
   \   00011B   78..         MOV     R0,#?V0 + 4
   \   00011D   79..         MOV     R1,#?V0 + 0
   \   00011F   12....       LCALL   ?FLT_MUL
   \   000122   90....       MOV     DPTR,#__Constant_bf266666
   \   000125   78..         MOV     R0,#?V0 + 0
   \   000127   12....       LCALL   ?L_MOV_X
   \   00012A   78..         MOV     R0,#?V0 + 4
   \   00012C   79..         MOV     R1,#?V0 + 0
   \   00012E   12....       LCALL   ?FLT_DIV
   \   000131   90....       MOV     DPTR,#__Constant_42480000
   \   000134   78..         MOV     R0,#?V0 + 0
   \   000136   12....       LCALL   ?L_MOV_X
   \   000139   78..         MOV     R0,#?V0 + 4
   \   00013B   79..         MOV     R1,#?V0 + 0
   \   00013D   12....       LCALL   ?FLT_ADD
   \                     ??SendData_MQ7_3:
   \   000140   85....       MOV     ?V0 + 0,?V0 + 8
   \   000143   85....       MOV     ?V0 + 1,?V0 + 9
   \   000146   85....       MOV     ?V0 + 2,?V0 + 10
   \   000149   85....       MOV     ?V0 + 3,?V0 + 11
   \   00014C   90....       MOV     DPTR,#R0_MQ7
   \   00014F   78..         MOV     R0,#?V0 + 12
   \   000151   12....       LCALL   ?L_MOV_X
   \   000154   78..         MOV     R0,#?V0 + 0
   \   000156   79..         MOV     R1,#?V0 + 12
   \   000158   12....       LCALL   ?FLT_DIV
   \   00015B   90....       MOV     DPTR,#__Constant_3e6147af
   \   00015E   78..         MOV     R0,#?V0 + 12
   \   000160   12....       LCALL   ?L_MOV_X
   \   000163   78..         MOV     R0,#?V0 + 0
   \   000165   79..         MOV     R1,#?V0 + 12
   \   000167   12....       LCALL   ?FLT_GE
   \   00016A   4003         JC      $+5
   \   00016C   02....       LJMP    ??SendData_MQ7_4 & 0xFFFF
   \   00016F   85....       MOV     ?V0 + 0,?V0 + 8
   \   000172   85....       MOV     ?V0 + 1,?V0 + 9
   \   000175   85....       MOV     ?V0 + 2,?V0 + 10
   \   000178   85....       MOV     ?V0 + 3,?V0 + 11
   \   00017B   90....       MOV     DPTR,#R0_MQ7
   \   00017E   78..         MOV     R0,#?V0 + 12
   \   000180   12....       LCALL   ?L_MOV_X
   \   000183   78..         MOV     R0,#?V0 + 0
   \   000185   79..         MOV     R1,#?V0 + 12
   \   000187   12....       LCALL   ?FLT_DIV
   \   00018A   90....       MOV     DPTR,#__Constant_3ec28f5d
   \   00018D   78..         MOV     R0,#?V0 + 12
   \   00018F   12....       LCALL   ?L_MOV_X
   \   000192   78..         MOV     R0,#?V0 + 0
   \   000194   79..         MOV     R1,#?V0 + 12
   \   000196   12....       LCALL   ?FLT_LT
   \   000199   4003         JC      $+5
   \   00019B   02....       LJMP    ??SendData_MQ7_5 & 0xFFFF
   \   00019E   85....       MOV     ?V0 + 4,?V0 + 8
   \   0001A1   85....       MOV     ?V0 + 5,?V0 + 9
   \   0001A4   85....       MOV     ?V0 + 6,?V0 + 10
   \   0001A7   85....       MOV     ?V0 + 7,?V0 + 11
   \   0001AA   90....       MOV     DPTR,#R0_MQ7
   \   0001AD   78..         MOV     R0,#?V0 + 0
   \   0001AF   12....       LCALL   ?L_MOV_X
   \   0001B2   78..         MOV     R0,#?V0 + 4
   \   0001B4   79..         MOV     R1,#?V0 + 0
   \   0001B6   12....       LCALL   ?FLT_DIV
   \   0001B9   90....       MOV     DPTR,#__Constant_44160000
   \   0001BC   78..         MOV     R0,#?V0 + 0
   \   0001BE   12....       LCALL   ?L_MOV_X
   \   0001C1   78..         MOV     R0,#?V0 + 4
   \   0001C3   79..         MOV     R1,#?V0 + 0
   \   0001C5   12....       LCALL   ?FLT_MUL
   \   0001C8   90....       MOV     DPTR,#__Constant_be23d70a
   \   0001CB   78..         MOV     R0,#?V0 + 0
   \   0001CD   12....       LCALL   ?L_MOV_X
   \   0001D0   78..         MOV     R0,#?V0 + 4
   \   0001D2   79..         MOV     R1,#?V0 + 0
   \   0001D4   12....       LCALL   ?FLT_DIV
   \   0001D7   90....       MOV     DPTR,#__Constant_447a0000
   \   0001DA   02....       LJMP    ??SendData_MQ7_6 & 0xFFFF
   \                     ??SendData_MQ7_2:
   \   0001DD   85....       MOV     ?V0 + 0,?V0 + 8
   \   0001E0   85....       MOV     ?V0 + 1,?V0 + 9
   \   0001E3   85....       MOV     ?V0 + 2,?V0 + 10
   \   0001E6   85....       MOV     ?V0 + 3,?V0 + 11
   \   0001E9   90....       MOV     DPTR,#R0_MQ7
   \   0001EC   78..         MOV     R0,#?V0 + 12
   \   0001EE   12....       LCALL   ?L_MOV_X
   \   0001F1   78..         MOV     R0,#?V0 + 0
   \   0001F3   79..         MOV     R1,#?V0 + 12
   \   0001F5   12....       LCALL   ?FLT_DIV
   \   0001F8   90....       MOV     DPTR,#__Constant_3ec28f5d
   \   0001FB   78..         MOV     R0,#?V0 + 12
   \   0001FD   12....       LCALL   ?L_MOV_X
   \   000200   78..         MOV     R0,#?V0 + 0
   \   000202   79..         MOV     R1,#?V0 + 12
   \   000204   12....       LCALL   ?FLT_GE
   \   000207   4003         JC      $+5
   \   000209   02....       LJMP    ??SendData_MQ7_3 & 0xFFFF
   \   00020C   85....       MOV     ?V0 + 4,?V0 + 8
   \   00020F   85....       MOV     ?V0 + 5,?V0 + 9
   \   000212   85....       MOV     ?V0 + 6,?V0 + 10
   \   000215   85....       MOV     ?V0 + 7,?V0 + 11
   \   000218   90....       MOV     DPTR,#R0_MQ7
   \   00021B   78..         MOV     R0,#?V0 + 0
   \   00021D   12....       LCALL   ?L_MOV_X
   \   000220   78..         MOV     R0,#?V0 + 4
   \   000222   79..         MOV     R1,#?V0 + 0
   \   000224   12....       LCALL   ?FLT_DIV
   \   000227   90....       MOV     DPTR,#__Constant_43960000
   \   00022A   78..         MOV     R0,#?V0 + 0
   \   00022C   12....       LCALL   ?L_MOV_X
   \   00022F   78..         MOV     R0,#?V0 + 4
   \   000231   79..         MOV     R1,#?V0 + 0
   \   000233   12....       LCALL   ?FLT_MUL
   \   000236   90....       MOV     DPTR,#__Constant_bf1eb852
   \   000239   78..         MOV     R0,#?V0 + 0
   \   00023B   12....       LCALL   ?L_MOV_X
   \   00023E   78..         MOV     R0,#?V0 + 4
   \   000240   79..         MOV     R1,#?V0 + 0
   \   000242   12....       LCALL   ?FLT_DIV
   \   000245   90....       MOV     DPTR,#__Constant_43c80000
   \   000248   78..         MOV     R0,#?V0 + 0
   \   00024A   12....       LCALL   ?L_MOV_X
   \   00024D   78..         MOV     R0,#?V0 + 4
   \   00024F   79..         MOV     R1,#?V0 + 0
   \   000251   12....       LCALL   ?FLT_ADD
   \                     ??SendData_MQ7_4:
   \   000254   85....       MOV     ?V0 + 0,?V0 + 8
   \   000257   85....       MOV     ?V0 + 1,?V0 + 9
   \   00025A   85....       MOV     ?V0 + 2,?V0 + 10
   \   00025D   85....       MOV     ?V0 + 3,?V0 + 11
   \   000260   90....       MOV     DPTR,#R0_MQ7
   \   000263   78..         MOV     R0,#?V0 + 12
   \   000265   12....       LCALL   ?L_MOV_X
   \   000268   78..         MOV     R0,#?V0 + 0
   \   00026A   79..         MOV     R1,#?V0 + 12
   \   00026C   12....       LCALL   ?FLT_DIV
   \   00026F   90....       MOV     DPTR,#__Constant_3dc28f5d
   \   000272   78..         MOV     R0,#?V0 + 12
   \   000274   12....       LCALL   ?L_MOV_X
   \   000277   78..         MOV     R0,#?V0 + 0
   \   000279   79..         MOV     R1,#?V0 + 12
   \   00027B   12....       LCALL   ?FLT_GE
   \   00027E   5065         JNC     ??SendData_MQ7_5
   \   000280   85....       MOV     ?V0 + 0,?V0 + 8
   \   000283   85....       MOV     ?V0 + 1,?V0 + 9
   \   000286   85....       MOV     ?V0 + 2,?V0 + 10
   \   000289   85....       MOV     ?V0 + 3,?V0 + 11
   \   00028C   90....       MOV     DPTR,#R0_MQ7
   \   00028F   78..         MOV     R0,#?V0 + 12
   \   000291   12....       LCALL   ?L_MOV_X
   \   000294   78..         MOV     R0,#?V0 + 0
   \   000296   79..         MOV     R1,#?V0 + 12
   \   000298   12....       LCALL   ?FLT_DIV
   \   00029B   90....       MOV     DPTR,#__Constant_3e6147af
   \   00029E   78..         MOV     R0,#?V0 + 12
   \   0002A0   12....       LCALL   ?L_MOV_X
   \   0002A3   78..         MOV     R0,#?V0 + 0
   \   0002A5   79..         MOV     R1,#?V0 + 12
   \   0002A7   12....       LCALL   ?FLT_LT
   \   0002AA   5039         JNC     ??SendData_MQ7_5
   \   0002AC   85....       MOV     ?V0 + 4,?V0 + 8
   \   0002AF   85....       MOV     ?V0 + 5,?V0 + 9
   \   0002B2   85....       MOV     ?V0 + 6,?V0 + 10
   \   0002B5   85....       MOV     ?V0 + 7,?V0 + 11
   \   0002B8   90....       MOV     DPTR,#R0_MQ7
   \   0002BB   78..         MOV     R0,#?V0 + 0
   \   0002BD   12....       LCALL   ?L_MOV_X
   \   0002C0   78..         MOV     R0,#?V0 + 4
   \   0002C2   79..         MOV     R1,#?V0 + 0
   \   0002C4   12....       LCALL   ?FLT_DIV
   \   0002C7   90....       MOV     DPTR,#__Constant_c6bb8000
   \   0002CA   78..         MOV     R0,#?V0 + 0
   \   0002CC   12....       LCALL   ?L_MOV_X
   \   0002CF   78..         MOV     R0,#?V0 + 4
   \   0002D1   79..         MOV     R1,#?V0 + 0
   \   0002D3   12....       LCALL   ?FLT_MUL
   \   0002D6   90....       MOV     DPTR,#__Constant_457a0000
   \                     ??SendData_MQ7_6:
   \   0002D9   78..         MOV     R0,#?V0 + 0
   \   0002DB   12....       LCALL   ?L_MOV_X
   \   0002DE   78..         MOV     R0,#?V0 + 4
   \   0002E0   79..         MOV     R1,#?V0 + 0
   \   0002E2   12....       LCALL   ?FLT_ADD
   \                     ??SendData_MQ7_5:
   \   0002E5   78..         MOV     R0,#?V0 + 4
   \   0002E7   12....       LCALL   ?FLT_TO_L
   \   0002EA   AC..         MOV     R4,?V0 + 4
   \   0002EC   AD..         MOV     R5,?V0 + 5
   \   0002EE   EC           MOV     A,R4
   \   0002EF   F8           MOV     R0,A
   \   0002F0   ED           MOV     A,R5
   \   0002F1   F9           MOV     R1,A
   \   0002F2   7AE8         MOV     R2,#-0x18
   \   0002F4   7B03         MOV     R3,#0x3
   \   0002F6   12....       LCALL   ?S_DIV_MOD
   \   0002F9   12....       LCALL   ?Subroutine20 & 0xFFFF
   \                     ??CrossCallReturnLabel_74:
   \   0002FC   12....       LCALL   ?S_DIV_MOD
   \   0002FF   7A0A         MOV     R2,#0xa
   \   000301   7B00         MOV     R3,#0x0
   \   000303   12....       LCALL   ?S_DIV_MOD
   \   000306   12....       LCALL   ?Subroutine29 & 0xFFFF
   \                     ??CrossCallReturnLabel_56:
   \   000309   12....       LCALL   ?XSTACK_DISP0_8
   \   00030C   EE           MOV     A,R6
   \   00030D   12....       LCALL   ??Subroutine39_0 & 0xFFFF
   \                     ??CrossCallReturnLabel_77:
   \   000310   12....       LCALL   ?S_DIV_MOD
   \   000313   EA           MOV     A,R2
   \   000314   F8           MOV     R0,A
   \   000315   EB           MOV     A,R3
   \   000316   F9           MOV     R1,A
   \   000317   7A0A         MOV     R2,#0xa
   \   000319   7B00         MOV     R3,#0x0
   \   00031B   12....       LCALL   ?S_DIV_MOD
   \   00031E   E8           MOV     A,R0
   \   00031F   2430         ADD     A,#0x30
   \   000321   FF           MOV     R7,A
   \   000322   7402         MOV     A,#0x2
   \   000324   12....       LCALL   ?XSTACK_DISP0_8
   \   000327   EF           MOV     A,R7
   \   000328   12....       LCALL   ??Subroutine41_0 & 0xFFFF
   \                     ??CrossCallReturnLabel_86:
   \   00032B   12....       LCALL   ?S_DIV_MOD
   \   00032E   EA           MOV     A,R2
   \   00032F   2430         ADD     A,#0x30
   \   000331   F8           MOV     R0,A
   \   000332   7403         MOV     A,#0x3
   \   000334   12....       LCALL   ?XSTACK_DISP0_8
   \   000337   12....       LCALL   ?Subroutine21 & 0xFFFF
   \                     ??CrossCallReturnLabel_70:
   \   00033A   90....       MOV     DPTR,#SensorsData + 14
   \   00033D   12....       LCALL   ?Subroutine26 & 0xFFFF
   \                     ??CrossCallReturnLabel_43:
   \   000340   A3           INC     DPTR
   \   000341   F0           MOVX    @DPTR,A
   \   000342   7404         MOV     A,#0x4
   \   000344   02....       LJMP    ?Subroutine3 & 0xFFFF

   \                                 In  segment BANKED_CODE, align 1, keep-with-next
   \                     ?Subroutine11:
   \   000000   39           ADDC    A,R1
   \   000001   F583         MOV     DPH,A
   \   000003   E0           MOVX    A,@DPTR
   \   000004   25..         ADD     A,?V0 + 0
   \   000006   F5..         MOV     ?V0 + 0,A
   \   000008   A3           INC     DPTR
   \   000009   E0           MOVX    A,@DPTR
   \   00000A   35..         ADDC    A,?V0 + 1
   \   00000C   F5..         MOV     ?V0 + 1,A
   \   00000E   0A           INC     R2
   \   00000F   EA           MOV     A,R2
   \   000010   C3           CLR     C
   \   000011   940A         SUBB    A,#0xa
   \   000013   22           RET

   \                                 In  segment XDATA_Z, align 1, keep-with-next
   \   unsigned int Temp_PM25[10]
   \                     Temp_PM25:
   \   000000                DS 20
   \   000014                REQUIRE __INIT_XDATA_Z

   \                                 In  segment BANKED_CODE, align 1, keep-with-next
   \   __banked_func __xdata_reentrant void Init_PM25(void)
   \                     Init_PM25:
   \   000000                ; Saved register size: 0
   \   000000                ; Auto size: 0
   \   000000   53FDDF       ANL     0xfd,#0xdf
   \   000003   43FE02       ORL     0xfe,#0x2
   \   000006   43F220       ORL     0xf2,#0x20
   \   000009   02....       LJMP    ?BRET
   \   00000C                REQUIRE P0DIR
   \   00000C                REQUIRE P1DIR
   \   00000C                REQUIRE ADCCFG

   \                                 In  segment BANKED_CODE, align 1, keep-with-next
   \   __banked_func __xdata_reentrant void background_PM25_ADC(void)
   \                     background_PM25_ADC:
   \   000000   74F6         MOV     A,#-0xa
   \   000002   12....       LCALL   ?BANKED_ENTER_XDATA
   \   000005                ; Saved register size: 10
   \   000005                ; Auto size: 0
   \   000005   75B430       MOV     0xb4,#0x30
   \   000008   75B6B5       MOV     0xb6,#-0x4b
   \   00000B   43B440       ORL     0xb4,#0x40
   \                     ??background_PM25_ADC_0:
   \   00000E   E5B4         MOV     A,0xb4
   \   000010   A2E7         MOV     C,0xE0 /* A   */.7
   \   000012   50FA         JNC     ??background_PM25_ADC_0
   \   000014   12....       LCALL   ?Subroutine27 & 0xFFFF
   \                     ??CrossCallReturnLabel_47:
   \   000017   12....       LCALL   ?S_SHL
   \   00001A   12....       LCALL   ?Subroutine28 & 0xFFFF
   \                     ??CrossCallReturnLabel_52:
   \   00001D   90....       MOV     DPTR,#??i_1
   \   000020   12....       LCALL   ?Subroutine9 & 0xFFFF
   \                     ??CrossCallReturnLabel_9:
   \   000023   74..         MOV     A,#Temp_PM25 & 0xff
   \   000025   28           ADD     A,R0
   \   000026   F582         MOV     DPL,A
   \   000028   74..         MOV     A,#(Temp_PM25 >> 8) & 0xff
   \   00002A   12....       LCALL   ?Subroutine31 & 0xFFFF
   \                     ??CrossCallReturnLabel_62:
   \   00002D   90....       MOV     DPTR,#??i_1
   \   000030   12....       LCALL   ?Subroutine14 & 0xFFFF
   \                     ??CrossCallReturnLabel_24:
   \   000033   90....       MOV     DPTR,#??i_1
   \   000036   E0           MOVX    A,@DPTR
   \   000037   640A         XRL     A,#0xa
   \   000039   7002         JNZ     ??background_PM25_ADC_1
   \   00003B   A3           INC     DPTR
   \   00003C   E0           MOVX    A,@DPTR
   \                     ??background_PM25_ADC_1:
   \   00003D   7007         JNZ     ??background_PM25_ADC_2
   \   00003F   90....       MOV     DPTR,#??i_1
   \   000042   E4           CLR     A
   \   000043   F0           MOVX    @DPTR,A
   \   000044   A3           INC     DPTR
   \   000045   F0           MOVX    @DPTR,A
   \                     ??background_PM25_ADC_2:
   \   000046   02....       LJMP    ?Subroutine2 & 0xFFFF
   \   000049                REQUIRE ADCCON1
   \   000049                REQUIRE ADCCON3
   \   000049                REQUIRE ADCL
   \   000049                REQUIRE ADCH

   \                                 In  segment XDATA_Z, align 1, keep-with-next
   \   int background_PM25_ADC::i
   \                     ??i_1:
   \   000000                DS 2
   \   000002                REQUIRE __INIT_XDATA_Z

   \                                 In  segment BANKED_CODE, align 1, keep-with-next
   \   __banked_func __xdata_reentrant void background_PM25(void)
   \                     background_PM25:
   \   000000   74F7         MOV     A,#-0x9
   \   000002   12....       LCALL   ?BANKED_ENTER_XDATA
   \   000005                ; Saved register size: 9
   \   000005                ; Auto size: 0
   \   000005   7E00         MOV     R6,#0x0
   \   000007   D291         SETB    0x90.1
   \   000009   8003         SJMP    ??background_PM25_0
   \                     ??background_PM25_1:
   \   00000B                ; Setup parameters for call to function delay_25us
   \   00000B   12....       LCALL   ??delay_25us?relay
   \                     ??background_PM25_0:
   \   00000E   EE           MOV     A,R6
   \   00000F   0E           INC     R6
   \   000010   C3           CLR     C
   \   000011   940E         SUBB    A,#0xe
   \   000013   40F6         JC      ??background_PM25_1
   \   000015                ; Setup parameters for call to function background_PM25_ADC
   \   000015   12....       LCALL   ??background_PM25_ADC?relay
   \   000018   C291         CLR     0x90.1
   \   00001A   02....       LJMP    ?Subroutine1 & 0xFFFF
   \   00001D                REQUIRE _A_P1

   \                                 In  segment BANKED_CODE, align 1, keep-with-next
   \   __banked_func __xdata_reentrant void SendData_PM25(void)
   \                     SendData_PM25:
   \   000000   74F0         MOV     A,#-0x10
   \   000002   12....       LCALL   ?BANKED_ENTER_XDATA
   \   000005                ; Saved register size: 16
   \   000005                ; Auto size: 3
   \   000005   74FD         MOV     A,#-0x3
   \   000007   12....       LCALL   ?ALLOC_XSTACK8
   \   00000A   85..82       MOV     DPL,?XSP + 0
   \   00000D   85..83       MOV     DPH,?XSP + 1
   \   000010   AC82         MOV     R4,DPL
   \   000012   AD83         MOV     R5,DPH
   \   000014   7583..       MOV     DPH,#(`?<Constant {0}>_3` >> 8) & 0xff
   \   000017   7582..       MOV     DPL,#`?<Constant {0}>_3` & 0xff
   \   00001A   7403         MOV     A,#0x3
   \   00001C   12....       LCALL   ?MOVE_LONG8_XDATA_XDATA
   \   00001F   F8           MOV     R0,A
   \   000020   F9           MOV     R1,A
   \   000021   FC           MOV     R4,A
   \                     ??SendData_PM25_0:
   \   000022   EC           MOV     A,R4
   \   000023   C3           CLR     C
   \   000024   33           RLC     A
   \   000025   FA           MOV     R2,A
   \   000026   E4           CLR     A
   \   000027   33           RLC     A
   \   000028   FB           MOV     R3,A
   \   000029   74..         MOV     A,#Temp_PM25 & 0xff
   \   00002B   2A           ADD     A,R2
   \   00002C   F582         MOV     DPL,A
   \   00002E   74..         MOV     A,#(Temp_PM25 >> 8) & 0xff
   \   000030   12....       LCALL   ?Subroutine6 & 0xFFFF
   \                     ??CrossCallReturnLabel_3:
   \   000033   0C           INC     R4
   \   000034   EC           MOV     A,R4
   \   000035   C3           CLR     C
   \   000036   940A         SUBB    A,#0xa
   \   000038   40E8         JC      ??SendData_PM25_0
   \   00003A   7A0A         MOV     R2,#0xa
   \   00003C   7B00         MOV     R3,#0x0
   \   00003E   12....       LCALL   ?US_DIV_MOD
   \   000041   E8           MOV     A,R0
   \   000042   94B3         SUBB    A,#-0x4d
   \   000044   E9           MOV     A,R1
   \   000045   9401         SUBB    A,#0x1
   \   000047   500B         JNC     ??SendData_PM25_1
   \   000049   90....       MOV     DPTR,#SensorsData + 7
   \   00004C   7430         MOV     A,#0x30
   \   00004E   F0           MOVX    @DPTR,A
   \   00004F   A3           INC     DPTR
   \   000050   F0           MOVX    @DPTR,A
   \   000051   02....       LJMP    ??SendData_PM25_2 & 0xFFFF
   \                     ??SendData_PM25_1:
   \   000054   88..         MOV     ?V0 + 0,R0
   \   000056   89..         MOV     ?V0 + 1,R1
   \   000058   E4           CLR     A
   \   000059   F5..         MOV     ?V0 + 2,A
   \   00005B   F5..         MOV     ?V0 + 3,A
   \   00005D   78..         MOV     R0,#?V0 + 0
   \   00005F   12....       LCALL   ?UL_TO_FLT
   \   000062   90....       MOV     DPTR,#__Constant_42040000
   \   000065   78..         MOV     R0,#?V0 + 4
   \   000067   12....       LCALL   ?L_MOV_X
   \   00006A   78..         MOV     R0,#?V0 + 0
   \   00006C   79..         MOV     R1,#?V0 + 4
   \   00006E   12....       LCALL   ?FLT_MUL
   \   000071   90....       MOV     DPTR,#__Constant_3a000000
   \   000074   78..         MOV     R0,#?V0 + 4
   \   000076   12....       LCALL   ?L_MOV_X
   \   000079   78..         MOV     R0,#?V0 + 0
   \   00007B   79..         MOV     R1,#?V0 + 4
   \   00007D   12....       LCALL   ?FLT_MUL
   \   000080   90....       MOV     DPTR,#__Constant_c0e00000
   \   000083   78..         MOV     R0,#?V0 + 4
   \   000085   12....       LCALL   ?L_MOV_X
   \   000088   78..         MOV     R0,#?V0 + 0
   \   00008A   79..         MOV     R1,#?V0 + 4
   \   00008C   12....       LCALL   ?FLT_ADD
   \   00008F   90....       MOV     DPTR,#__Constant_42600000
   \   000092   78..         MOV     R0,#?V0 + 4
   \   000094   12....       LCALL   ?L_MOV_X
   \   000097   78..         MOV     R0,#?V0 + 0
   \   000099   79..         MOV     R1,#?V0 + 4
   \   00009B   12....       LCALL   ?FLT_DIV
   \   00009E   90....       MOV     DPTR,#__Constant_447a0000
   \   0000A1   78..         MOV     R0,#?V0 + 4
   \   0000A3   12....       LCALL   ?L_MOV_X
   \   0000A6   78..         MOV     R0,#?V0 + 0
   \   0000A8   79..         MOV     R1,#?V0 + 4
   \   0000AA   12....       LCALL   ?FLT_MUL
   \   0000AD   78..         MOV     R0,#?V0 + 0
   \   0000AF   12....       LCALL   ?FLT_TO_L
   \   0000B2   AC..         MOV     R4,?V0 + 0
   \   0000B4   AD..         MOV     R5,?V0 + 1
   \   0000B6   EC           MOV     A,R4
   \   0000B7   F8           MOV     R0,A
   \   0000B8   ED           MOV     A,R5
   \   0000B9   F9           MOV     R1,A
   \   0000BA   7A64         MOV     R2,#0x64
   \   0000BC   7B00         MOV     R3,#0x0
   \   0000BE   12....       LCALL   ?S_DIV_MOD
   \   0000C1   12....       LCALL   ?Subroutine19 & 0xFFFF
   \                     ??CrossCallReturnLabel_83:
   \   0000C4   12....       LCALL   ?S_DIV_MOD
   \   0000C7   7A0A         MOV     R2,#0xa
   \   0000C9   7B00         MOV     R3,#0x0
   \   0000CB   12....       LCALL   ?S_DIV_MOD
   \   0000CE   12....       LCALL   ?Subroutine29 & 0xFFFF
   \                     ??CrossCallReturnLabel_57:
   \   0000D1   12....       LCALL   ?XSTACK_DISP0_8
   \   0000D4   EE           MOV     A,R6
   \   0000D5   12....       LCALL   ??Subroutine41_0 & 0xFFFF
   \                     ??CrossCallReturnLabel_87:
   \   0000D8   12....       LCALL   ?S_DIV_MOD
   \   0000DB   EA           MOV     A,R2
   \   0000DC   2430         ADD     A,#0x30
   \   0000DE   F8           MOV     R0,A
   \   0000DF   7402         MOV     A,#0x2
   \   0000E1   12....       LCALL   ?XSTACK_DISP0_8
   \   0000E4   12....       LCALL   ?Subroutine21 & 0xFFFF
   \                     ??CrossCallReturnLabel_71:
   \   0000E7   90....       MOV     DPTR,#SensorsData + 7
   \   0000EA   F0           MOVX    @DPTR,A
   \   0000EB   EE           MOV     A,R6
   \   0000EC   A3           INC     DPTR
   \   0000ED   F0           MOVX    @DPTR,A
   \   0000EE   E8           MOV     A,R0
   \                     ??SendData_PM25_2:
   \   0000EF   A3           INC     DPTR
   \   0000F0   F0           MOVX    @DPTR,A
   \   0000F1   7403         MOV     A,#0x3
   \   0000F3   12....       LCALL   ?DEALLOC_XSTACK8
   \   0000F6   7F08         MOV     R7,#0x8
   \   0000F8   02....       LJMP    ?BANKED_LEAVE_XDATA

   \                                 In  segment XDATA_I, align 1, keep-with-next
   \   float R0_TGS813
   \                     R0_TGS813:
   \   000000                DS 4
   \   000004                REQUIRE `?<Initializer for R0_TGS813>`
   \   000004                REQUIRE __INIT_XDATA_I

   \                                 In  segment XDATA_Z, align 1, keep-with-next
   \   unsigned int Temp_TGS813[10]
   \                     Temp_TGS813:
   \   000000                DS 20
   \   000014                REQUIRE __INIT_XDATA_Z

   \                                 In  segment BANKED_CODE, align 1, keep-with-next
   \   __banked_func __xdata_reentrant void Init_TGS813(void)
   \                     Init_TGS813:
   \   000000                ; Saved register size: 0
   \   000000                ; Auto size: 0
   \   000000   53FDFB       ANL     0xfd,#0xfb
   \   000003   43F204       ORL     0xf2,#0x4
   \   000006   02....       LJMP    ?BRET
   \   000009                REQUIRE P0DIR
   \   000009                REQUIRE ADCCFG

   \                                 In  segment BANKED_CODE, align 1, keep-with-next
   \   __banked_func __xdata_reentrant void background_TGS813(void)
   \                     background_TGS813:
   \   000000   74F6         MOV     A,#-0xa
   \   000002   12....       LCALL   ?BANKED_ENTER_XDATA
   \   000005                ; Saved register size: 10
   \   000005                ; Auto size: 0
   \   000005   75B430       MOV     0xb4,#0x30
   \   000008   75B6B3       MOV     0xb6,#-0x4d
   \   00000B   43B440       ORL     0xb4,#0x40
   \                     ??background_TGS813_0:
   \   00000E   E5B4         MOV     A,0xb4
   \   000010   A2E7         MOV     C,0xE0 /* A   */.7
   \   000012   50FA         JNC     ??background_TGS813_0
   \   000014   12....       LCALL   ?Subroutine27 & 0xFFFF
   \                     ??CrossCallReturnLabel_48:
   \   000017   12....       LCALL   ?S_SHL
   \   00001A   12....       LCALL   ?Subroutine28 & 0xFFFF
   \                     ??CrossCallReturnLabel_53:
   \   00001D   90....       MOV     DPTR,#??i_TGS813
   \   000020   12....       LCALL   ?Subroutine9 & 0xFFFF
   \                     ??CrossCallReturnLabel_10:
   \   000023   74..         MOV     A,#Temp_TGS813 & 0xff
   \   000025   28           ADD     A,R0
   \   000026   F582         MOV     DPL,A
   \   000028   74..         MOV     A,#(Temp_TGS813 >> 8) & 0xff
   \   00002A   12....       LCALL   ?Subroutine31 & 0xFFFF
   \                     ??CrossCallReturnLabel_63:
   \   00002D   90....       MOV     DPTR,#??i_TGS813
   \   000030   12....       LCALL   ?Subroutine14 & 0xFFFF
   \                     ??CrossCallReturnLabel_25:
   \   000033   90....       MOV     DPTR,#??i_TGS813
   \   000036   E0           MOVX    A,@DPTR
   \   000037   640A         XRL     A,#0xa
   \   000039   7002         JNZ     ??background_TGS813_1
   \   00003B   A3           INC     DPTR
   \   00003C   E0           MOVX    A,@DPTR
   \                     ??background_TGS813_1:
   \   00003D   7007         JNZ     ??background_TGS813_2
   \   00003F   90....       MOV     DPTR,#??i_TGS813
   \   000042   E4           CLR     A
   \   000043   F0           MOVX    @DPTR,A
   \   000044   A3           INC     DPTR
   \   000045   F0           MOVX    @DPTR,A
   \                     ??background_TGS813_2:
   \   000046                REQUIRE ?Subroutine2
   \   000046                REQUIRE ADCCON1
   \   000046                REQUIRE ADCCON3
   \   000046                REQUIRE ADCL
   \   000046                REQUIRE ADCH
   \   000046                ; // Fall through to label ?Subroutine2

   \                                 In  segment XDATA_Z, align 1, keep-with-next
   \   int background_TGS813::i_TGS813
   \                     ??i_TGS813:
   \   000000                DS 2
   \   000002                REQUIRE __INIT_XDATA_Z

   \                                 In  segment BANKED_CODE, align 1, keep-with-next
   \   __banked_func __xdata_reentrant void SendData_TGS813(void)
   \                     SendData_TGS813:
   \   000000   74EC         MOV     A,#-0x14
   \   000002   12....       LCALL   ?BANKED_ENTER_XDATA
   \   000005                ; Saved register size: 20
   \   000005                ; Auto size: 4
   \   000005   74FC         MOV     A,#-0x4
   \   000007   12....       LCALL   ?ALLOC_XSTACK8
   \   00000A   85..82       MOV     DPL,?XSP + 0
   \   00000D   85..83       MOV     DPH,?XSP + 1
   \   000010   AC82         MOV     R4,DPL
   \   000012   AD83         MOV     R5,DPH
   \   000014   7583..       MOV     DPH,#(`?<Constant {0}>_4` >> 8) & 0xff
   \   000017   7582..       MOV     DPL,#`?<Constant {0}>_4` & 0xff
   \   00001A   7404         MOV     A,#0x4
   \   00001C   12....       LCALL   ?MOVE_LONG8_XDATA_XDATA
   \   00001F   F5..         MOV     ?V0 + 0,A
   \   000021   F5..         MOV     ?V0 + 1,A
   \   000023   FA           MOV     R2,A
   \                     ??SendData_TGS813_0:
   \   000024   EA           MOV     A,R2
   \   000025   C3           CLR     C
   \   000026   33           RLC     A
   \   000027   F8           MOV     R0,A
   \   000028   E4           CLR     A
   \   000029   33           RLC     A
   \   00002A   F9           MOV     R1,A
   \   00002B   74..         MOV     A,#Temp_TGS813 & 0xff
   \   00002D   28           ADD     A,R0
   \   00002E   F582         MOV     DPL,A
   \   000030   74..         MOV     A,#(Temp_TGS813 >> 8) & 0xff
   \   000032   12....       LCALL   ?Subroutine11 & 0xFFFF
   \                     ??CrossCallReturnLabel_14:
   \   000035   40ED         JC      ??SendData_TGS813_0
   \   000037   75..00       MOV     ?V0 + 4,#0x0
   \   00003A   75..50       MOV     ?V0 + 5,#0x50
   \   00003D   75..43       MOV     ?V0 + 6,#0x43
   \   000040   75..47       MOV     ?V0 + 7,#0x47
   \   000043   E4           CLR     A
   \   000044   F5..         MOV     ?V0 + 2,A
   \   000046   F5..         MOV     ?V0 + 3,A
   \   000048   78..         MOV     R0,#?V0 + 0
   \   00004A   12....       LCALL   ?UL_TO_FLT
   \   00004D   90....       MOV     DPTR,#__Constant_41200000
   \   000050   78..         MOV     R0,#?V0 + 8
   \   000052   12....       LCALL   ?L_MOV_X
   \   000055   78..         MOV     R0,#?V0 + 0
   \   000057   79..         MOV     R1,#?V0 + 8
   \   000059   12....       LCALL   ?FLT_DIV
   \   00005C   90....       MOV     DPTR,#__Constant_40533333
   \   00005F   78..         MOV     R0,#?V0 + 8
   \   000061   12....       LCALL   ?L_MOV_X
   \   000064   78..         MOV     R0,#?V0 + 0
   \   000066   79..         MOV     R1,#?V0 + 8
   \   000068   12....       LCALL   ?FLT_MUL
   \   00006B   90....       MOV     DPTR,#__Constant_3a000000
   \   00006E   78..         MOV     R0,#?V0 + 8
   \   000070   12....       LCALL   ?L_MOV_X
   \   000073   78..         MOV     R0,#?V0 + 0
   \   000075   79..         MOV     R1,#?V0 + 8
   \   000077   12....       LCALL   ?FLT_MUL
   \   00007A   78..         MOV     R0,#?V0 + 4
   \   00007C   79..         MOV     R1,#?V0 + 0
   \   00007E   12....       LCALL   ?FLT_DIV
   \   000081   90....       MOV     DPTR,#__Constant_bf800000
   \   000084   78..         MOV     R0,#?V0 + 0
   \   000086   12....       LCALL   ?L_MOV_X
   \   000089   78..         MOV     R0,#?V0 + 4
   \   00008B   79..         MOV     R1,#?V0 + 0
   \   00008D   12....       LCALL   ?FLT_ADD
   \   000090   90....       MOV     DPTR,#__Constant_461c4000
   \   000093   78..         MOV     R0,#?V0 + 0
   \   000095   12....       LCALL   ?L_MOV_X
   \   000098   78..         MOV     R0,#?V0 + 4
   \   00009A   79..         MOV     R1,#?V0 + 0
   \   00009C   12....       LCALL   ?FLT_MUL
   \   00009F   85....       MOV     ?V0 + 0,?V0 + 4
   \   0000A2   85....       MOV     ?V0 + 1,?V0 + 5
   \   0000A5   85....       MOV     ?V0 + 2,?V0 + 6
   \   0000A8   85....       MOV     ?V0 + 3,?V0 + 7
   \   0000AB   90....       MOV     DPTR,#R0_TGS813
   \   0000AE   78..         MOV     R0,#?V0 + 8
   \   0000B0   12....       LCALL   ?L_MOV_X
   \   0000B3   78..         MOV     R0,#?V0 + 0
   \   0000B5   79..         MOV     R1,#?V0 + 8
   \   0000B7   12....       LCALL   ?FLT_DIV
   \   0000BA   90....       MOV     DPTR,#__Constant_3fe66667
   \   0000BD   78..         MOV     R0,#?V0 + 8
   \   0000BF   12....       LCALL   ?L_MOV_X
   \   0000C2   78..         MOV     R0,#?V0 + 0
   \   0000C4   79..         MOV     R1,#?V0 + 8
   \   0000C6   12....       LCALL   ?FLT_GE
   \   0000C9   5021         JNC     ??SendData_TGS813_1
   \   0000CB   85..82       MOV     DPL,?XSP + 0
   \   0000CE   85..83       MOV     DPH,?XSP + 1
   \   0000D1   7430         MOV     A,#0x30
   \   0000D3   F0           MOVX    @DPTR,A
   \   0000D4   7401         MOV     A,#0x1
   \   0000D6   12....       LCALL   ?XSTACK_DISP0_8
   \   0000D9   7430         MOV     A,#0x30
   \   0000DB   F0           MOVX    @DPTR,A
   \   0000DC   7402         MOV     A,#0x2
   \   0000DE   12....       LCALL   ?XSTACK_DISP0_8
   \   0000E1   7430         MOV     A,#0x30
   \   0000E3   F0           MOVX    @DPTR,A
   \   0000E4   7403         MOV     A,#0x3
   \   0000E6   12....       LCALL   ?XSTACK_DISP0_8
   \   0000E9   7430         MOV     A,#0x30
   \   0000EB   F0           MOVX    @DPTR,A
   \                     ??SendData_TGS813_1:
   \   0000EC   85....       MOV     ?V0 + 0,?V0 + 4
   \   0000EF   85....       MOV     ?V0 + 1,?V0 + 5
   \   0000F2   85....       MOV     ?V0 + 2,?V0 + 6
   \   0000F5   85....       MOV     ?V0 + 3,?V0 + 7
   \   0000F8   90....       MOV     DPTR,#R0_TGS813
   \   0000FB   78..         MOV     R0,#?V0 + 8
   \   0000FD   12....       LCALL   ?L_MOV_X
   \   000100   78..         MOV     R0,#?V0 + 0
   \   000102   79..         MOV     R1,#?V0 + 8
   \   000104   12....       LCALL   ?FLT_DIV
   \   000107   90....       MOV     DPTR,#__Constant_3f570a3d
   \   00010A   78..         MOV     R0,#?V0 + 8
   \   00010C   12....       LCALL   ?L_MOV_X
   \   00010F   78..         MOV     R0,#?V0 + 0
   \   000111   79..         MOV     R1,#?V0 + 8
   \   000113   12....       LCALL   ?FLT_GE
   \   000116   85....       MOV     ?V0 + 0,?V0 + 4
   \   000119   85....       MOV     ?V0 + 1,?V0 + 5
   \   00011C   85....       MOV     ?V0 + 2,?V0 + 6
   \   00011F   85....       MOV     ?V0 + 3,?V0 + 7
   \   000122   90....       MOV     DPTR,#R0_TGS813
   \   000125   78..         MOV     R0,#?V0 + 8
   \   000127   12....       LCALL   ?L_MOV_X
   \   00012A   78..         MOV     R0,#?V0 + 0
   \   00012C   79..         MOV     R1,#?V0 + 8
   \   00012E   504D         JNC     ??SendData_TGS813_2
   \   000130   12....       LCALL   ?FLT_DIV
   \   000133   90....       MOV     DPTR,#__Constant_3fe66666
   \   000136   78..         MOV     R0,#?V0 + 8
   \   000138   12....       LCALL   ?L_MOV_X
   \   00013B   78..         MOV     R0,#?V0 + 0
   \   00013D   79..         MOV     R1,#?V0 + 8
   \   00013F   12....       LCALL   ?FLT_LT
   \   000142   4003         JC      $+5
   \   000144   02....       LJMP    ??SendData_TGS813_3 & 0xFFFF
   \   000147   75..F4       MOV     ?V0 + 0,#-0xc
   \   00014A   75..FD       MOV     ?V0 + 1,#-0x3
   \   00014D   75..3C       MOV     ?V0 + 2,#0x3c
   \   000150   75..40       MOV     ?V0 + 3,#0x40
   \   000153   90....       MOV     DPTR,#R0_TGS813
   \   000156   78..         MOV     R0,#?V0 + 8
   \   000158   12....       LCALL   ?L_MOV_X
   \   00015B   78..         MOV     R0,#?V0 + 4
   \   00015D   79..         MOV     R1,#?V0 + 8
   \   00015F   12....       LCALL   ?FLT_DIV
   \   000162   78..         MOV     R0,#?V0 + 0
   \   000164   79..         MOV     R1,#?V0 + 4
   \   000166   12....       LCALL   ?FLT_SUB
   \   000169   90....       MOV     DPTR,#__Constant_447a0000
   \   00016C   78..         MOV     R0,#?V0 + 4
   \   00016E   12....       LCALL   ?L_MOV_X
   \   000171   78..         MOV     R0,#?V0 + 0
   \   000173   79..         MOV     R1,#?V0 + 4
   \   000175   12....       LCALL   ?FLT_MUL
   \   000178   90....       MOV     DPTR,#__Constant_3ff5c28f
   \   00017B   804B         SJMP    ??SendData_TGS813_4
   \                     ??SendData_TGS813_2:
   \   00017D   12....       LCALL   ?FLT_DIV
   \   000180   90....       MOV     DPTR,#__Constant_3e947ae1
   \   000183   78..         MOV     R0,#?V0 + 8
   \   000185   12....       LCALL   ?L_MOV_X
   \   000188   78..         MOV     R0,#?V0 + 0
   \   00018A   79..         MOV     R1,#?V0 + 8
   \   00018C   12....       LCALL   ?FLT_GE
   \   00018F   4003         JC      $+5
   \   000191   02....       LJMP    ??SendData_TGS813_3 & 0xFFFF
   \   000194   75..7E       MOV     ?V0 + 0,#0x7e
   \   000197   75..8C       MOV     ?V0 + 1,#-0x74
   \   00019A   75..C1       MOV     ?V0 + 2,#-0x3f
   \   00019D   75..3F       MOV     ?V0 + 3,#0x3f
   \   0001A0   90....       MOV     DPTR,#R0_TGS813
   \   0001A3   78..         MOV     R0,#?V0 + 8
   \   0001A5   12....       LCALL   ?L_MOV_X
   \   0001A8   78..         MOV     R0,#?V0 + 4
   \   0001AA   79..         MOV     R1,#?V0 + 8
   \   0001AC   12....       LCALL   ?FLT_DIV
   \   0001AF   78..         MOV     R0,#?V0 + 0
   \   0001B1   79..         MOV     R1,#?V0 + 4
   \   0001B3   12....       LCALL   ?FLT_SUB
   \   0001B6   90....       MOV     DPTR,#__Constant_461c4000
   \   0001B9   78..         MOV     R0,#?V0 + 4
   \   0001BB   12....       LCALL   ?L_MOV_X
   \   0001BE   78..         MOV     R0,#?V0 + 0
   \   0001C0   79..         MOV     R1,#?V0 + 4
   \   0001C2   12....       LCALL   ?FLT_MUL
   \   0001C5   90....       MOV     DPTR,#__Constant_40c3851f
   \                     ??SendData_TGS813_4:
   \   0001C8   78..         MOV     R0,#?V0 + 4
   \   0001CA   12....       LCALL   ?L_MOV_X
   \   0001CD   78..         MOV     R0,#?V0 + 0
   \   0001CF   79..         MOV     R1,#?V0 + 4
   \   0001D1   12....       LCALL   ?FLT_DIV
   \   0001D4   78..         MOV     R0,#?V0 + 0
   \   0001D6   12....       LCALL   ?FLT_TO_L
   \   0001D9   AC..         MOV     R4,?V0 + 0
   \   0001DB   AD..         MOV     R5,?V0 + 1
   \   0001DD   EC           MOV     A,R4
   \   0001DE   F8           MOV     R0,A
   \   0001DF   ED           MOV     A,R5
   \   0001E0   F9           MOV     R1,A
   \   0001E1   7AE8         MOV     R2,#-0x18
   \   0001E3   7B03         MOV     R3,#0x3
   \   0001E5   12....       LCALL   ?S_DIV_MOD
   \   0001E8   12....       LCALL   ?Subroutine20 & 0xFFFF
   \                     ??CrossCallReturnLabel_75:
   \   0001EB   12....       LCALL   ?S_DIV_MOD
   \   0001EE   7A0A         MOV     R2,#0xa
   \   0001F0   7B00         MOV     R3,#0x0
   \   0001F2   12....       LCALL   ?S_DIV_MOD
   \   0001F5   EA           MOV     A,R2
   \   0001F6   2430         ADD     A,#0x30
   \   0001F8   C0E0         PUSH    A
   \   0001FA   7401         MOV     A,#0x1
   \   0001FC   12....       LCALL   ?XSTACK_DISP0_8
   \   0001FF   D0E0         POP     A
   \   000201   12....       LCALL   ??Subroutine39_0 & 0xFFFF
   \                     ??CrossCallReturnLabel_78:
   \   000204   12....       LCALL   ?S_DIV_MOD
   \   000207   EA           MOV     A,R2
   \   000208   F8           MOV     R0,A
   \   000209   EB           MOV     A,R3
   \   00020A   F9           MOV     R1,A
   \   00020B   7A0A         MOV     R2,#0xa
   \   00020D   7B00         MOV     R3,#0x0
   \   00020F   12....       LCALL   ?S_DIV_MOD
   \   000212   E8           MOV     A,R0
   \   000213   2430         ADD     A,#0x30
   \   000215   C0E0         PUSH    A
   \   000217   7402         MOV     A,#0x2
   \   000219   12....       LCALL   ?XSTACK_DISP0_8
   \   00021C   D0E0         POP     A
   \   00021E   12....       LCALL   ??Subroutine41_0 & 0xFFFF
   \                     ??CrossCallReturnLabel_88:
   \   000221   12....       LCALL   ?S_DIV_MOD
   \   000224   EA           MOV     A,R2
   \   000225   2430         ADD     A,#0x30
   \   000227   C0E0         PUSH    A
   \   000229   7403         MOV     A,#0x3
   \   00022B   12....       LCALL   ?XSTACK_DISP0_8
   \   00022E   D0E0         POP     A
   \   000230   F0           MOVX    @DPTR,A
   \                     ??SendData_TGS813_3:
   \   000231   85..82       MOV     DPL,?XSP + 0
   \   000234   85..83       MOV     DPH,?XSP + 1
   \   000237   E0           MOVX    A,@DPTR
   \   000238   90....       MOV     DPTR,#SensorsData + 20
   \   00023B   F0           MOVX    @DPTR,A
   \   00023C   7401         MOV     A,#0x1
   \   00023E   12....       LCALL   ?XSTACK_DISP0_8
   \   000241   E0           MOVX    A,@DPTR
   \   000242   90....       MOV     DPTR,#SensorsData + 21
   \   000245   F0           MOVX    @DPTR,A
   \   000246   7402         MOV     A,#0x2
   \   000248   12....       LCALL   ?XSTACK_DISP0_8
   \   00024B   E0           MOVX    A,@DPTR
   \   00024C   90....       MOV     DPTR,#SensorsData + 22
   \   00024F   F0           MOVX    @DPTR,A
   \   000250   7403         MOV     A,#0x3
   \   000252   12....       LCALL   ?XSTACK_DISP0_8
   \   000255   E0           MOVX    A,@DPTR
   \   000256   90....       MOV     DPTR,#SensorsData + 23
   \   000259   F0           MOVX    @DPTR,A
   \   00025A   7404         MOV     A,#0x4
   \   00025C   12....       LCALL   ?DEALLOC_XSTACK8
   \   00025F   7F0C         MOV     R7,#0xc
   \   000261   02....       LJMP    ?BANKED_LEAVE_XDATA

   \                                 In  segment BANKED_CODE, align 1, keep-with-next
   \   __banked_func __xdata_reentrant void Init_Sensor(void)
   \                     Init_Sensor:
   \   000000   C082         PUSH    DPL
   \   000002   C083         PUSH    DPH
   \   000004                ; Saved register size: 2
   \   000004                ; Auto size: 0
   \   000004                ; Setup parameters for call to function Init_TGS4161
   \   000004   12....       LCALL   ??Init_TGS4161?relay
   \   000007                ; Setup parameters for call to function Init_TGS813
   \   000007   12....       LCALL   ??Init_TGS813?relay
   \   00000A                ; Setup parameters for call to function Init_MQ7
   \   00000A   12....       LCALL   ??Init_MQ7?relay
   \   00000D                ; Setup parameters for call to function Init_PM25
   \   00000D   12....       LCALL   ??Init_PM25?relay
   \   000010                ; Setup parameters for call to function Init_MS1100
   \   000010   12....       LCALL   ??Init_MS1100?relay
   \   000013   02....       LJMP    ??Subroutine37_0 & 0xFFFF

   \                                 In  segment BANKED_CODE, align 1, keep-with-next
   \   __banked_func __xdata_reentrant void SensorFunction(void)
   \                     SensorFunction:
   \   000000   C082         PUSH    DPL
   \   000002   C083         PUSH    DPH
   \   000004                ; Saved register size: 2
   \   000004                ; Auto size: 0
   \   000004                ; Setup parameters for call to function DHT22
   \   000004   12....       LCALL   ??DHT22?relay
   \   000007                ; Setup parameters for call to function SendData_DHT22
   \   000007   12....       LCALL   ??SendData_DHT22?relay
   \   00000A                ; Setup parameters for call to function background_TGS4161
   \   00000A   12....       LCALL   ??background_TGS4161?relay
   \   00000D                ; Setup parameters for call to function SendData_TGS4161
   \   00000D   12....       LCALL   ??SendData_TGS4161?relay
   \   000010                ; Setup parameters for call to function background_TGS813
   \   000010   12....       LCALL   ??background_TGS813?relay
   \   000013                ; Setup parameters for call to function SendData_TGS813
   \   000013   12....       LCALL   ??SendData_TGS813?relay
   \   000016                ; Setup parameters for call to function background_PM25
   \   000016   12....       LCALL   ??background_PM25?relay
   \   000019                ; Setup parameters for call to function SendData_PM25
   \   000019   12....       LCALL   ??SendData_PM25?relay
   \   00001C                ; Setup parameters for call to function background_MQ7
   \   00001C   12....       LCALL   ??background_MQ7?relay
   \   00001F                ; Setup parameters for call to function SendData_MQ7
   \   00001F   12....       LCALL   ??SendData_MQ7?relay
   \   000022                ; Setup parameters for call to function background_MS1100
   \   000022   12....       LCALL   ??background_MS1100?relay
   \   000025                ; Setup parameters for call to function SendData_MS1100
   \   000025   12....       LCALL   ??SendData_MS1100?relay
   \   000028   02....       LJMP    ??Subroutine37_0 & 0xFFFF
     81          
     82          
     83          
     84          /*********************************************************************
     85           * MACROS
     86           */
     87          
     88          /*********************************************************************
     89           * CONSTANTS
     90           */
     91          
     92          /*********************************************************************
     93           * TYPEDEFS
     94           */
     95          
     96          /*********************************************************************
     97           * GLOBAL VARIABLES
     98           */
     99          
    100          
    101          extern unsigned char ReadData(unsigned int i);
    102          
    103          // This list should be filled with Application specific Cluster IDs.

   \                                 In  segment XDATA_ROM_C, align 1
    104          const cId_t SampleApp_ClusterList[SAMPLEAPP_MAX_CLUSTERS] =
   \                     SampleApp_ClusterList:
   \   000000   0100         DW 1
   \   000002   0200         DW 2
    105          {
    106            SAMPLEAPP_PERIODIC_CLUSTERID,
    107            SAMPLEAPP_FLASH_CLUSTERID
    108          };
    109          

   \                                 In  segment XDATA_ROM_C, align 1
    110          const SimpleDescriptionFormat_t SampleApp_SimpleDesc =
   \                     SampleApp_SimpleDesc:
   \   000000   14           DB 20
   \   000001   080F         DW 3848
   \   000003   0100         DW 1
   \   000005   00           DB 0
   \   000006   02           DB 2
   \   000007   ....         DW SampleApp_ClusterList
   \   000009   02           DB 2
   \   00000A   ....         DW SampleApp_ClusterList
    111          {
    112            SAMPLEAPP_ENDPOINT,              //  int Endpoint;
    113            SAMPLEAPP_PROFID,                //  uint16 AppProfId[2];
    114            SAMPLEAPP_DEVICEID,              //  uint16 AppDeviceId[2];
    115            SAMPLEAPP_DEVICE_VERSION,        //  int   AppDevVer:4;
    116            SAMPLEAPP_FLAGS,                 //  int   AppFlags:4;
    117            SAMPLEAPP_MAX_CLUSTERS,          //  uint8  AppNumInClusters;
    118            (cId_t *)SampleApp_ClusterList,  //  uint8 *pAppInClusterList;
    119            SAMPLEAPP_MAX_CLUSTERS,          //  uint8  AppNumInClusters;
    120            (cId_t *)SampleApp_ClusterList   //  uint8 *pAppInClusterList;
    121          };
    122          
    123          // This is the Endpoint/Interface description.  It is defined here, but
    124          // filled-in in SampleApp_Init().  Another way to go would be to fill
    125          // in the structure here and make it a "const" (in code space).  The
    126          // way it's defined in this sample app it is define in RAM.

   \                                 In  segment XDATA_Z, align 1, keep-with-next
    127          endPointDesc_t SampleApp_epDesc;
   \                     SampleApp_epDesc:
   \   000000                DS 6
   \   000006                REQUIRE __INIT_XDATA_Z
    128          
    129          /*********************************************************************
    130           * EXTERNAL VARIABLES
    131           */
    132          
    133          /*********************************************************************
    134           * EXTERNAL FUNCTIONS
    135           */
    136          
    137          /*********************************************************************
    138           * LOCAL VARIABLES
    139           */

   \                                 In  segment XDATA_Z, align 1, keep-with-next
    140          uint8 SampleApp_TaskID;   // Task ID for internal task/event processing
   \                     SampleApp_TaskID:
   \   000000                DS 1
   \   000001                REQUIRE __INIT_XDATA_Z
    141                                    // This variable will be received when
    142                                    // SampleApp_Init() is called.

   \                                 In  segment XDATA_Z, align 1, keep-with-next
    143          uint8 MYTASK_TaskID;      //§Úªº¥ô°Èªº¥þ°ìÅÜ¼Æ
   \                     MYTASK_TaskID:
   \   000000                DS 1
   \   000001                REQUIRE __INIT_XDATA_Z

   \                                 In  segment XDATA_Z, align 1, keep-with-next
    144          uint8 TakeValue_TaskID;
   \                     TakeValue_TaskID:
   \   000000                DS 1
   \   000001                REQUIRE __INIT_XDATA_Z

   \                                 In  segment XDATA_Z, align 1, keep-with-next
    145          uint8 Operation_TaskID;
   \                     Operation_TaskID:
   \   000000                DS 1
   \   000001                REQUIRE __INIT_XDATA_Z

   \                                 In  segment XDATA_Z, align 1, keep-with-next
    146          uint8 SendUART_TaskID;
   \                     SendUART_TaskID:
   \   000000                DS 1
   \   000001                REQUIRE __INIT_XDATA_Z
    147          

   \                                 In  segment XDATA_I, align 1, keep-with-next
    148          unsigned char messageA = 0x30 ;
   \                     messageA:
   \   000000                DS 1
   \   000001                REQUIRE `?<Initializer for messageA>`
   \   000001                REQUIRE __INIT_XDATA_I

   \                                 In  segment XDATA_Z, align 1, keep-with-next
    149          unsigned char periodicData[28];
   \                     periodicData:
   \   000000                DS 28
   \   00001C                REQUIRE __INIT_XDATA_Z

   \                                 In  segment XDATA_Z, align 1, keep-with-next
    150          unsigned char SEND_DATA[28];
   \                     SEND_DATA:
   \   000000                DS 28
   \   00001C                REQUIRE __INIT_XDATA_Z

   \                                 In  segment XDATA_I, align 1, keep-with-next
    151          unsigned char CNT[3]={0x30,0x30,0x30};
   \                     CNT:
   \   000000                DS 3
   \   000003                REQUIRE `?<Initializer for CNT>`
   \   000003                REQUIRE __INIT_XDATA_I
    152          

   \                                 In  segment XDATA_Z, align 1, keep-with-next
    153          unsigned int tempA = 0 ;
   \                     tempA:
   \   000000                DS 2
   \   000002                REQUIRE __INIT_XDATA_Z

   \                                 In  segment XDATA_Z, align 1, keep-with-next
    154          unsigned int cntnumberA= 0 ;
   \                     cntnumberA:
   \   000000                DS 2
   \   000002                REQUIRE __INIT_XDATA_Z

   \                                 In  segment XDATA_Z, align 1, keep-with-next
    155          unsigned int missmessageA = 0 ;
   \                     missmessageA:
   \   000000                DS 2
   \   000002                REQUIRE __INIT_XDATA_Z
    156          

   \                                 In  segment XDATA_Z, align 1, keep-with-next
    157          unsigned int tempB = 0 ;
   \                     tempB:
   \   000000                DS 2
   \   000002                REQUIRE __INIT_XDATA_Z

   \                                 In  segment XDATA_Z, align 1, keep-with-next
    158          unsigned int cntnumberB= 0 ;
   \                     cntnumberB:
   \   000000                DS 2
   \   000002                REQUIRE __INIT_XDATA_Z

   \                                 In  segment XDATA_Z, align 1, keep-with-next
    159          unsigned int missmessageB = 0 ;
   \                     missmessageB:
   \   000000                DS 2
   \   000002                REQUIRE __INIT_XDATA_Z
    160          

   \                                 In  segment XDATA_I, align 1, keep-with-next
    161          unsigned char MMchar[33] = "#####_Dropped Packets_=____ #####";
   \                     MMchar:
   \   000000                DS 33
   \   000021                REQUIRE `?<Initializer for MMchar>`
   \   000021                REQUIRE __INIT_XDATA_I

   \                                 In  segment XDATA_I, align 1, keep-with-next
    162          unsigned char ROOM1[16] ="*****ROOM A*****";
   \                     ROOM1:
   \   000000                DS 16
   \   000010                REQUIRE `?<Initializer for ROOM1>`
   \   000010                REQUIRE __INIT_XDATA_I

   \                                 In  segment XDATA_I, align 1, keep-with-next
    163          unsigned char ROOM2[16] ="*****ROOM B*****";
   \                     ROOM2:
   \   000000                DS 16
   \   000010                REQUIRE `?<Initializer for ROOM2>`
   \   000010                REQUIRE __INIT_XDATA_I
    164          

   \                                 In  segment XDATA_Z, align 1, keep-with-next
    165          devStates_t SampleApp_NwkState;
   \                     SampleApp_NwkState:
   \   000000                DS 1
   \   000001                REQUIRE __INIT_XDATA_Z
    166          

   \                                 In  segment XDATA_Z, align 1, keep-with-next
    167          uint8 SampleApp_TransID;  // This is the unique message ID (counter)
   \                     SampleApp_TransID:
   \   000000                DS 1
   \   000001                REQUIRE __INIT_XDATA_Z
    168          
    169          

   \                                 In  segment XDATA_Z, align 1, keep-with-next
    170          afAddrType_t SampleApp_Periodic_DstAddr;
   \                     SampleApp_Periodic_DstAddr:
   \   000000                DS 12
   \   00000C                REQUIRE __INIT_XDATA_Z

   \                                 In  segment XDATA_Z, align 1, keep-with-next
    171          afAddrType_t SampleApp_Flash_DstAddr;
   \                     SampleApp_Flash_DstAddr:
   \   000000                DS 12
   \   00000C                REQUIRE __INIT_XDATA_Z

   \                                 In  segment XDATA_Z, align 1, keep-with-next
    172          afAddrType_t SampleApp_P2P_DstAddr;
   \                     SampleApp_P2P_DstAddr:
   \   000000                DS 12
   \   00000C                REQUIRE __INIT_XDATA_Z
    173          

   \                                 In  segment XDATA_Z, align 1, keep-with-next
    174          aps_Group_t SampleApp_Group;
   \                     SampleApp_Group:
   \   000000                DS 18
   \   000012                REQUIRE __INIT_XDATA_Z
    175          

   \                                 In  segment XDATA_Z, align 1, keep-with-next
    176          uint8 SampleAppPeriodicCounter = 0;
   \                     SampleAppPeriodicCounter:
   \   000000                DS 1
   \   000001                REQUIRE __INIT_XDATA_Z

   \                                 In  segment XDATA_Z, align 1, keep-with-next
    177          uint8 SampleAppFlashCounter = 0;
   \                     SampleAppFlashCounter:
   \   000000                DS 1
   \   000001                REQUIRE __INIT_XDATA_Z
    178          
    179          /*********************************************************************
    180           * LOCAL FUNCTIONS
    181           */
    182          void SampleApp_HandleKeys( uint8 shift, uint8 keys );
    183          void SampleApp_MessageMSGCB( afIncomingMSGPacket_t *pckt );
    184          void SampleApp_SendPeriodicMessage( void );
    185          void SampleApp_SendFlashMessage( uint16 flashTime );
    186          void SampleApp_SerialCMD(mtOSALSerialData_t *cmdMsg);
    187          void SampleApp_Send_P2P_Message( void );
    188          
    189          /*********************************************************************
    190           * NETWORK LAYER CALLBACKS
    191           */
    192          
    193          /*********************************************************************
    194           * PUBLIC FUNCTIONS
    195           */
    196          
    197          /*********************************************************************
    198           * @fn      SampleApp_Init
    199           *
    200           * @brief   Initialization function for the Generic App Task.
    201           *          This is called during initialization and should contain
    202           *          any application specific initialization (ie. hardware
    203           *          initialization/setup, table initialization, power up
    204           *          notificaiton ... ).
    205           *
    206           * @param   task_id - the ID assigned by OSAL.  This ID should be
    207           *                    used to send messages and set timers.
    208           *
    209           * @return  none
    210           */

   \                                 In  segment BANKED_CODE, align 1, keep-with-next
    211          void SampleApp_Init( uint8 task_id )
   \                     SampleApp_Init:
    212          { 
   \   000000   74F5         MOV     A,#-0xb
   \   000002   12....       LCALL   ?BANKED_ENTER_XDATA
   \   000005                ; Saved register size: 11
   \   000005                ; Auto size: 0
   \   000005   E9           MOV     A,R1
   \   000006   FE           MOV     R6,A
    213            SampleApp_TaskID = task_id;
   \   000007   90....       MOV     DPTR,#SampleApp_TaskID
   \   00000A   F0           MOVX    @DPTR,A
    214            SampleApp_NwkState = DEV_INIT;
   \   00000B   90....       MOV     DPTR,#SampleApp_NwkState
   \   00000E   7401         MOV     A,#0x1
   \   000010   F0           MOVX    @DPTR,A
    215            SampleApp_TransID = 0;
   \   000011   90....       MOV     DPTR,#SampleApp_TransID
   \   000014   E4           CLR     A
   \   000015   F0           MOVX    @DPTR,A
    216            
    217            MT_UartInit();                  //¦ê¤fªì©l¤Æ
   \   000016                ; Setup parameters for call to function MT_UartInit
   \   000016   12....       LCALL   ??MT_UartInit?relay
    218            MT_UartRegisterTaskID(task_id); //µù¥U¦ê¤f¥ô°È
   \   000019                ; Setup parameters for call to function MT_UartRegisterTaskID
   \   000019   EE           MOV     A,R6
   \   00001A   F9           MOV     R1,A
   \   00001B   12....       LCALL   ??MT_UartRegisterTaskID?relay
    219            HalUARTWrite(0,"UartInit OK\n", sizeof("UartInit OK\n"));//´£¥Ü«H®§
   \   00001E                ; Setup parameters for call to function HalUARTWrite
   \   00001E   7C0D         MOV     R4,#0xd
   \   000020   7D00         MOV     R5,#0x0
   \   000022   7A..         MOV     R2,#`?<Constant "UartInit OK\\n">` & 0xff
   \   000024   7B..         MOV     R3,#(`?<Constant "UartInit OK\\n">` >> 8) & 0xff
   \   000026   7900         MOV     R1,#0x0
   \   000028   12....       LCALL   ??HalUARTWrite?relay
    220            
    221            // Device hardware initialization can be added here or in main() (Zmain.c).
    222            // If the hardware is application specific - add it here.
    223            // If the hardware is other parts of the device add it in main().
    224          
    225           #if defined ( BUILD_ALL_DEVICES )
    226            // The "Demo" target is setup to have BUILD_ALL_DEVICES and HOLD_AUTO_START
    227            // We are looking at a jumper (defined in SampleAppHw.c) to be jumpered
    228            // together - if they are - we will start up a coordinator. Otherwise,
    229            // the device will start as a router.
    230            if ( readCoordinatorJumper() )
    231              zgDeviceLogicalType = ZG_DEVICETYPE_COORDINATOR;
    232            else
    233              zgDeviceLogicalType = ZG_DEVICETYPE_ROUTER;
    234          #endif // BUILD_ALL_DEVICES
    235          
    236          #if defined ( HOLD_AUTO_START )
    237            // HOLD_AUTO_START is a compile option that will surpress ZDApp
    238            //  from starting the device and wait for the application to
    239            //  start the device.
    240            ZDOInitDevice(0);
    241          #endif
    242          
    243            // Setup for the periodic message's destination address
    244            // Broadcast to everyone
    245            SampleApp_Periodic_DstAddr.addrMode = (afAddrMode_t)AddrBroadcast;
   \   00002B   90....       MOV     DPTR,#SampleApp_Periodic_DstAddr + 8
   \   00002E   740F         MOV     A,#0xf
   \   000030   F0           MOVX    @DPTR,A
    246            SampleApp_Periodic_DstAddr.endPoint = SAMPLEAPP_ENDPOINT;
   \   000031   A3           INC     DPTR
   \   000032   7414         MOV     A,#0x14
   \   000034   F0           MOVX    @DPTR,A
    247            SampleApp_Periodic_DstAddr.addr.shortAddr = 0xFFFF;
   \   000035   90....       MOV     DPTR,#SampleApp_Periodic_DstAddr
   \   000038   74FF         MOV     A,#-0x1
   \   00003A   F0           MOVX    @DPTR,A
   \   00003B   A3           INC     DPTR
   \   00003C   F0           MOVX    @DPTR,A
    248          
    249            // Setup for the flash command's destination address - Group 1
    250            SampleApp_Flash_DstAddr.addrMode = (afAddrMode_t)afAddrGroup;
   \   00003D   90....       MOV     DPTR,#SampleApp_Flash_DstAddr + 8
   \   000040   7401         MOV     A,#0x1
   \   000042   F0           MOVX    @DPTR,A
    251            SampleApp_Flash_DstAddr.endPoint = SAMPLEAPP_ENDPOINT;
   \   000043   A3           INC     DPTR
   \   000044   7414         MOV     A,#0x14
   \   000046   F0           MOVX    @DPTR,A
    252            SampleApp_Flash_DstAddr.addr.shortAddr = SAMPLEAPP_FLASH_GROUP;
   \   000047   90....       MOV     DPTR,#SampleApp_Flash_DstAddr
   \   00004A   7401         MOV     A,#0x1
   \   00004C   F0           MOVX    @DPTR,A
   \   00004D   A3           INC     DPTR
   \   00004E   E4           CLR     A
   \   00004F   F0           MOVX    @DPTR,A
    253            
    254             SampleApp_P2P_DstAddr.addrMode = (afAddrMode_t)Addr16Bit;
   \   000050   90....       MOV     DPTR,#SampleApp_P2P_DstAddr + 8
   \   000053   7402         MOV     A,#0x2
   \   000055   F0           MOVX    @DPTR,A
    255             SampleApp_P2P_DstAddr.endPoint = SAMPLEAPP_ENDPOINT;
   \   000056   A3           INC     DPTR
   \   000057   7414         MOV     A,#0x14
   \   000059   F0           MOVX    @DPTR,A
    256             SampleApp_P2P_DstAddr.addr.shortAddr = 0x0000;
   \   00005A   90....       MOV     DPTR,#SampleApp_P2P_DstAddr
   \   00005D   E4           CLR     A
   \   00005E   F0           MOVX    @DPTR,A
   \   00005F   A3           INC     DPTR
   \   000060   F0           MOVX    @DPTR,A
    257            // Fill out the endpoint description.
    258            SampleApp_epDesc.endPoint = SAMPLEAPP_ENDPOINT;
   \   000061   90....       MOV     DPTR,#SampleApp_epDesc
   \   000064   7414         MOV     A,#0x14
   \   000066   F0           MOVX    @DPTR,A
    259            SampleApp_epDesc.task_id = &SampleApp_TaskID;
   \   000067   A3           INC     DPTR
   \   000068   74..         MOV     A,#SampleApp_TaskID & 0xff
   \   00006A   F0           MOVX    @DPTR,A
   \   00006B   A3           INC     DPTR
   \   00006C   74..         MOV     A,#(SampleApp_TaskID >> 8) & 0xff
   \   00006E   F0           MOVX    @DPTR,A
    260            SampleApp_epDesc.simpleDesc
    261                      = (SimpleDescriptionFormat_t *)&SampleApp_SimpleDesc;
   \   00006F   A3           INC     DPTR
   \   000070   74..         MOV     A,#SampleApp_SimpleDesc & 0xff
   \   000072   F0           MOVX    @DPTR,A
   \   000073   A3           INC     DPTR
   \   000074   74..         MOV     A,#(SampleApp_SimpleDesc >> 8) & 0xff
   \   000076   F0           MOVX    @DPTR,A
    262            SampleApp_epDesc.latencyReq = noLatencyReqs;
   \   000077   A3           INC     DPTR
   \   000078   E4           CLR     A
   \   000079   F0           MOVX    @DPTR,A
    263          
    264            // Register the endpoint description with the AF
    265            afRegister( &SampleApp_epDesc );
   \   00007A                ; Setup parameters for call to function afRegister
   \   00007A   7A..         MOV     R2,#SampleApp_epDesc & 0xff
   \   00007C   7B..         MOV     R3,#(SampleApp_epDesc >> 8) & 0xff
   \   00007E   12....       LCALL   ??afRegister?relay
    266          
    267            // Register for all key events - This app will handle all key events
    268            RegisterForKeys( SampleApp_TaskID );
   \   000081                ; Setup parameters for call to function RegisterForKeys
   \   000081   90....       MOV     DPTR,#SampleApp_TaskID
   \   000084   E0           MOVX    A,@DPTR
   \   000085   F9           MOV     R1,A
   \   000086   12....       LCALL   ??RegisterForKeys?relay
    269          
    270            // By default, all devices start out in Group 1
    271            SampleApp_Group.ID = 0x0001;
   \   000089   90....       MOV     DPTR,#SampleApp_Group
   \   00008C   7401         MOV     A,#0x1
   \   00008E   F0           MOVX    @DPTR,A
   \   00008F   A3           INC     DPTR
   \   000090   E4           CLR     A
   \   000091   F0           MOVX    @DPTR,A
    272            osal_memcpy( SampleApp_Group.name, "Group 1", 7 );
   \   000092                ; Setup parameters for call to function osal_memcpy
   \   000092   75....       MOV     ?V0 + 0,#`?<Constant "Group 1">` & 0xff
   \   000095   75....       MOV     ?V0 + 1,#(`?<Constant "Group 1">` >> 8) & 0xff
   \   000098   F5..         MOV     ?V0 + 2,A
   \   00009A   78..         MOV     R0,#?V0 + 0
   \   00009C   12....       LCALL   ?PUSH_XSTACK_I_THREE
   \   00009F   7C07         MOV     R4,#0x7
   \   0000A1   7D00         MOV     R5,#0x0
   \   0000A3   7A..         MOV     R2,#(SampleApp_Group + 2) & 0xff
   \   0000A5   7B..         MOV     R3,#((SampleApp_Group + 2) >> 8) & 0xff
   \   0000A7   12....       LCALL   ??osal_memcpy?relay
   \   0000AA   7403         MOV     A,#0x3
   \   0000AC   12....       LCALL   ?DEALLOC_XSTACK8
    273            aps_AddGroup( SAMPLEAPP_ENDPOINT, &SampleApp_Group );
   \   0000AF                ; Setup parameters for call to function aps_AddGroup
   \   0000AF   7A..         MOV     R2,#SampleApp_Group & 0xff
   \   0000B1   7B..         MOV     R3,#(SampleApp_Group >> 8) & 0xff
   \   0000B3   7914         MOV     R1,#0x14
   \   0000B5   12....       LCALL   ??aps_AddGroup?relay
    274          
    275          #if defined ( LCD_SUPPORTED )
    276            HalLcdWriteString( "SampleApp", HAL_LCD_LINE_1 );
   \   0000B8                ; Setup parameters for call to function HalLcdWriteString
   \   0000B8   7901         MOV     R1,#0x1
   \   0000BA   7A..         MOV     R2,#`?<Constant "SampleApp">` & 0xff
   \   0000BC   7B..         MOV     R3,#(`?<Constant "SampleApp">` >> 8) & 0xff
   \   0000BE   12....       LCALL   ??HalLcdWriteString?relay
    277          #endif
    278          }
   \   0000C1                REQUIRE ?Subroutine4
   \   0000C1                ; // Fall through to label ?Subroutine4

   \                                 In  segment BANKED_CODE, align 1, keep-with-next
   \                     ?Subroutine4:
   \   000000   7F03         MOV     R7,#0x3
   \   000002   02....       LJMP    ?BANKED_LEAVE_XDATA
    279          
    280          
    281          /*************************************************************/
    282          /**********                            SendUART                        ************/
    283          /**********                   When Coordinator, do this           ************/

   \                                 In  segment BANKED_CODE, align 1, keep-with-next
    284          void SendUARTInit(uint8 task_id)
   \                     SendUARTInit:
    285          {
   \   000000   74F7         MOV     A,#-0x9
   \   000002   12....       LCALL   ?BANKED_ENTER_XDATA
   \   000005                ; Saved register size: 9
   \   000005                ; Auto size: 0
   \   000005   E9           MOV     A,R1
    286            SendUART_TaskID = task_id;
   \   000006   90....       MOV     DPTR,#SendUART_TaskID
   \   000009   F0           MOVX    @DPTR,A
    287            Init_Sensor();
   \   00000A                ; Setup parameters for call to function Init_Sensor
   \   00000A   12....       LCALL   ??Init_Sensor?relay
    288          }
   \   00000D                REQUIRE ?Subroutine1
   \   00000D                ; // Fall through to label ?Subroutine1
    289          

   \                                 In  segment BANKED_CODE, align 1, keep-with-next
    290          uint16 SendUART(uint8 taskid, uint16 events)
   \                     SendUART:
    291          { 
   \   000000   74F7         MOV     A,#-0x9
   \   000002   12....       LCALL   ?BANKED_ENTER_XDATA
   \   000005                ; Saved register size: 9
   \   000005                ; Auto size: 106
   \   000005   7496         MOV     A,#-0x6a
   \   000007   12....       LCALL   ?ALLOC_XSTACK8
   \   00000A   EA           MOV     A,R2
   \   00000B   FE           MOV     R6,A
   \   00000C   EB           MOV     A,R3
   \   00000D   FF           MOV     R7,A
    292            if ( events & SEND_UART )
   \   00000E   5440         ANL     A,#0x40
   \   000010   7003         JNZ     $+5
   \   000012   02....       LJMP    ??SendUART_0 & 0xFFFF
    293            {
    294              tempA=0;
   \   000015   90....       MOV     DPTR,#tempA
   \   000018   E4           CLR     A
   \   000019   F0           MOVX    @DPTR,A
   \   00001A   A3           INC     DPTR
   \   00001B   F0           MOVX    @DPTR,A
    295              tempB=0;
   \   00001C   90....       MOV     DPTR,#tempB
   \   00001F   F0           MOVX    @DPTR,A
   \   000020   A3           INC     DPTR
   \   000021   F0           MOVX    @DPTR,A
    296              
    297              //UartSendString(periodicData,14);
    298              if(periodicData[0]==0x41)
   \   000022   90....       MOV     DPTR,#periodicData
   \   000025   E0           MOVX    A,@DPTR
   \   000026   6441         XRL     A,#0x41
   \   000028   7C10         MOV     R4,#0x10
   \   00002A   7D00         MOV     R5,#0x0
   \   00002C   7075         JNZ     ??SendUART_1
    299                    {      UartSendString(ROOM1,16);
   \   00002E                ; Setup parameters for call to function UartSendString
   \   00002E   7A..         MOV     R2,#ROOM1 & 0xff
   \   000030   7B..         MOV     R3,#(ROOM1 >> 8) & 0xff
   \   000032   12....       LCALL   ??UartSendString?relay
    300                            tempA = periodicData[26]-0x30 + (periodicData[25]-0x30)*10 + (periodicData[24]-0x30)*100 ;
   \   000035   12....       LCALL   ?Subroutine5 & 0xFFFF
   \                     ??CrossCallReturnLabel_0:
   \   000038   90....       MOV     DPTR,#tempA
   \   00003B   12....       LCALL   ?Subroutine35 & 0xFFFF
    301                        while( tempA != cntnumberA+1 )
   \                     ??CrossCallReturnLabel_91:
   \   00003E   90....       MOV     DPTR,#cntnumberA
   \   000041   12....       LCALL   ?Subroutine16 & 0xFFFF
   \                     ??CrossCallReturnLabel_29:
   \   000044   7583..       MOV     DPH,#(tempA >> 8) & 0xff
   \   000047   7582..       MOV     DPL,#tempA & 0xff
   \   00004A   E0           MOVX    A,@DPTR
   \   00004B   68           XRL     A,R0
   \   00004C   7003         JNZ     ??SendUART_2
   \   00004E   A3           INC     DPTR
   \   00004F   E0           MOVX    A,@DPTR
   \   000050   69           XRL     A,R1
   \                     ??SendUART_2:
   \   000051   6045         JZ      ??SendUART_3
    302                             {
    303                             missmessageA = tempA- cntnumberA -1;
   \   000053   18           DEC     R0
   \   000054   90....       MOV     DPTR,#cntnumberA + 1
   \   000057   E0           MOVX    A,@DPTR
   \   000058   F9           MOV     R1,A
   \   000059   7583..       MOV     DPH,#(tempA >> 8) & 0xff
   \   00005C   7582..       MOV     DPL,#tempA & 0xff
   \   00005F   12....       LCALL   ?Subroutine10 & 0xFFFF
   \                     ??CrossCallReturnLabel_11:
   \   000062   90....       MOV     DPTR,#missmessageA
   \   000065   12....       LCALL   ?Subroutine17 & 0xFFFF
    304                             MMchar[23] = periodicData[0];                           // A
    305                             MMchar[24] = missmessageA /100 + 0x30;          // 100
   \                     ??CrossCallReturnLabel_31:
   \   000068   12....       LCALL   ?US_DIV_MOD
   \   00006B   E8           MOV     A,R0
   \   00006C   2430         ADD     A,#0x30
   \   00006E   90....       MOV     DPTR,#MMchar + 24
   \   000071   F0           MOVX    @DPTR,A
    306                             MMchar[25] = missmessageA /10 %10 + 0x30;    // 10
   \   000072   90....       MOV     DPTR,#missmessageA
   \   000075   12....       LCALL   ??Subroutine43_0 & 0xFFFF
   \                     ??CrossCallReturnLabel_99:
   \   000078   12....       LCALL   ?US_DIV_MOD
   \   00007B   7A0A         MOV     R2,#0xa
   \   00007D   7B00         MOV     R3,#0x0
   \   00007F   12....       LCALL   ?US_DIV_MOD
   \   000082   EA           MOV     A,R2
   \   000083   2430         ADD     A,#0x30
   \   000085   90....       MOV     DPTR,#MMchar + 25
   \   000088   F0           MOVX    @DPTR,A
    307                             MMchar[26] = missmessageA %10 +0x30;           // 1
   \   000089   90....       MOV     DPTR,#missmessageA
   \   00008C   12....       LCALL   ??Subroutine43_0 & 0xFFFF
   \                     ??CrossCallReturnLabel_100:
   \   00008F   12....       LCALL   ?US_DIV_MOD
   \   000092   12....       LCALL   ?Subroutine22 & 0xFFFF
    308                             UartSendString(MMchar,33);
   \                     ??CrossCallReturnLabel_35:
   \   000095   12....       LCALL   ??UartSendString?relay
    309                             break;
    310                             }cntnumberA = tempA;
   \                     ??SendUART_3:
   \   000098   90....       MOV     DPTR,#tempA
   \   00009B   12....       LCALL   ?Subroutine33 & 0xFFFF
    311                    }
   \                     ??CrossCallReturnLabel_104:
   \   00009E   90....       MOV     DPTR,#cntnumberA
   \   0000A1   8073         SJMP    ??SendUART_4
    312              else
    313                    {        UartSendString(ROOM2,16);
   \                     ??SendUART_1:
   \   0000A3                ; Setup parameters for call to function UartSendString
   \   0000A3   7A..         MOV     R2,#ROOM2 & 0xff
   \   0000A5   7B..         MOV     R3,#(ROOM2 >> 8) & 0xff
   \   0000A7   12....       LCALL   ??UartSendString?relay
    314                              tempB = periodicData[26]-0x30 + (periodicData[25]-0x30)*10 + (periodicData[24]-0x30)*100 ;
   \   0000AA   12....       LCALL   ?Subroutine5 & 0xFFFF
   \                     ??CrossCallReturnLabel_1:
   \   0000AD   90....       MOV     DPTR,#tempB
   \   0000B0   12....       LCALL   ?Subroutine35 & 0xFFFF
    315                        while( tempB != cntnumberB+1)
   \                     ??CrossCallReturnLabel_92:
   \   0000B3   90....       MOV     DPTR,#cntnumberB
   \   0000B6   12....       LCALL   ?Subroutine16 & 0xFFFF
   \                     ??CrossCallReturnLabel_30:
   \   0000B9   7583..       MOV     DPH,#(tempB >> 8) & 0xff
   \   0000BC   7582..       MOV     DPL,#tempB & 0xff
   \   0000BF   E0           MOVX    A,@DPTR
   \   0000C0   68           XRL     A,R0
   \   0000C1   7003         JNZ     ??SendUART_5
   \   0000C3   A3           INC     DPTR
   \   0000C4   E0           MOVX    A,@DPTR
   \   0000C5   69           XRL     A,R1
   \                     ??SendUART_5:
   \   0000C6   6045         JZ      ??SendUART_6
    316                               {
    317                               missmessageB = tempB- cntnumberB -1;
   \   0000C8   18           DEC     R0
   \   0000C9   90....       MOV     DPTR,#cntnumberB + 1
   \   0000CC   E0           MOVX    A,@DPTR
   \   0000CD   F9           MOV     R1,A
   \   0000CE   7583..       MOV     DPH,#(tempB >> 8) & 0xff
   \   0000D1   7582..       MOV     DPL,#tempB & 0xff
   \   0000D4   12....       LCALL   ?Subroutine10 & 0xFFFF
   \                     ??CrossCallReturnLabel_12:
   \   0000D7   90....       MOV     DPTR,#missmessageB
   \   0000DA   12....       LCALL   ?Subroutine17 & 0xFFFF
    318                               MMchar[23] = periodicData[0];                           // B
    319                               MMchar[24] = missmessageB /100 + 0x30;          // 100
   \                     ??CrossCallReturnLabel_32:
   \   0000DD   12....       LCALL   ?US_DIV_MOD
   \   0000E0   E8           MOV     A,R0
   \   0000E1   2430         ADD     A,#0x30
   \   0000E3   90....       MOV     DPTR,#MMchar + 24
   \   0000E6   F0           MOVX    @DPTR,A
    320                               MMchar[25] = missmessageB /10 %10 + 0x30;    // 10
   \   0000E7   90....       MOV     DPTR,#missmessageB
   \   0000EA   12....       LCALL   ??Subroutine43_0 & 0xFFFF
   \                     ??CrossCallReturnLabel_101:
   \   0000ED   12....       LCALL   ?US_DIV_MOD
   \   0000F0   7A0A         MOV     R2,#0xa
   \   0000F2   7B00         MOV     R3,#0x0
   \   0000F4   12....       LCALL   ?US_DIV_MOD
   \   0000F7   EA           MOV     A,R2
   \   0000F8   2430         ADD     A,#0x30
   \   0000FA   90....       MOV     DPTR,#MMchar + 25
   \   0000FD   F0           MOVX    @DPTR,A
    321                               MMchar[26] = missmessageB %10 +0x30;           // 1
   \   0000FE   90....       MOV     DPTR,#missmessageB
   \   000101   12....       LCALL   ??Subroutine43_0 & 0xFFFF
   \                     ??CrossCallReturnLabel_102:
   \   000104   12....       LCALL   ?US_DIV_MOD
   \   000107   12....       LCALL   ?Subroutine22 & 0xFFFF
    322                               UartSendString(MMchar,33);
   \                     ??CrossCallReturnLabel_36:
   \   00010A   12....       LCALL   ??UartSendString?relay
    323                               break;
    324                               }cntnumberB = tempB;
   \                     ??SendUART_6:
   \   00010D   90....       MOV     DPTR,#tempB
   \   000110   12....       LCALL   ?Subroutine33 & 0xFFFF
    325                    }
   \                     ??CrossCallReturnLabel_105:
   \   000113   90....       MOV     DPTR,#cntnumberB
   \                     ??SendUART_4:
   \   000116   12....       LCALL   ?Subroutine35 & 0xFFFF
    326               
    327              UartSendString(periodicData,28);
   \                     ??CrossCallReturnLabel_93:
   \   000119                ; Setup parameters for call to function UartSendString
   \   000119   7C1C         MOV     R4,#0x1c
   \   00011B   7D00         MOV     R5,#0x0
   \   00011D   7A..         MOV     R2,#periodicData & 0xff
   \   00011F   7B..         MOV     R3,#(periodicData >> 8) & 0xff
   \   000121   12....       LCALL   ??UartSendString?relay
    328              
    329               unsigned char CNT_Output[4] = {0x30,0x30,0x30,0x30};
   \   000124   85..82       MOV     DPL,?XSP + 0
   \   000127   85..83       MOV     DPH,?XSP + 1
   \   00012A   AC82         MOV     R4,DPL
   \   00012C   AD83         MOV     R5,DPH
   \   00012E   7583..       MOV     DPH,#(`?<Constant {48, 48, 48, 48}>` >> 8) & 0xff
   \   000131   7582..       MOV     DPL,#`?<Constant {48, 48, 48, 48}>` & 0xff
   \   000134   7404         MOV     A,#0x4
   \   000136   12....       LCALL   ?MOVE_LONG8_XDATA_XDATA
    330                CNT_Output[0]=periodicData[0];
   \   000139   90....       MOV     DPTR,#periodicData
   \   00013C   12....       LCALL   ?Subroutine18 & 0xFFFF
    331                CNT_Output[1]=periodicData[24];
   \                     ??CrossCallReturnLabel_33:
   \   00013F   90....       MOV     DPTR,#periodicData + 24
   \   000142   E0           MOVX    A,@DPTR
   \   000143   C0E0         PUSH    A
   \   000145   7401         MOV     A,#0x1
   \   000147   12....       LCALL   ?XSTACK_DISP0_8
   \   00014A   D0E0         POP     A
   \   00014C   F0           MOVX    @DPTR,A
    332                CNT_Output[2]=periodicData[25];
   \   00014D   90....       MOV     DPTR,#periodicData + 25
   \   000150   E0           MOVX    A,@DPTR
   \   000151   C0E0         PUSH    A
   \   000153   7402         MOV     A,#0x2
   \   000155   12....       LCALL   ?XSTACK_DISP0_8
   \   000158   D0E0         POP     A
   \   00015A   F0           MOVX    @DPTR,A
    333                CNT_Output[3]=periodicData[26];
   \   00015B   90....       MOV     DPTR,#periodicData + 26
   \   00015E   E0           MOVX    A,@DPTR
   \   00015F   C0E0         PUSH    A
   \   000161   7403         MOV     A,#0x3
   \   000163   12....       LCALL   ?XSTACK_DISP0_8
   \   000166   D0E0         POP     A
   \   000168   F0           MOVX    @DPTR,A
    334              UartSendString(CNT_Output,4);
   \   000169                ; Setup parameters for call to function UartSendString
   \   000169   7C04         MOV     R4,#0x4
   \   00016B   7D00         MOV     R5,#0x0
   \   00016D   85..82       MOV     DPL,?XSP + 0
   \   000170   85..83       MOV     DPH,?XSP + 1
   \   000173   AA82         MOV     R2,DPL
   \   000175   AB83         MOV     R3,DPH
   \   000177   12....       LCALL   ??UartSendString?relay
    335              
    336           
    337              
    338              unsigned char Temperature_Output[19]="Temperature: __._ C";
   \   00017A   7457         MOV     A,#0x57
   \   00017C   12....       LCALL   ?XSTACK_DISP0_8
   \   00017F   AC82         MOV     R4,DPL
   \   000181   AD83         MOV     R5,DPH
   \   000183   7583..       MOV     DPH,#(`?<Constant "Temperature: __._ C">` >> 8) & 0xff
   \   000186   7582..       MOV     DPL,#`?<Constant "Temperature: __._ C">` & 0xff
   \   000189   7413         MOV     A,#0x13
   \   00018B   12....       LCALL   ?MOVE_LONG8_XDATA_XDATA
    339                Temperature_Output[13]=periodicData[1];
   \   00018E   90....       MOV     DPTR,#periodicData + 1
   \   000191   E0           MOVX    A,@DPTR
   \   000192   C0E0         PUSH    A
   \   000194   7464         MOV     A,#0x64
   \   000196   12....       LCALL   ?XSTACK_DISP0_8
   \   000199   D0E0         POP     A
   \   00019B   F0           MOVX    @DPTR,A
    340                Temperature_Output[14]=periodicData[2];
   \   00019C   90....       MOV     DPTR,#periodicData + 2
   \   00019F   E0           MOVX    A,@DPTR
   \   0001A0   C0E0         PUSH    A
   \   0001A2   7465         MOV     A,#0x65
   \   0001A4   12....       LCALL   ?XSTACK_DISP0_8
   \   0001A7   D0E0         POP     A
   \   0001A9   F0           MOVX    @DPTR,A
    341                Temperature_Output[16]=periodicData[3];
   \   0001AA   90....       MOV     DPTR,#periodicData + 3
   \   0001AD   E0           MOVX    A,@DPTR
   \   0001AE   C0E0         PUSH    A
   \   0001B0   7467         MOV     A,#0x67
   \   0001B2   12....       LCALL   ?XSTACK_DISP0_8
   \   0001B5   D0E0         POP     A
   \   0001B7   F0           MOVX    @DPTR,A
    342               
    343               unsigned char Humidity_Output[16]="Humidity: __._ %";
   \   0001B8   7447         MOV     A,#0x47
   \   0001BA   12....       LCALL   ?XSTACK_DISP0_8
   \   0001BD   AC82         MOV     R4,DPL
   \   0001BF   AD83         MOV     R5,DPH
   \   0001C1   7583..       MOV     DPH,#(`?<Constant "Humidity: __._ %">` >> 8) & 0xff
   \   0001C4   7582..       MOV     DPL,#`?<Constant "Humidity: __._ %">` & 0xff
   \   0001C7   7410         MOV     A,#0x10
   \   0001C9   12....       LCALL   ?MOVE_LONG8_XDATA_XDATA
    344                Humidity_Output[10]=periodicData[4];
   \   0001CC   90....       MOV     DPTR,#periodicData + 4
   \   0001CF   E0           MOVX    A,@DPTR
   \   0001D0   C0E0         PUSH    A
   \   0001D2   7451         MOV     A,#0x51
   \   0001D4   12....       LCALL   ?XSTACK_DISP0_8
   \   0001D7   D0E0         POP     A
   \   0001D9   F0           MOVX    @DPTR,A
    345                Humidity_Output[11]=periodicData[5];
   \   0001DA   90....       MOV     DPTR,#periodicData + 5
   \   0001DD   E0           MOVX    A,@DPTR
   \   0001DE   C0E0         PUSH    A
   \   0001E0   7452         MOV     A,#0x52
   \   0001E2   12....       LCALL   ?XSTACK_DISP0_8
   \   0001E5   D0E0         POP     A
   \   0001E7   F0           MOVX    @DPTR,A
    346                Humidity_Output[13]=periodicData[6];
   \   0001E8   90....       MOV     DPTR,#periodicData + 6
   \   0001EB   E0           MOVX    A,@DPTR
   \   0001EC   C0E0         PUSH    A
   \   0001EE   7454         MOV     A,#0x54
   \   0001F0   12....       LCALL   ?XSTACK_DISP0_8
   \   0001F3   D0E0         POP     A
   \   0001F5   F0           MOVX    @DPTR,A
    347               
    348               unsigned char Dust_Output[19]="Dust: ___ ug/m3   ";
   \   0001F6   7404         MOV     A,#0x4
   \   0001F8   12....       LCALL   ?XSTACK_DISP0_8
   \   0001FB   AC82         MOV     R4,DPL
   \   0001FD   AD83         MOV     R5,DPH
   \   0001FF   7583..       MOV     DPH,#(`?<Constant "Dust: ___ ug/m3   ">` >> 8) & 0xff
   \   000202   7582..       MOV     DPL,#`?<Constant "Dust: ___ ug/m3   ">` & 0xff
   \   000205   7413         MOV     A,#0x13
   \   000207   12....       LCALL   ?MOVE_LONG8_XDATA_XDATA
    349                Dust_Output[6]=periodicData[7];
   \   00020A   90....       MOV     DPTR,#periodicData + 7
   \   00020D   E0           MOVX    A,@DPTR
   \   00020E   F8           MOV     R0,A
   \   00020F   740A         MOV     A,#0xa
   \   000211   12....       LCALL   ?XSTACK_DISP0_8
   \   000214   E8           MOV     A,R0
   \   000215   F0           MOVX    @DPTR,A
    350                Dust_Output[7]=periodicData[8];
   \   000216   90....       MOV     DPTR,#periodicData + 8
   \   000219   E0           MOVX    A,@DPTR
   \   00021A   C0E0         PUSH    A
   \   00021C   740B         MOV     A,#0xb
   \   00021E   12....       LCALL   ?XSTACK_DISP0_8
   \   000221   D0E0         POP     A
   \   000223   F0           MOVX    @DPTR,A
    351                Dust_Output[8]=periodicData[9];
   \   000224   90....       MOV     DPTR,#periodicData + 9
   \   000227   E0           MOVX    A,@DPTR
   \   000228   C0E0         PUSH    A
   \   00022A   740C         MOV     A,#0xc
   \   00022C   12....       LCALL   ?XSTACK_DISP0_8
   \   00022F   D0E0         POP     A
   \   000231   F0           MOVX    @DPTR,A
    352               if(periodicData[7]==0x30 && periodicData[8]==0x30 && periodicData[9]==0x30 )
   \   000232   7430         MOV     A,#0x30
   \   000234   68           XRL     A,R0
   \   000235   706E         JNZ     ??SendUART_7
   \   000237   90....       MOV     DPTR,#periodicData + 8
   \   00023A   E0           MOVX    A,@DPTR
   \   00023B   6430         XRL     A,#0x30
   \   00023D   7066         JNZ     ??SendUART_7
   \   00023F   A3           INC     DPTR
   \   000240   E0           MOVX    A,@DPTR
   \   000241   6430         XRL     A,#0x30
   \   000243   7060         JNZ     ??SendUART_7
    353               {
    354                  Dust_Output[6]='u'; Dust_Output[7]='n'; Dust_Output[8]='d'; Dust_Output[9]='e'; Dust_Output[10]='r'; 
   \   000245   740A         MOV     A,#0xa
   \   000247   12....       LCALL   ?XSTACK_DISP0_8
   \   00024A   7475         MOV     A,#0x75
   \   00024C   F0           MOVX    @DPTR,A
   \   00024D   740B         MOV     A,#0xb
   \   00024F   12....       LCALL   ?XSTACK_DISP0_8
   \   000252   746E         MOV     A,#0x6e
   \   000254   F0           MOVX    @DPTR,A
   \   000255   740C         MOV     A,#0xc
   \   000257   12....       LCALL   ?XSTACK_DISP0_8
   \   00025A   7464         MOV     A,#0x64
   \   00025C   F0           MOVX    @DPTR,A
   \   00025D   740D         MOV     A,#0xd
   \   00025F   12....       LCALL   ?XSTACK_DISP0_8
   \   000262   7465         MOV     A,#0x65
   \   000264   F0           MOVX    @DPTR,A
   \   000265   740E         MOV     A,#0xe
   \   000267   12....       LCALL   ?XSTACK_DISP0_8
   \   00026A   7472         MOV     A,#0x72
   \   00026C   F0           MOVX    @DPTR,A
    355                  Dust_Output[11]=' ';  Dust_Output[12]='1'; Dust_Output[13]='u'; Dust_Output[14]='g'; Dust_Output[15]='/'; 
   \   00026D   740F         MOV     A,#0xf
   \   00026F   12....       LCALL   ?XSTACK_DISP0_8
   \   000272   7420         MOV     A,#0x20
   \   000274   F0           MOVX    @DPTR,A
   \   000275   7410         MOV     A,#0x10
   \   000277   12....       LCALL   ?XSTACK_DISP0_8
   \   00027A   7431         MOV     A,#0x31
   \   00027C   F0           MOVX    @DPTR,A
   \   00027D   7411         MOV     A,#0x11
   \   00027F   12....       LCALL   ?XSTACK_DISP0_8
   \   000282   7475         MOV     A,#0x75
   \   000284   F0           MOVX    @DPTR,A
   \   000285   7412         MOV     A,#0x12
   \   000287   12....       LCALL   ?XSTACK_DISP0_8
   \   00028A   7467         MOV     A,#0x67
   \   00028C   F0           MOVX    @DPTR,A
   \   00028D   7413         MOV     A,#0x13
   \   00028F   12....       LCALL   ?XSTACK_DISP0_8
   \   000292   742F         MOV     A,#0x2f
   \   000294   F0           MOVX    @DPTR,A
    356                  Dust_Output[16]='m'; Dust_Output[17]='3'; 
   \   000295   7414         MOV     A,#0x14
   \   000297   12....       LCALL   ?XSTACK_DISP0_8
   \   00029A   746D         MOV     A,#0x6d
   \   00029C   F0           MOVX    @DPTR,A
   \   00029D   7415         MOV     A,#0x15
   \   00029F   12....       LCALL   ?XSTACK_DISP0_8
   \   0002A2   7433         MOV     A,#0x33
   \   0002A4   F0           MOVX    @DPTR,A
    357               }
    358               
    359              
    360              unsigned char CO2_Output[13]="CO2 : ____ppm";
   \                     ??SendUART_7:
   \   0002A5   742F         MOV     A,#0x2f
   \   0002A7   12....       LCALL   ?XSTACK_DISP0_8
   \   0002AA   AC82         MOV     R4,DPL
   \   0002AC   AD83         MOV     R5,DPH
   \   0002AE   7583..       MOV     DPH,#(`?<Constant "CO2 : ____ppm">` >> 8) & 0xff
   \   0002B1   7582..       MOV     DPL,#`?<Constant "CO2 : ____ppm">` & 0xff
   \   0002B4   740D         MOV     A,#0xd
   \   0002B6   12....       LCALL   ?MOVE_LONG8_XDATA_XDATA
    361                CO2_Output[6]=periodicData[10];
   \   0002B9   90....       MOV     DPTR,#periodicData + 10
   \   0002BC   E0           MOVX    A,@DPTR
   \   0002BD   C0E0         PUSH    A
   \   0002BF   7435         MOV     A,#0x35
   \   0002C1   12....       LCALL   ?XSTACK_DISP0_8
   \   0002C4   D0E0         POP     A
   \   0002C6   F0           MOVX    @DPTR,A
    362                CO2_Output[7]=periodicData[11];
   \   0002C7   90....       MOV     DPTR,#periodicData + 11
   \   0002CA   E0           MOVX    A,@DPTR
   \   0002CB   C0E0         PUSH    A
   \   0002CD   7436         MOV     A,#0x36
   \   0002CF   12....       LCALL   ?XSTACK_DISP0_8
   \   0002D2   D0E0         POP     A
   \   0002D4   F0           MOVX    @DPTR,A
    363                CO2_Output[8]=periodicData[12];
   \   0002D5   90....       MOV     DPTR,#periodicData + 12
   \   0002D8   E0           MOVX    A,@DPTR
   \   0002D9   C0E0         PUSH    A
   \   0002DB   7437         MOV     A,#0x37
   \   0002DD   12....       LCALL   ?XSTACK_DISP0_8
   \   0002E0   D0E0         POP     A
   \   0002E2   F0           MOVX    @DPTR,A
    364                CO2_Output[9]=periodicData[13];
   \   0002E3   90....       MOV     DPTR,#periodicData + 13
   \   0002E6   E0           MOVX    A,@DPTR
   \   0002E7   C0E0         PUSH    A
   \   0002E9   7438         MOV     A,#0x38
   \   0002EB   12....       LCALL   ?XSTACK_DISP0_8
   \   0002EE   D0E0         POP     A
   \   0002F0   F0           MOVX    @DPTR,A
    365                
    366              unsigned char CO_Output[12]="CO : ____ppm";
   \   0002F1   7423         MOV     A,#0x23
   \   0002F3   12....       LCALL   ?XSTACK_DISP0_8
   \   0002F6   AC82         MOV     R4,DPL
   \   0002F8   AD83         MOV     R5,DPH
   \   0002FA   7583..       MOV     DPH,#(`?<Constant "CO : ____ppm">` >> 8) & 0xff
   \   0002FD   7582..       MOV     DPL,#`?<Constant "CO : ____ppm">` & 0xff
   \   000300   740C         MOV     A,#0xc
   \   000302   12....       LCALL   ?MOVE_LONG8_XDATA_XDATA
    367                 CO_Output[5]=periodicData[14];
   \   000305   90....       MOV     DPTR,#periodicData + 14
   \   000308   E0           MOVX    A,@DPTR
   \   000309   C0E0         PUSH    A
   \   00030B   7428         MOV     A,#0x28
   \   00030D   12....       LCALL   ?XSTACK_DISP0_8
   \   000310   D0E0         POP     A
   \   000312   F0           MOVX    @DPTR,A
    368                 CO_Output[6]=periodicData[15];
   \   000313   90....       MOV     DPTR,#periodicData + 15
   \   000316   E0           MOVX    A,@DPTR
   \   000317   C0E0         PUSH    A
   \   000319   7429         MOV     A,#0x29
   \   00031B   12....       LCALL   ?XSTACK_DISP0_8
   \   00031E   D0E0         POP     A
   \   000320   F0           MOVX    @DPTR,A
    369                 CO_Output[7]=periodicData[16];
   \   000321   90....       MOV     DPTR,#periodicData + 16
   \   000324   E0           MOVX    A,@DPTR
   \   000325   C0E0         PUSH    A
   \   000327   742A         MOV     A,#0x2a
   \   000329   12....       LCALL   ?XSTACK_DISP0_8
   \   00032C   D0E0         POP     A
   \   00032E   F0           MOVX    @DPTR,A
    370                 CO_Output[8]=periodicData[17];
   \   00032F   90....       MOV     DPTR,#periodicData + 17
   \   000332   E0           MOVX    A,@DPTR
   \   000333   C0E0         PUSH    A
   \   000335   742B         MOV     A,#0x2b
   \   000337   12....       LCALL   ?XSTACK_DISP0_8
   \   00033A   D0E0         POP     A
   \   00033C   F0           MOVX    @DPTR,A
    371                  
    372              unsigned char CH2O_Output[11]="CH2O: __ppm";
   \   00033D   743C         MOV     A,#0x3c
   \   00033F   12....       LCALL   ?XSTACK_DISP0_8
   \   000342   AC82         MOV     R4,DPL
   \   000344   AD83         MOV     R5,DPH
   \   000346   7583..       MOV     DPH,#(`?<Constant "CH2O: __ppm">` >> 8) & 0xff
   \   000349   7582..       MOV     DPL,#`?<Constant "CH2O: __ppm">` & 0xff
   \   00034C   740B         MOV     A,#0xb
   \   00034E   12....       LCALL   ?MOVE_LONG8_XDATA_XDATA
    373                CH2O_Output[6]=periodicData[18];
   \   000351   90....       MOV     DPTR,#periodicData + 18
   \   000354   E0           MOVX    A,@DPTR
   \   000355   C0E0         PUSH    A
   \   000357   7442         MOV     A,#0x42
   \   000359   12....       LCALL   ?XSTACK_DISP0_8
   \   00035C   D0E0         POP     A
   \   00035E   F0           MOVX    @DPTR,A
    374                CH2O_Output[7]=periodicData[19];
   \   00035F   90....       MOV     DPTR,#periodicData + 19
   \   000362   E0           MOVX    A,@DPTR
   \   000363   C0E0         PUSH    A
   \   000365   7443         MOV     A,#0x43
   \   000367   12....       LCALL   ?XSTACK_DISP0_8
   \   00036A   D0E0         POP     A
   \   00036C   F0           MOVX    @DPTR,A
    375              
    376              unsigned char CH4_Output[12]="CH4: ____ppm";
   \   00036D   7417         MOV     A,#0x17
   \   00036F   12....       LCALL   ?XSTACK_DISP0_8
   \   000372   AC82         MOV     R4,DPL
   \   000374   AD83         MOV     R5,DPH
   \   000376   7583..       MOV     DPH,#(`?<Constant "CH4: ____ppm">` >> 8) & 0xff
   \   000379   7582..       MOV     DPL,#`?<Constant "CH4: ____ppm">` & 0xff
   \   00037C   740C         MOV     A,#0xc
   \   00037E   12....       LCALL   ?MOVE_LONG8_XDATA_XDATA
    377                 CH4_Output[5]=periodicData[20];
   \   000381   90....       MOV     DPTR,#periodicData + 20
   \   000384   E0           MOVX    A,@DPTR
   \   000385   C0E0         PUSH    A
   \   000387   741C         MOV     A,#0x1c
   \   000389   12....       LCALL   ?XSTACK_DISP0_8
   \   00038C   D0E0         POP     A
   \   00038E   F0           MOVX    @DPTR,A
    378                 CH4_Output[6]=periodicData[21];
   \   00038F   90....       MOV     DPTR,#periodicData + 21
   \   000392   E0           MOVX    A,@DPTR
   \   000393   C0E0         PUSH    A
   \   000395   741D         MOV     A,#0x1d
   \   000397   12....       LCALL   ?XSTACK_DISP0_8
   \   00039A   D0E0         POP     A
   \   00039C   F0           MOVX    @DPTR,A
    379                 CH4_Output[7]=periodicData[22];
   \   00039D   90....       MOV     DPTR,#periodicData + 22
   \   0003A0   E0           MOVX    A,@DPTR
   \   0003A1   C0E0         PUSH    A
   \   0003A3   741E         MOV     A,#0x1e
   \   0003A5   12....       LCALL   ?XSTACK_DISP0_8
   \   0003A8   D0E0         POP     A
   \   0003AA   F0           MOVX    @DPTR,A
    380                 CH4_Output[8]=periodicData[23];
   \   0003AB   90....       MOV     DPTR,#periodicData + 23
   \   0003AE   E0           MOVX    A,@DPTR
   \   0003AF   C0E0         PUSH    A
   \   0003B1   741F         MOV     A,#0x1f
   \   0003B3   12....       LCALL   ?XSTACK_DISP0_8
   \   0003B6   D0E0         POP     A
   \   0003B8   F0           MOVX    @DPTR,A
    381                  
    382              UartSendString(Temperature_Output,19);
   \   0003B9                ; Setup parameters for call to function UartSendString
   \   0003B9   7C13         MOV     R4,#0x13
   \   0003BB   7D00         MOV     R5,#0x0
   \   0003BD   7457         MOV     A,#0x57
   \   0003BF   12....       LCALL   ?XSTACK_DISP0_8
   \   0003C2   AA82         MOV     R2,DPL
   \   0003C4   AB83         MOV     R3,DPH
   \   0003C6   12....       LCALL   ??UartSendString?relay
    383              UartSendString(Humidity_Output,16);
   \   0003C9                ; Setup parameters for call to function UartSendString
   \   0003C9   7C10         MOV     R4,#0x10
   \   0003CB   7D00         MOV     R5,#0x0
   \   0003CD   7447         MOV     A,#0x47
   \   0003CF   12....       LCALL   ?XSTACK_DISP0_8
   \   0003D2   AA82         MOV     R2,DPL
   \   0003D4   AB83         MOV     R3,DPH
   \   0003D6   12....       LCALL   ??UartSendString?relay
    384              UartSendString(Dust_Output,19);
   \   0003D9                ; Setup parameters for call to function UartSendString
   \   0003D9   7C13         MOV     R4,#0x13
   \   0003DB   7D00         MOV     R5,#0x0
   \   0003DD   7404         MOV     A,#0x4
   \   0003DF   12....       LCALL   ?XSTACK_DISP0_8
   \   0003E2   AA82         MOV     R2,DPL
   \   0003E4   AB83         MOV     R3,DPH
   \   0003E6   12....       LCALL   ??UartSendString?relay
    385              UartSendString(CO2_Output,13);
   \   0003E9                ; Setup parameters for call to function UartSendString
   \   0003E9   7C0D         MOV     R4,#0xd
   \   0003EB   7D00         MOV     R5,#0x0
   \   0003ED   742F         MOV     A,#0x2f
   \   0003EF   12....       LCALL   ?XSTACK_DISP0_8
   \   0003F2   AA82         MOV     R2,DPL
   \   0003F4   AB83         MOV     R3,DPH
   \   0003F6   12....       LCALL   ??UartSendString?relay
    386              UartSendString(CO_Output,12);
   \   0003F9                ; Setup parameters for call to function UartSendString
   \   0003F9   7C0C         MOV     R4,#0xc
   \   0003FB   7D00         MOV     R5,#0x0
   \   0003FD   7423         MOV     A,#0x23
   \   0003FF   12....       LCALL   ?XSTACK_DISP0_8
   \   000402   AA82         MOV     R2,DPL
   \   000404   AB83         MOV     R3,DPH
   \   000406   12....       LCALL   ??UartSendString?relay
    387              UartSendString(CH2O_Output,11);
   \   000409                ; Setup parameters for call to function UartSendString
   \   000409   7C0B         MOV     R4,#0xb
   \   00040B   7D00         MOV     R5,#0x0
   \   00040D   743C         MOV     A,#0x3c
   \   00040F   12....       LCALL   ?XSTACK_DISP0_8
   \   000412   AA82         MOV     R2,DPL
   \   000414   AB83         MOV     R3,DPH
   \   000416   12....       LCALL   ??UartSendString?relay
    388              UartSendString(CH4_Output,12);
   \   000419                ; Setup parameters for call to function UartSendString
   \   000419   7C0C         MOV     R4,#0xc
   \   00041B   7D00         MOV     R5,#0x0
   \   00041D   7417         MOV     A,#0x17
   \   00041F   12....       LCALL   ?XSTACK_DISP0_8
   \   000422   AA82         MOV     R2,DPL
   \   000424   AB83         MOV     R3,DPH
   \   000426   12....       LCALL   ??UartSendString?relay
    389              UartSendString(periodicData,28);
   \   000429                ; Setup parameters for call to function UartSendString
   \   000429   7C1C         MOV     R4,#0x1c
   \   00042B   7D00         MOV     R5,#0x0
   \   00042D   7A..         MOV     R2,#periodicData & 0xff
   \   00042F   7B..         MOV     R3,#(periodicData >> 8) & 0xff
   \   000431   12....       LCALL   ??UartSendString?relay
    390              
    391                
    392                
    393              return (events ^ SEND_UART);
   \   000434   EE           MOV     A,R6
   \   000435   FA           MOV     R2,A
   \   000436   EF           MOV     A,R7
   \   000437   6440         XRL     A,#0x40
   \   000439   FB           MOV     R3,A
   \   00043A   8004         SJMP    ??SendUART_8
    394            }return 0;
   \                     ??SendUART_0:
   \   00043C   7A00         MOV     R2,#0x0
   \   00043E   7B00         MOV     R3,#0x0
   \                     ??SendUART_8:
   \   000440   746A         MOV     A,#0x6a
   \   000442   12....       LCALL   ?DEALLOC_XSTACK8
   \   000445   02....       LJMP    ?Subroutine1 & 0xFFFF
    395          }

   \                                 In  segment BANKED_CODE, align 1, keep-with-next
   \                     ?Subroutine35:
   \   000000   E8           MOV     A,R0
   \   000001                REQUIRE ??Subroutine42_0
   \   000001                ; // Fall through to label ??Subroutine42_0

   \                                 In  segment BANKED_CODE, align 1, keep-with-next
   \                     ?Subroutine22:
   \   000000   EA           MOV     A,R2
   \   000001   2430         ADD     A,#0x30
   \   000003   90....       MOV     DPTR,#MMchar + 26
   \   000006   F0           MOVX    @DPTR,A
   \   000007                ; Setup parameters for call to function UartSendString
   \   000007                ; Setup parameters for call to function UartSendString
   \   000007   7C21         MOV     R4,#0x21
   \   000009   7D00         MOV     R5,#0x0
   \   00000B   7A..         MOV     R2,#MMchar & 0xff
   \   00000D   7B..         MOV     R3,#(MMchar >> 8) & 0xff
   \   00000F   22           RET

   \                                 In  segment BANKED_CODE, align 1, keep-with-next
   \                     ?Subroutine17:
   \   000000   12....       LCALL   ?Subroutine35 & 0xFFFF
   \                     ??CrossCallReturnLabel_94:
   \   000003   90....       MOV     DPTR,#periodicData
   \   000006   E0           MOVX    A,@DPTR
   \   000007   90....       MOV     DPTR,#MMchar + 23
   \   00000A   F0           MOVX    @DPTR,A
   \   00000B   7A64         MOV     R2,#0x64
   \   00000D   7B00         MOV     R3,#0x0
   \   00000F   22           RET

   \                                 In  segment BANKED_CODE, align 1, keep-with-next
   \                     ?Subroutine16:
   \   000000   E0           MOVX    A,@DPTR
   \   000001   2401         ADD     A,#0x1
   \   000003   F8           MOV     R0,A
   \   000004   A3           INC     DPTR
   \   000005   E0           MOVX    A,@DPTR
   \   000006   3400         ADDC    A,#0x0
   \   000008   F9           MOV     R1,A
   \   000009   22           RET

   \                                 In  segment BANKED_CODE, align 1, keep-with-next
   \                     ?Subroutine10:
   \   000000   E0           MOVX    A,@DPTR
   \   000001   C3           CLR     C
   \   000002   98           SUBB    A,R0
   \   000003   F8           MOV     R0,A
   \   000004   A3           INC     DPTR
   \   000005   E0           MOVX    A,@DPTR
   \   000006   99           SUBB    A,R1
   \   000007   F9           MOV     R1,A
   \   000008   E8           MOV     A,R0
   \   000009   24FF         ADD     A,#-0x1
   \   00000B   18           DEC     R0
   \   00000C   E9           MOV     A,R1
   \   00000D   34FF         ADDC    A,#-0x1
   \   00000F   F9           MOV     R1,A
   \   000010   22           RET

   \                                 In  segment BANKED_CODE, align 1, keep-with-next
   \                     ?Subroutine5:
   \   000000   90....       MOV     DPTR,#periodicData + 26
   \   000003   E0           MOVX    A,@DPTR
   \   000004   FA           MOV     R2,A
   \   000005   90....       MOV     DPTR,#periodicData + 25
   \   000008   E0           MOVX    A,@DPTR
   \   000009   75F00A       MOV     B,#0xa
   \   00000C   A4           MUL     AB
   \   00000D   F8           MOV     R0,A
   \   00000E   A9F0         MOV     R1,B
   \   000010   EA           MOV     A,R2
   \   000011   28           ADD     A,R0
   \   000012   F8           MOV     R0,A
   \   000013   E4           CLR     A
   \   000014   39           ADDC    A,R1
   \   000015   F9           MOV     R1,A
   \   000016   90....       MOV     DPTR,#periodicData + 24
   \   000019   E0           MOVX    A,@DPTR
   \   00001A   75F064       MOV     B,#0x64
   \   00001D   A4           MUL     AB
   \   00001E   FA           MOV     R2,A
   \   00001F   ABF0         MOV     R3,B
   \   000021   E8           MOV     A,R0
   \   000022   2A           ADD     A,R2
   \   000023   F8           MOV     R0,A
   \   000024   E9           MOV     A,R1
   \   000025   3B           ADDC    A,R3
   \   000026   F9           MOV     R1,A
   \   000027   E8           MOV     A,R0
   \   000028   2430         ADD     A,#0x30
   \   00002A   F8           MOV     R0,A
   \   00002B   E9           MOV     A,R1
   \   00002C   34EB         ADDC    A,#-0x15
   \   00002E   F9           MOV     R1,A
   \   00002F   22           RET

   \                                 In  segment BANKED_CODE, align 1, keep-with-next
   \                     ?Subroutine18:
   \   000000   E0           MOVX    A,@DPTR
   \   000001   85..82       MOV     DPL,?XSP + 0
   \   000004   85..83       MOV     DPH,?XSP + 1
   \   000007   F0           MOVX    @DPTR,A
   \   000008   22           RET
    396          /*=====================================================*/
    397          
    398          
    399          
    400          /*************************************************************/
    401          /**********                            Take Value                         ************/
    402          /**********           when EndDevice , do this task.             ************/
    403          /**********              BackGround & ReadSensor               ************/

   \                                 In  segment BANKED_CODE, align 1, keep-with-next
    404          void TakeValueInit(uint8 task_id)
   \                     TakeValueInit:
    405          {
   \   000000   C082         PUSH    DPL
   \   000002   C083         PUSH    DPH
   \   000004                ; Saved register size: 2
   \   000004                ; Auto size: 0
    406              TakeValue_TaskID = task_id;
   \   000004   E9           MOV     A,R1
   \   000005   90....       MOV     DPTR,#TakeValue_TaskID
   \   000008   02....       LJMP    ?Subroutine0 & 0xFFFF
    407              
    408          }
    409          

   \                                 In  segment BANKED_CODE, align 1, keep-with-next
    410          uint16 TakeValue(uint8 taskid, uint16 events)
   \                     TakeValue:
    411          {
   \   000000   74F7         MOV     A,#-0x9
   \   000002   12....       LCALL   ?BANKED_ENTER_XDATA
   \   000005                ; Saved register size: 9
   \   000005                ; Auto size: 0
   \   000005   EA           MOV     A,R2
   \   000006   FE           MOV     R6,A
   \   000007   EB           MOV     A,R3
   \   000008   FF           MOV     R7,A
    412             if ( events & TAKE_VALUE)
   \   000009   5460         ANL     A,#0x60
   \   00000B   6048         JZ      ??TakeValue_0
    413             {    
    414                int i , k ;  
    415                for( i=0 ; i<5; i++) 
   \   00000D   75..05       MOV     ?V0 + 0,#0x5
    416                {
    417                    // HalLedBlink( HAL_LED_3, 1, 20, 40 );
    418                    SensorFunction();
   \                     ??TakeValue_1:
   \   000010                ; Setup parameters for call to function SensorFunction
   \   000010   12....       LCALL   ??SensorFunction?relay
    419                 //   asm("nop");asm("nop");asm("nop");asm("nop");asm("nop");
    420                }
   \   000013   15..         DEC     ?V0 + 0
   \   000015   E5..         MOV     A,?V0 + 0
   \   000017   70F7         JNZ     ??TakeValue_1
    421                for(k=0;k<24;k++)
   \   000019   7800         MOV     R0,#0x0
   \   00001B   7900         MOV     R1,#0x0
    422                {
    423                    SEND_DATA[k]=ReadData(k);
   \                     ??TakeValue_2:
   \   00001D   74..         MOV     A,#SensorsData & 0xff
   \   00001F   28           ADD     A,R0
   \   000020   F582         MOV     DPL,A
   \   000022   74..         MOV     A,#(SensorsData >> 8) & 0xff
   \   000024   39           ADDC    A,R1
   \   000025   F583         MOV     DPH,A
   \   000027   E0           MOVX    A,@DPTR
   \   000028   C0E0         PUSH    A
   \   00002A   74..         MOV     A,#SEND_DATA & 0xff
   \   00002C   28           ADD     A,R0
   \   00002D   F582         MOV     DPL,A
   \   00002F   74..         MOV     A,#(SEND_DATA >> 8) & 0xff
   \   000031   39           ADDC    A,R1
   \   000032   F583         MOV     DPH,A
   \   000034   D0E0         POP     A
   \   000036   F0           MOVX    @DPTR,A
   \   000037   E8           MOV     A,R0
   \   000038   2401         ADD     A,#0x1
   \   00003A   08           INC     R0
   \   00003B   E9           MOV     A,R1
   \   00003C   3400         ADDC    A,#0x0
   \   00003E   F9           MOV     R1,A
   \   00003F   C3           CLR     C
   \   000040   E8           MOV     A,R0
   \   000041   9418         SUBB    A,#0x18
   \   000043   E9           MOV     A,R1
   \   000044   9400         SUBB    A,#0x0
   \   000046   A2D2         MOV     C,0xD0 /* PSW */.2
   \   000048   65D0         XRL     A,PSW
   \   00004A   33           RLC     A
   \   00004B   40D0         JC      ??TakeValue_2
    424                }   return (events ^TAKE_VALUE) ; 
   \   00004D   EE           MOV     A,R6
   \   00004E   FA           MOV     R2,A
   \   00004F   EF           MOV     A,R7
   \   000050   6460         XRL     A,#0x60
   \   000052   FB           MOV     R3,A
   \   000053   8004         SJMP    ??TakeValue_3
    425             }  return 0;
   \                     ??TakeValue_0:
   \   000055   7A00         MOV     R2,#0x0
   \   000057   7B00         MOV     R3,#0x0
   \                     ??TakeValue_3:
   \   000059   02....       LJMP    ?Subroutine1 & 0xFFFF
    426          }
    427          /*=====================================================*/
    428          
    429          
    430          
    431          /*********************************************************************
    432           * @fn      SampleApp_ProcessEvent
    433           *
    434           * @brief   Generic Application Task event processor.  This function
    435           *          is called to process all events for the task.  Events
    436           *          include timers, messages and any other user defined events.
    437           *
    438           * @param   task_id  - The OSAL assigned task ID.
    439           * @param   events - events to process.  This is a bit map and can
    440           *                   contain more than one event.
    441           *
    442           * @return  none
    443           */

   \                                 In  segment BANKED_CODE, align 1, keep-with-next
    444          uint16 SampleApp_ProcessEvent( uint8 task_id, uint16 events )
   \                     SampleApp_ProcessEvent:
    445          {
   \   000000   74F4         MOV     A,#-0xc
   \   000002   12....       LCALL   ?BANKED_ENTER_XDATA
   \   000005                ; Saved register size: 12
   \   000005                ; Auto size: 0
   \   000005   EA           MOV     A,R2
   \   000006   FE           MOV     R6,A
   \   000007   EB           MOV     A,R3
   \   000008   FF           MOV     R7,A
    446            afIncomingMSGPacket_t *MSGpkt;
    447            (void)task_id;  // Intentionally unreferenced parameter
    448           
    449            
    450            if ( events & SYS_EVENT_MSG )
   \   000009   5480         ANL     A,#0x80
   \   00000B   607F         JZ      ??SampleApp_ProcessEvent_0
    451            { 
    452              MSGpkt = (afIncomingMSGPacket_t *)osal_msg_receive( SampleApp_TaskID );
   \   00000D                ; Setup parameters for call to function osal_msg_receive
   \   00000D   8026         SJMP    ??SampleApp_ProcessEvent_1
    453              while ( MSGpkt )
    454              {
    455                switch ( MSGpkt->hdr.event )
    456                {        
    457                  // Received when a key is pressed
    458                  case KEY_CHANGE:
    459                    SampleApp_HandleKeys( ((keyChange_t *)MSGpkt)->state, ((keyChange_t *)MSGpkt)->keys );
    460                    break;
    461          
    462                  // Received when a messages is received (OTA) for this endpoint
    463                  case AF_INCOMING_MSG_CMD:
    464                    
    465                    SampleApp_MessageMSGCB( MSGpkt );
    466                    osal_set_event( SendUART_TaskID, SEND_UART );
    467                    
    468                    break;
    469          
    470                  // Received whenever the device changes state in the network
    471                  case ZDO_STATE_CHANGE:
    472                    SampleApp_NwkState = (devStates_t)(MSGpkt->hdr.status);
   \                     ??SampleApp_ProcessEvent_2:
   \   00000F   A3           INC     DPTR
   \   000010   E0           MOVX    A,@DPTR
   \   000011   90....       MOV     DPTR,#SampleApp_NwkState
   \   000014   F0           MOVX    @DPTR,A
    473                    if ( //(SampleApp_NwkState == DEV_ZB_COORD) ||
    474                           (SampleApp_NwkState == DEV_ROUTER)
    475                        || (SampleApp_NwkState == DEV_END_DEVICE) )
   \   000015   6407         XRL     A,#0x7
   \   000017   6005         JZ      ??SampleApp_ProcessEvent_3
   \   000019   E0           MOVX    A,@DPTR
   \   00001A   6406         XRL     A,#0x6
   \   00001C   7010         JNZ     ??SampleApp_ProcessEvent_4
    476                    {
    477                      // Start sending the periodic message in a regular interval.
    478                      osal_start_timerEx( SampleApp_TaskID,
    479                                        SAMPLEAPP_SEND_PERIODIC_MSG_EVT,
    480                                        SAMPLEAPP_SEND_PERIODIC_MSG_TIMEOUT );
   \                     ??SampleApp_ProcessEvent_3:
   \   00001E                ; Setup parameters for call to function osal_start_timerEx
   \   00001E   7CE8         MOV     R4,#-0x18
   \   000020   7D03         MOV     R5,#0x3
   \   000022   7A01         MOV     R2,#0x1
   \   000024   7B00         MOV     R3,#0x0
   \   000026   90....       MOV     DPTR,#SampleApp_TaskID
   \   000029   E0           MOVX    A,@DPTR
   \   00002A   F9           MOV     R1,A
   \   00002B   12....       LCALL   ??osal_start_timerEx?relay
    481                    }
    482                    else
    483                    {
    484                      // Device is no longer in the network
    485                    }
    486                    break;
    487          
    488                  default:
    489                    break;
    490                }
    491          
    492                // Release the memory
    493                osal_msg_deallocate( (uint8 *)MSGpkt );
   \                     ??SampleApp_ProcessEvent_4:
   \   00002E                ; Setup parameters for call to function osal_msg_deallocate
   \   00002E   AA..         MOV     R2,?V0 + 0
   \   000030   AB..         MOV     R3,?V0 + 1
   \   000032   12....       LCALL   ??osal_msg_deallocate?relay
    494          
    495                // Next - if one is available
    496                MSGpkt = (afIncomingMSGPacket_t *)osal_msg_receive( SampleApp_TaskID );
   \   000035                ; Setup parameters for call to function osal_msg_receive
   \                     ??SampleApp_ProcessEvent_1:
   \   000035   90....       MOV     DPTR,#SampleApp_TaskID
   \   000038   E0           MOVX    A,@DPTR
   \   000039   F9           MOV     R1,A
   \   00003A   12....       LCALL   ??osal_msg_receive?relay
   \   00003D   8A..         MOV     ?V0 + 0,R2
   \   00003F   8B..         MOV     ?V0 + 1,R3
   \   000041   E5..         MOV     A,?V0 + 0
   \   000043   45..         ORL     A,?V0 + 1
   \   000045   603E         JZ      ??SampleApp_ProcessEvent_5
   \   000047   85..82       MOV     DPL,?V0 + 0
   \   00004A   85..83       MOV     DPH,?V0 + 1
   \   00004D   E0           MOVX    A,@DPTR
   \   00004E   24E6         ADD     A,#-0x1a
   \   000050   601E         JZ      ??SampleApp_ProcessEvent_6
   \   000052   245A         ADD     A,#0x5a
   \   000054   6006         JZ      ??SampleApp_ProcessEvent_7
   \   000056   24EF         ADD     A,#-0x11
   \   000058   60B5         JZ      ??SampleApp_ProcessEvent_2
   \   00005A   80D2         SJMP    ??SampleApp_ProcessEvent_4
   \                     ??SampleApp_ProcessEvent_7:
   \   00005C                ; Setup parameters for call to function SampleApp_HandleKeys
   \   00005C   A3           INC     DPTR
   \   00005D   A3           INC     DPTR
   \   00005E   A3           INC     DPTR
   \   00005F   E0           MOVX    A,@DPTR
   \   000060   FA           MOV     R2,A
   \   000061   85..82       MOV     DPL,?V0 + 0
   \   000064   85..83       MOV     DPH,?V0 + 1
   \   000067   A3           INC     DPTR
   \   000068   A3           INC     DPTR
   \   000069   E0           MOVX    A,@DPTR
   \   00006A   F9           MOV     R1,A
   \   00006B   12....       LCALL   ??SampleApp_HandleKeys?relay
   \   00006E   80BE         SJMP    ??SampleApp_ProcessEvent_4
   \                     ??SampleApp_ProcessEvent_6:
   \   000070                ; Setup parameters for call to function SampleApp_MessageMSGCB
   \   000070   AA..         MOV     R2,?V0 + 0
   \   000072   AB..         MOV     R3,?V0 + 1
   \   000074   12....       LCALL   ??SampleApp_MessageMSGCB?relay
   \   000077                ; Setup parameters for call to function osal_set_event
   \   000077   7A00         MOV     R2,#0x0
   \   000079   7B40         MOV     R3,#0x40
   \   00007B   90....       MOV     DPTR,#SendUART_TaskID
   \   00007E   E0           MOVX    A,@DPTR
   \   00007F   F9           MOV     R1,A
   \   000080   12....       LCALL   ??osal_set_event?relay
   \   000083   80A9         SJMP    ??SampleApp_ProcessEvent_4
    497              }
    498          
    499              // return unprocessed events
    500              return (events ^ SYS_EVENT_MSG);  // 
   \                     ??SampleApp_ProcessEvent_5:
   \   000085   EE           MOV     A,R6
   \   000086   FA           MOV     R2,A
   \   000087   EF           MOV     A,R7
   \   000088   6480         XRL     A,#0x80
   \   00008A   8030         SJMP    ??SampleApp_ProcessEvent_8
    501            }
    502          
    503            // Send a message out - This event is generated by a timer
    504            //  (setup in SampleApp_Init()).
    505            if ( events & SAMPLEAPP_SEND_PERIODIC_MSG_EVT )
   \                     ??SampleApp_ProcessEvent_0:
   \   00008C   EE           MOV     A,R6
   \   00008D   A2E0         MOV     C,0xE0 /* A   */.0
   \   00008F   7A00         MOV     R2,#0x0
   \   000091   502C         JNC     ??SampleApp_ProcessEvent_9
    506            { 
    507              osal_set_event( TakeValue_TaskID, TAKE_VALUE );
   \   000093                ; Setup parameters for call to function osal_set_event
   \   000093   7B60         MOV     R3,#0x60
   \   000095   90....       MOV     DPTR,#TakeValue_TaskID
   \   000098   E0           MOVX    A,@DPTR
   \   000099   F9           MOV     R1,A
   \   00009A   12....       LCALL   ??osal_set_event?relay
    508              // Send the periodic message
    509              //SampleApp_SendPeriodicMessage();
    510              SampleApp_Send_P2P_Message();
   \   00009D                ; Setup parameters for call to function SampleApp_Send_P2P_Message
   \   00009D   12....       LCALL   ??SampleApp_Send_P2P_Message?relay
    511              
    512              
    513              // Setup to send message again in normal period (+ a little jitter)
    514              osal_start_timerEx( SampleApp_TaskID, SAMPLEAPP_SEND_PERIODIC_MSG_EVT,
    515                  (SAMPLEAPP_SEND_PERIODIC_MSG_TIMEOUT + (osal_rand() & 0x00FF)) );
   \   0000A0                ; Setup parameters for call to function osal_rand
   \   0000A0   12....       LCALL   ??osal_rand?relay
   \   0000A3                ; Setup parameters for call to function osal_start_timerEx
   \   0000A3   EA           MOV     A,R2
   \   0000A4   24E8         ADD     A,#-0x18
   \   0000A6   FC           MOV     R4,A
   \   0000A7   E4           CLR     A
   \   0000A8   3403         ADDC    A,#0x3
   \   0000AA   FD           MOV     R5,A
   \   0000AB   7A01         MOV     R2,#0x1
   \   0000AD   7B00         MOV     R3,#0x0
   \   0000AF   90....       MOV     DPTR,#SampleApp_TaskID
   \   0000B2   E0           MOVX    A,@DPTR
   \   0000B3   F9           MOV     R1,A
   \   0000B4   12....       LCALL   ??osal_start_timerEx?relay
    516              
    517              // return unprocessed events
    518              return (events ^ SAMPLEAPP_SEND_PERIODIC_MSG_EVT);              // 
   \   0000B7   EE           MOV     A,R6
   \   0000B8   6401         XRL     A,#0x1
   \   0000BA   FA           MOV     R2,A
   \   0000BB   EF           MOV     A,R7
   \                     ??SampleApp_ProcessEvent_8:
   \   0000BC   FB           MOV     R3,A
   \   0000BD   8002         SJMP    ??SampleApp_ProcessEvent_10
    519            }
    520          
    521            // Discard unknown events
    522            return 0;
   \                     ??SampleApp_ProcessEvent_9:
   \   0000BF   7B00         MOV     R3,#0x0
   \                     ??SampleApp_ProcessEvent_10:
   \   0000C1   7F04         MOV     R7,#0x4
   \   0000C3   02....       LJMP    ?BANKED_LEAVE_XDATA
    523          }
    524          
    525          /*********************************************************************
    526           * Event Generation Functions
    527           */
    528          /*********************************************************************
    529           * @fn      SampleApp_HandleKeys
    530           *
    531           * @brief   Handles all key events for this device.
    532           *
    533           * @param   shift - true if in shift/alt.
    534           * @param   keys - bit field for key events. Valid entries:
    535           *                 HAL_KEY_SW_2
    536           *                 HAL_KEY_SW_1
    537           *
    538           * @return  none
    539           */

   \                                 In  segment BANKED_CODE, align 1, keep-with-next
    540          void SampleApp_HandleKeys( uint8 shift, uint8 keys )
   \                     SampleApp_HandleKeys:
    541          {
   \   000000   74F6         MOV     A,#-0xa
   \   000002   12....       LCALL   ?BANKED_ENTER_XDATA
   \   000005                ; Saved register size: 10
   \   000005                ; Auto size: 0
   \   000005   EA           MOV     A,R2
   \   000006   FE           MOV     R6,A
    542            (void)shift;  // Intentionally unreferenced parameter
    543            
    544            if ( keys & HAL_KEY_SW_6 )
   \   000007   A2E5         MOV     C,0xE0 /* A   */.5
   \   000009   5007         JNC     ??SampleApp_HandleKeys_0
    545            {
    546              /* This key sends the Flash Command is sent to Group 1.
    547               * This device will not receive the Flash Command from this
    548               * device (even if it belongs to group 1).
    549               */
    550              SampleApp_SendFlashMessage( SAMPLEAPP_FLASH_DURATION );
   \   00000B                ; Setup parameters for call to function SampleApp_SendFlashMessage
   \   00000B   7AE8         MOV     R2,#-0x18
   \   00000D   7B03         MOV     R3,#0x3
   \   00000F   12....       LCALL   ??SampleApp_SendFlashMessage?relay
    551            }
    552          
    553            if ( keys & HAL_KEY_SW_2 )
   \                     ??SampleApp_HandleKeys_0:
   \   000012   EE           MOV     A,R6
   \   000013   A2E1         MOV     C,0xE0 /* A   */.1
   \   000015   5024         JNC     ??SampleApp_HandleKeys_1
    554            {
    555              /* The Flashr Command is sent to Group 1.
    556               * This key toggles this device in and out of group 1.
    557               * If this device doesn't belong to group 1, this application
    558               * will not receive the Flash command sent to group 1.
    559               */
    560              aps_Group_t *grp;
    561              grp = aps_FindGroup( SAMPLEAPP_ENDPOINT, SAMPLEAPP_FLASH_GROUP );
    562              if ( grp )
   \   000017                ; Setup parameters for call to function aps_FindGroup
   \   000017   7A01         MOV     R2,#0x1
   \   000019   7B00         MOV     R3,#0x0
   \   00001B   7914         MOV     R1,#0x14
   \   00001D   12....       LCALL   ??aps_FindGroup?relay
   \   000020   8B..         MOV     ?V0 + 1,R3
   \   000022   EA           MOV     A,R2
   \   000023   45..         ORL     A,?V0 + 1
   \   000025   600B         JZ      ??SampleApp_HandleKeys_2
    563              {
    564                // Remove from the group
    565                aps_RemoveGroup( SAMPLEAPP_ENDPOINT, SAMPLEAPP_FLASH_GROUP );
   \   000027                ; Setup parameters for call to function aps_RemoveGroup
   \   000027   7A01         MOV     R2,#0x1
   \   000029   7B00         MOV     R3,#0x0
   \   00002B   7914         MOV     R1,#0x14
   \   00002D   12....       LCALL   ??aps_RemoveGroup?relay
   \   000030   8009         SJMP    ??SampleApp_HandleKeys_1
    566              }
    567              else
    568              {
    569                // Add to the flash group
    570                aps_AddGroup( SAMPLEAPP_ENDPOINT, &SampleApp_Group );
   \                     ??SampleApp_HandleKeys_2:
   \   000032                ; Setup parameters for call to function aps_AddGroup
   \   000032   7A..         MOV     R2,#SampleApp_Group & 0xff
   \   000034   7B..         MOV     R3,#(SampleApp_Group >> 8) & 0xff
   \   000036   7914         MOV     R1,#0x14
   \   000038   12....       LCALL   ??aps_AddGroup?relay
    571              }
    572            }
    573          }
   \                     ??SampleApp_HandleKeys_1:
   \   00003B   02....       LJMP    ?Subroutine2 & 0xFFFF

   \                                 In  segment XDATA_Z, align 1, keep-with-next
    574          int LedState=0;
   \                     LedState:
   \   000000                DS 2
   \   000002                REQUIRE __INIT_XDATA_Z
    575          /*********************************************************************
    576           * LOCAL FUNCTIONS
    577           */
    578          
    579          /*********************************************************************
    580           * @fn      SampleApp_MessageMSGCB
    581           *
    582           * @brief   Data message processor callback.  This function processes
    583           *          any incoming data - probably from other devices.  So, based
    584           *          on cluster ID, perform the intended action.
    585           *
    586           * @param   none
    587           *
    588           * @return  none
    589           */

   \                                 In  segment BANKED_CODE, align 1, keep-with-next
    590          void SampleApp_MessageMSGCB( afIncomingMSGPacket_t *pkt ) //±µ¦¬¼Æ¾Ú
   \                     SampleApp_MessageMSGCB:
    591          {
   \   000000   74F5         MOV     A,#-0xb
   \   000002   12....       LCALL   ?BANKED_ENTER_XDATA
   \   000005                ; Saved register size: 11
   \   000005                ; Auto size: 0
    592           // uint16 flashTime;
    593            
    594            switch ( pkt->clusterId )
   \   000005   8A82         MOV     DPL,R2
   \   000007   8B83         MOV     DPH,R3
   \   000009   A3           INC     DPTR
   \   00000A   A3           INC     DPTR
   \   00000B   A3           INC     DPTR
   \   00000C   A3           INC     DPTR
   \   00000D   E0           MOVX    A,@DPTR
   \   00000E   F5..         MOV     ?V0 + 0,A
   \   000010   A3           INC     DPTR
   \   000011   E0           MOVX    A,@DPTR
   \   000012   F5..         MOV     ?V0 + 1,A
   \   000014   78..         MOV     R0,#?V0 + 0
   \   000016   12....       LCALL   ?US_SWITCH_DENSE
   \                     `?<Jumptable for SampleApp_MessageMSGCB>_0`:
   \   000019   0100         DW        1
   \   00001B   02           DB        2
   \   00001C   ....         DW        ??SampleApp_MessageMSGCB_0
   \   00001E   ....         DW        ??SampleApp_MessageMSGCB_1
   \   000020   ....         DW        ??SampleApp_MessageMSGCB_2
   \   000022   ....         DW        ??SampleApp_MessageMSGCB_1
    595            {
    596              
    597              case SAMPLEAPP_P2P_CLUSTERID:
    598                osal_memcpy(periodicData, pkt->cmd.Data, 27);
    599                LedState=LedState+1;
    600                if(LedState == 1)
    601                   HalLedSet(HAL_LED_3, HAL_LED_MODE_ON);
    602                else if(LedState == 2)
    603                   {HalLedSet(HAL_LED_3, HAL_LED_MODE_OFF);
    604                    LedState=0;}
    605                break;
    606          
    607              case SAMPLEAPP_PERIODIC_CLUSTERID:
    608                // osal_memset(periodicData, 0 , 15);
    609                osal_memcpy(periodicData, pkt->cmd.Data, 27);
   \                     ??SampleApp_MessageMSGCB_1:
   \   000024                ; Setup parameters for call to function osal_memcpy
   \   000024   EA           MOV     A,R2
   \   000025   2422         ADD     A,#0x22
   \   000027   F582         MOV     DPL,A
   \   000029   EB           MOV     A,R3
   \   00002A   3400         ADDC    A,#0x0
   \   00002C   F583         MOV     DPH,A
   \   00002E   E0           MOVX    A,@DPTR
   \   00002F   F5..         MOV     ?V0 + 0,A
   \   000031   A3           INC     DPTR
   \   000032   E0           MOVX    A,@DPTR
   \   000033   F5..         MOV     ?V0 + 1,A
   \   000035   75..00       MOV     ?V0 + 2,#0x0
   \   000038   78..         MOV     R0,#?V0 + 0
   \   00003A   12....       LCALL   ?PUSH_XSTACK_I_THREE
   \   00003D   7C1B         MOV     R4,#0x1b
   \   00003F   7D00         MOV     R5,#0x0
   \   000041   7A..         MOV     R2,#periodicData & 0xff
   \   000043   7B..         MOV     R3,#(periodicData >> 8) & 0xff
   \   000045   12....       LCALL   ??osal_memcpy?relay
   \   000048   7403         MOV     A,#0x3
   \   00004A   12....       LCALL   ?DEALLOC_XSTACK8
    610                
    611                 LedState=LedState+1;
   \   00004D   90....       MOV     DPTR,#LedState
   \   000050   12....       LCALL   ?Subroutine14 & 0xFFFF
    612                // HalUARTWrite(0, "Rx:", 3);        //´£¥Ü«H®§
    613                // HalUARTWrite(0, pkt->cmd.Data, pkt->cmd.DataLength); //¿é¥X±µ¦¬¨ìªº¼Æ¾Ú
    614                // HalUARTWrite(0, "\n", 1);         //°j¨®´«¦æ
    615             
    616                  if(LedState == 1)
   \                     ??CrossCallReturnLabel_26:
   \   000053   90....       MOV     DPTR,#LedState
   \   000056   E0           MOVX    A,@DPTR
   \   000057   6401         XRL     A,#0x1
   \   000059   7002         JNZ     ??SampleApp_MessageMSGCB_3
   \   00005B   A3           INC     DPTR
   \   00005C   E0           MOVX    A,@DPTR
   \                     ??SampleApp_MessageMSGCB_3:
   \   00005D   7009         JNZ     ??SampleApp_MessageMSGCB_4
    617                   HalLedSet(HAL_LED_3, HAL_LED_MODE_ON);
   \   00005F                ; Setup parameters for call to function HalLedSet
   \   00005F   7A01         MOV     R2,#0x1
   \   000061   7904         MOV     R1,#0x4
   \   000063   12....       LCALL   ??HalLedSet?relay
   \   000066   8029         SJMP    ??SampleApp_MessageMSGCB_0
    618                  else if(LedState == 2)
   \                     ??SampleApp_MessageMSGCB_4:
   \   000068   90....       MOV     DPTR,#LedState
   \   00006B   E0           MOVX    A,@DPTR
   \   00006C   6402         XRL     A,#0x2
   \   00006E   7002         JNZ     ??SampleApp_MessageMSGCB_5
   \   000070   A3           INC     DPTR
   \   000071   E0           MOVX    A,@DPTR
   \                     ??SampleApp_MessageMSGCB_5:
   \   000072   701D         JNZ     ??SampleApp_MessageMSGCB_0
    619                   {HalLedSet(HAL_LED_3, HAL_LED_MODE_OFF);
   \   000074                ; Setup parameters for call to function HalLedSet
   \   000074   7A00         MOV     R2,#0x0
   \   000076   7904         MOV     R1,#0x4
   \   000078   12....       LCALL   ??HalLedSet?relay
    620                    LedState=0;}
   \   00007B   90....       MOV     DPTR,#LedState
   \   00007E   E4           CLR     A
   \   00007F   F0           MOVX    @DPTR,A
   \   000080   A3           INC     DPTR
   \   000081   F0           MOVX    @DPTR,A
   \   000082   800D         SJMP    ??SampleApp_MessageMSGCB_0
    621                break;
    622          
    623              case SAMPLEAPP_FLASH_CLUSTERID:     //¦¹¹êÅç¨S¦³¨Ï¥Î¡A¨ì«á­±¹êÅç¸Ô¸Ñ
    624              //   flashTime = BUILD_UINT16(pkt->cmd.Data[1], pkt->cmd.Data[2] );
    625                 HalLedBlink( HAL_LED_3, 2, 25 ,100 );
   \                     ??SampleApp_MessageMSGCB_2:
   \   000084                ; Setup parameters for call to function HalLedBlink
   \   000084   7C64         MOV     R4,#0x64
   \   000086   7D00         MOV     R5,#0x0
   \   000088   7B19         MOV     R3,#0x19
   \   00008A   7A02         MOV     R2,#0x2
   \   00008C   7904         MOV     R1,#0x4
   \   00008E   12....       LCALL   ??HalLedBlink?relay
    626                 break;
    627            }
    628          }
   \                     ??SampleApp_MessageMSGCB_0:
   \   000091   02....       LJMP    ?Subroutine4 & 0xFFFF
    629          
    630          
    631          /*********************************************************************
    632           * @fn      SampleApp_SendPeriodicMessage
    633           *
    634           * @brief   Send the periodic message.
    635           *
    636           * @param   none
    637           *
    638           * @return  none
    639           */

   \                                 In  segment BANKED_CODE, align 1, keep-with-next
    640          void SampleApp_SendPeriodicMessage( void )
   \                     SampleApp_SendPeriodicMessage:
    641          { 
   \   000000   74F6         MOV     A,#-0xa
   \   000002   12....       LCALL   ?BANKED_ENTER_XDATA
   \   000005                ; Saved register size: 10
   \   000005                ; Auto size: 0
    642            LedState = LedState+1 ;
   \   000005   12....       LCALL   ?Subroutine13 & 0xFFFF
    643            //unsigned char data[15]= "F3332221114444";
    644            SEND_DATA[0] = 0x31;      // ROOM1 SESOR KEY
   \                     ??CrossCallReturnLabel_19:
   \   000008   7431         MOV     A,#0x31
   \   00000A   12....       LCALL   ?Subroutine23 & 0xFFFF
    645            
    646            CNT[2]=CNT[2]+1;
    647               if( CNT[2] == 0x3A)
   \                     ??CrossCallReturnLabel_37:
   \   00000D   7005         JNZ     ??SampleApp_SendPeriodicMessage_0
    648               {
    649                   CNT[2] = 0x30;
   \   00000F   12....       LCALL   ?Subroutine24 & 0xFFFF
    650                   CNT[1] = CNT[1] + 1 ;  
    651               }
   \                     ??CrossCallReturnLabel_109:
   \   000012   04           INC     A
   \   000013   F0           MOVX    @DPTR,A
    652               if( CNT[1] == 0x3A)
   \                     ??SampleApp_SendPeriodicMessage_0:
   \   000014   90....       MOV     DPTR,#CNT + 1
   \   000017   E0           MOVX    A,@DPTR
   \   000018   643A         XRL     A,#0x3a
   \   00001A   7009         JNZ     ??SampleApp_SendPeriodicMessage_1
    653                {
    654                    CNT[1] = 0x30;
   \   00001C   7430         MOV     A,#0x30
   \   00001E   F0           MOVX    @DPTR,A
    655                    CNT[0] = CNT[0] + 1 ;  
   \   00001F   90....       MOV     DPTR,#CNT
   \   000022   E0           MOVX    A,@DPTR
   \   000023   04           INC     A
   \   000024   F0           MOVX    @DPTR,A
    656                }
    657               if( CNT[0] == 0x3A)
   \                     ??SampleApp_SendPeriodicMessage_1:
   \   000025   90....       MOV     DPTR,#CNT
   \   000028   E0           MOVX    A,@DPTR
   \   000029   643A         XRL     A,#0x3a
   \   00002B   7003         JNZ     ??SampleApp_SendPeriodicMessage_2
    658                {
    659                    CNT[0] = 0x30;
   \   00002D   7430         MOV     A,#0x30
   \   00002F   F0           MOVX    @DPTR,A
    660                }
    661            SEND_DATA[14]=0x41;
   \                     ??SampleApp_SendPeriodicMessage_2:
   \   000030   90....       MOV     DPTR,#SEND_DATA + 14
   \   000033   7441         MOV     A,#0x41
   \   000035   F0           MOVX    @DPTR,A
    662            SEND_DATA[15]=CNT[0];
   \   000036   90....       MOV     DPTR,#CNT
   \   000039   E0           MOVX    A,@DPTR
   \   00003A   90....       MOV     DPTR,#SEND_DATA + 15
   \   00003D   12....       LCALL   ??Subroutine44_0 & 0xFFFF
    663            SEND_DATA[16]=CNT[1];
   \                     ??CrossCallReturnLabel_111:
   \   000040   90....       MOV     DPTR,#SEND_DATA + 16
   \   000043   F0           MOVX    @DPTR,A
    664            SEND_DATA[17]=CNT[2];
   \   000044   90....       MOV     DPTR,#CNT + 2
   \   000047   E0           MOVX    A,@DPTR
   \   000048   90....       MOV     DPTR,#SEND_DATA + 17
   \   00004B   12....       LCALL   ?Subroutine25 & 0xFFFF
    665            
    666            if ( AF_DataRequest( &SampleApp_Periodic_DstAddr, &SampleApp_epDesc,
    667                                 SAMPLEAPP_PERIODIC_CLUSTERID,
    668                                 27,
    669                                 SEND_DATA,
    670                                 &SampleApp_TransID,
    671                                 AF_DISCV_ROUTE,
    672                                 AF_DEFAULT_RADIUS ) == afStatus_SUCCESS )
   \                     ??CrossCallReturnLabel_39:
   \   00004E   12....       LCALL   ?PUSH_XSTACK_I_ONE
   \   000051   75....       MOV     ?V0 + 0,#SampleApp_TransID & 0xff
   \   000054   75....       MOV     ?V0 + 1,#(SampleApp_TransID >> 8) & 0xff
   \   000057   78..         MOV     R0,#?V0 + 0
   \   000059   12....       LCALL   ?PUSH_XSTACK_I_TWO
   \   00005C   75....       MOV     ?V0 + 0,#SEND_DATA & 0xff
   \   00005F   75....       MOV     ?V0 + 1,#(SEND_DATA >> 8) & 0xff
   \   000062   78..         MOV     R0,#?V0 + 0
   \   000064   12....       LCALL   ?PUSH_XSTACK_I_TWO
   \   000067   75..1B       MOV     ?V0 + 0,#0x1b
   \   00006A   75..00       MOV     ?V0 + 1,#0x0
   \   00006D   78..         MOV     R0,#?V0 + 0
   \   00006F   12....       LCALL   ?PUSH_XSTACK_I_TWO
   \   000072   75..01       MOV     ?V0 + 0,#0x1
   \   000075   78..         MOV     R0,#?V0 + 0
   \   000077   12....       LCALL   ?PUSH_XSTACK_I_TWO
   \   00007A   7920         MOV     R1,#0x20
   \   00007C   7C..         MOV     R4,#SampleApp_epDesc & 0xff
   \   00007E   7D..         MOV     R5,#(SampleApp_epDesc >> 8) & 0xff
   \   000080   7A..         MOV     R2,#SampleApp_Periodic_DstAddr & 0xff
   \   000082   7B..         MOV     R3,#(SampleApp_Periodic_DstAddr >> 8) & 0xff
   \   000084   12....       LCALL   ??AF_DataRequest?relay
   \   000087   7409         MOV     A,#0x9
   \   000089   12....       LCALL   ?DEALLOC_XSTACK8
   \   00008C   E9           MOV     A,R1
   \   00008D   702F         JNZ     ??SampleApp_SendPeriodicMessage_3
    673            {
    674              if(LedState == 1)
   \   00008F   90....       MOV     DPTR,#LedState
   \   000092   E0           MOVX    A,@DPTR
   \   000093   6401         XRL     A,#0x1
   \   000095   7002         JNZ     ??SampleApp_SendPeriodicMessage_4
   \   000097   A3           INC     DPTR
   \   000098   E0           MOVX    A,@DPTR
   \                     ??SampleApp_SendPeriodicMessage_4:
   \   000099   7009         JNZ     ??SampleApp_SendPeriodicMessage_5
    675                HalLedSet(HAL_LED_3, HAL_LED_MODE_ON);
   \   00009B                ; Setup parameters for call to function HalLedSet
   \   00009B   7A01         MOV     R2,#0x1
   \   00009D   7904         MOV     R1,#0x4
   \   00009F   12....       LCALL   ??HalLedSet?relay
   \   0000A2   801A         SJMP    ??SampleApp_SendPeriodicMessage_3
    676              else if(LedState == 2)
   \                     ??SampleApp_SendPeriodicMessage_5:
   \   0000A4   90....       MOV     DPTR,#LedState
   \   0000A7   E0           MOVX    A,@DPTR
   \   0000A8   6402         XRL     A,#0x2
   \   0000AA   7002         JNZ     ??SampleApp_SendPeriodicMessage_6
   \   0000AC   A3           INC     DPTR
   \   0000AD   E0           MOVX    A,@DPTR
   \                     ??SampleApp_SendPeriodicMessage_6:
   \   0000AE   700E         JNZ     ??SampleApp_SendPeriodicMessage_3
    677              {HalLedSet(HAL_LED_3, HAL_LED_MODE_OFF);
   \   0000B0                ; Setup parameters for call to function HalLedSet
   \   0000B0   7A00         MOV     R2,#0x0
   \   0000B2   7904         MOV     R1,#0x4
   \   0000B4   12....       LCALL   ??HalLedSet?relay
    678               LedState=0;}
   \   0000B7   90....       MOV     DPTR,#LedState
   \   0000BA   E4           CLR     A
   \   0000BB   F0           MOVX    @DPTR,A
   \   0000BC   A3           INC     DPTR
   \   0000BD   F0           MOVX    @DPTR,A
    679            }
    680            else
    681            {
    682              // Error occurred in request to send.
    683            }
    684          }
   \                     ??SampleApp_SendPeriodicMessage_3:
   \   0000BE   02....       LJMP    ?Subroutine2 & 0xFFFF

   \                                 In  segment BANKED_CODE, align 1, keep-with-next
   \                     ?Subroutine25:
   \   000000   F0           MOVX    @DPTR,A
   \   000001                ; Setup parameters for call to function AF_DataRequest
   \   000001                ; Setup parameters for call to function AF_DataRequest
   \   000001                ; Setup parameters for call to function AF_DataRequest
   \   000001   75..1E       MOV     ?V0 + 0,#0x1e
   \   000004   78..         MOV     R0,#?V0 + 0
   \   000006   22           RET

   \                                 In  segment BANKED_CODE, align 1, keep-with-next
   \                     ?Subroutine24:
   \   000000   7430         MOV     A,#0x30
   \   000002                REQUIRE ??Subroutine44_0
   \   000002                ; // Fall through to label ??Subroutine44_0

   \                                 In  segment BANKED_CODE, align 1, keep-with-next
   \                     ??Subroutine44_0:
   \   000000   F0           MOVX    @DPTR,A
   \   000001   90....       MOV     DPTR,#CNT + 1
   \   000004   E0           MOVX    A,@DPTR
   \   000005   22           RET

   \                                 In  segment BANKED_CODE, align 1, keep-with-next
   \                     ?Subroutine23:
   \   000000   F0           MOVX    @DPTR,A
   \   000001   90....       MOV     DPTR,#CNT + 2
   \   000004   E0           MOVX    A,@DPTR
   \   000005   04           INC     A
   \   000006   F0           MOVX    @DPTR,A
   \   000007   643A         XRL     A,#0x3a
   \   000009   22           RET

   \                                 In  segment BANKED_CODE, align 1, keep-with-next
   \                     ?Subroutine13:
   \   000000   90....       MOV     DPTR,#LedState
   \   000003   12....       LCALL   ?Subroutine34 & 0xFFFF
   \                     ??CrossCallReturnLabel_66:
   \   000006   90....       MOV     DPTR,#SEND_DATA
   \   000009   22           RET
    685          
    686          /*********************************************************************
    687           * @fn      SampleApp_SendFlashMessage
    688           *
    689           * @brief   Send the flash message to group 1.
    690           *
    691           * @param   flashTime - in milliseconds
    692           *
    693           * @return  none
    694           */

   \                                 In  segment BANKED_CODE, align 1, keep-with-next
    695          void SampleApp_SendFlashMessage( uint16 flashTime )
   \                     SampleApp_SendFlashMessage:
    696          {
   \   000000   74F6         MOV     A,#-0xa
   \   000002   12....       LCALL   ?BANKED_ENTER_XDATA
   \   000005                ; Saved register size: 10
   \   000005                ; Auto size: 3
   \   000005   74FD         MOV     A,#-0x3
   \   000007   12....       LCALL   ?ALLOC_XSTACK8
    697            uint8 buffer[3];
    698            buffer[0] = (uint8)(SampleAppFlashCounter++);
   \   00000A   90....       MOV     DPTR,#SampleAppFlashCounter
   \   00000D   12....       LCALL   ?Subroutine18 & 0xFFFF
   \                     ??CrossCallReturnLabel_34:
   \   000010   90....       MOV     DPTR,#SampleAppFlashCounter
   \   000013   E0           MOVX    A,@DPTR
   \   000014   04           INC     A
   \   000015   F0           MOVX    @DPTR,A
    699            buffer[1] = LO_UINT16( flashTime );
   \   000016   7401         MOV     A,#0x1
   \   000018   12....       LCALL   ?XSTACK_DISP0_8
   \   00001B   EA           MOV     A,R2
   \   00001C   F0           MOVX    @DPTR,A
    700            buffer[2] = HI_UINT16( flashTime );
   \   00001D   7402         MOV     A,#0x2
   \   00001F   12....       LCALL   ?XSTACK_DISP0_8
   \   000022   EB           MOV     A,R3
   \   000023   12....       LCALL   ?Subroutine25 & 0xFFFF
    701          
    702            if ( AF_DataRequest( &SampleApp_Flash_DstAddr, &SampleApp_epDesc,
    703                                 SAMPLEAPP_FLASH_CLUSTERID,
    704                                 3,
    705                                 buffer,
    706                                 &SampleApp_TransID,
    707                                 AF_DISCV_ROUTE,
    708                                 AF_DEFAULT_RADIUS ) == afStatus_SUCCESS )
   \                     ??CrossCallReturnLabel_40:
   \   000026   12....       LCALL   ?PUSH_XSTACK_I_ONE
   \   000029   75....       MOV     ?V0 + 0,#SampleApp_TransID & 0xff
   \   00002C   75....       MOV     ?V0 + 1,#(SampleApp_TransID >> 8) & 0xff
   \   00002F   78..         MOV     R0,#?V0 + 0
   \   000031   12....       LCALL   ?PUSH_XSTACK_I_TWO
   \   000034   7403         MOV     A,#0x3
   \   000036   12....       LCALL   ?XSTACK_DISP0_8
   \   000039   8582..       MOV     ?V0 + 0,DPL
   \   00003C   8583..       MOV     ?V0 + 1,DPH
   \   00003F   78..         MOV     R0,#?V0 + 0
   \   000041   12....       LCALL   ?PUSH_XSTACK_I_TWO
   \   000044   75..03       MOV     ?V0 + 0,#0x3
   \   000047   75..00       MOV     ?V0 + 1,#0x0
   \   00004A   78..         MOV     R0,#?V0 + 0
   \   00004C   12....       LCALL   ?PUSH_XSTACK_I_TWO
   \   00004F   75..02       MOV     ?V0 + 0,#0x2
   \   000052   78..         MOV     R0,#?V0 + 0
   \   000054   12....       LCALL   ?PUSH_XSTACK_I_TWO
   \   000057   7920         MOV     R1,#0x20
   \   000059   7C..         MOV     R4,#SampleApp_epDesc & 0xff
   \   00005B   7D..         MOV     R5,#(SampleApp_epDesc >> 8) & 0xff
   \   00005D   7A..         MOV     R2,#SampleApp_Flash_DstAddr & 0xff
   \   00005F   7B..         MOV     R3,#(SampleApp_Flash_DstAddr >> 8) & 0xff
   \   000061   12....       LCALL   ??AF_DataRequest?relay
   \   000064   7409         MOV     A,#0x9
   \   000066   12....       LCALL   ?DEALLOC_XSTACK8
    709            {
    710            }
    711            else
    712            {
    713              // Error occurred in request to send.
    714            }
    715          }
   \   000069   7403         MOV     A,#0x3
   \   00006B   12....       LCALL   ?DEALLOC_XSTACK8
   \   00006E   02....       LJMP    ?Subroutine2 & 0xFFFF
    716          
    717          
    718          /*********************************************************************
    719           * @fn      SampleApp_Send_P2P_Message
    720           *
    721           * @brief   Send the P2P message to Coordinator.
    722           *
    723           * @param   Use CNT to count miss message.
    724           *
    725           * @return  none
    726           */

   \                                 In  segment BANKED_CODE, align 1, keep-with-next
    727          void SampleApp_Send_P2P_Message( void )
   \                     SampleApp_Send_P2P_Message:
    728          {
   \   000000   74F6         MOV     A,#-0xa
   \   000002   12....       LCALL   ?BANKED_ENTER_XDATA
   \   000005                ; Saved register size: 10
   \   000005                ; Auto size: 0
    729            LedState = LedState+1 ;
   \   000005   12....       LCALL   ?Subroutine13 & 0xFFFF
    730            //unsigned char data[15]= "F3332221114444";
    731            SEND_DATA[0] = 0x41;         // ROOMA SESOR KEY
   \                     ??CrossCallReturnLabel_20:
   \   000008   7441         MOV     A,#0x41
   \   00000A   12....       LCALL   ?Subroutine23 & 0xFFFF
    732            
    733            CNT[2]=CNT[2]+1;
    734               if( CNT[2] == 0x3A)
   \                     ??CrossCallReturnLabel_38:
   \   00000D   7005         JNZ     ??SampleApp_Send_P2P_Message_0
    735               {
    736                  CNT[2] = 0x30;
   \   00000F   12....       LCALL   ?Subroutine24 & 0xFFFF
    737                  CNT[1] = CNT[1] + 1 ;  
    738               }
   \                     ??CrossCallReturnLabel_110:
   \   000012   04           INC     A
   \   000013   F0           MOVX    @DPTR,A
    739               if( CNT[1] == 0x3A)
   \                     ??SampleApp_Send_P2P_Message_0:
   \   000014   90....       MOV     DPTR,#CNT + 1
   \   000017   E0           MOVX    A,@DPTR
   \   000018   643A         XRL     A,#0x3a
   \   00001A   7009         JNZ     ??SampleApp_Send_P2P_Message_1
    740                {
    741                   CNT[1] = 0x30;
   \   00001C   7430         MOV     A,#0x30
   \   00001E   F0           MOVX    @DPTR,A
    742                   CNT[0] = CNT[0] + 1 ;  
   \   00001F   90....       MOV     DPTR,#CNT
   \   000022   E0           MOVX    A,@DPTR
   \   000023   04           INC     A
   \   000024   F0           MOVX    @DPTR,A
    743                }
    744            //SEND_DATA[14]=SEND_DATA[0];         //ROOM1  CNT  NUMBER   (A or B)
    745            SEND_DATA[24]=CNT[0];
   \                     ??SampleApp_Send_P2P_Message_1:
   \   000025   90....       MOV     DPTR,#CNT
   \   000028   E0           MOVX    A,@DPTR
   \   000029   90....       MOV     DPTR,#SEND_DATA + 24
   \   00002C   12....       LCALL   ??Subroutine44_0 & 0xFFFF
    746            SEND_DATA[25]=CNT[1];
   \                     ??CrossCallReturnLabel_112:
   \   00002F   90....       MOV     DPTR,#SEND_DATA + 25
   \   000032   F0           MOVX    @DPTR,A
    747            SEND_DATA[26]=CNT[2];
   \   000033   90....       MOV     DPTR,#CNT + 2
   \   000036   E0           MOVX    A,@DPTR
   \   000037   90....       MOV     DPTR,#SEND_DATA + 26
   \   00003A   12....       LCALL   ?Subroutine25 & 0xFFFF
    748            
    749            if ( AF_DataRequest( &SampleApp_P2P_DstAddr, &SampleApp_epDesc, 
    750                                                   SAMPLEAPP_P2P_CLUSTERID, 
    751                                                   27, 
    752                                                   SEND_DATA, 
    753                                                   &SampleApp_TransID, 
    754                                                   AF_DISCV_ROUTE, 
    755                                                   AF_DEFAULT_RADIUS ) == afStatus_SUCCESS ) 
   \                     ??CrossCallReturnLabel_41:
   \   00003D   12....       LCALL   ?PUSH_XSTACK_I_ONE
   \   000040   75....       MOV     ?V0 + 0,#SampleApp_TransID & 0xff
   \   000043   75....       MOV     ?V0 + 1,#(SampleApp_TransID >> 8) & 0xff
   \   000046   78..         MOV     R0,#?V0 + 0
   \   000048   12....       LCALL   ?PUSH_XSTACK_I_TWO
   \   00004B   75....       MOV     ?V0 + 0,#SEND_DATA & 0xff
   \   00004E   75....       MOV     ?V0 + 1,#(SEND_DATA >> 8) & 0xff
   \   000051   78..         MOV     R0,#?V0 + 0
   \   000053   12....       LCALL   ?PUSH_XSTACK_I_TWO
   \   000056   75..1B       MOV     ?V0 + 0,#0x1b
   \   000059   75..00       MOV     ?V0 + 1,#0x0
   \   00005C   78..         MOV     R0,#?V0 + 0
   \   00005E   12....       LCALL   ?PUSH_XSTACK_I_TWO
   \   000061   75..03       MOV     ?V0 + 0,#0x3
   \   000064   78..         MOV     R0,#?V0 + 0
   \   000066   12....       LCALL   ?PUSH_XSTACK_I_TWO
   \   000069   7920         MOV     R1,#0x20
   \   00006B   7C..         MOV     R4,#SampleApp_epDesc & 0xff
   \   00006D   7D..         MOV     R5,#(SampleApp_epDesc >> 8) & 0xff
   \   00006F   7A..         MOV     R2,#SampleApp_P2P_DstAddr & 0xff
   \   000071   7B..         MOV     R3,#(SampleApp_P2P_DstAddr >> 8) & 0xff
   \   000073   12....       LCALL   ??AF_DataRequest?relay
   \   000076   7409         MOV     A,#0x9
   \   000078   12....       LCALL   ?DEALLOC_XSTACK8
   \   00007B   E9           MOV     A,R1
   \   00007C   702F         JNZ     ??SampleApp_Send_P2P_Message_2
    756            {
    757              if(LedState == 1)
   \   00007E   90....       MOV     DPTR,#LedState
   \   000081   E0           MOVX    A,@DPTR
   \   000082   6401         XRL     A,#0x1
   \   000084   7002         JNZ     ??SampleApp_Send_P2P_Message_3
   \   000086   A3           INC     DPTR
   \   000087   E0           MOVX    A,@DPTR
   \                     ??SampleApp_Send_P2P_Message_3:
   \   000088   7009         JNZ     ??SampleApp_Send_P2P_Message_4
    758                HalLedSet(HAL_LED_3, HAL_LED_MODE_ON);
   \   00008A                ; Setup parameters for call to function HalLedSet
   \   00008A   7A01         MOV     R2,#0x1
   \   00008C   7904         MOV     R1,#0x4
   \   00008E   12....       LCALL   ??HalLedSet?relay
   \   000091   801A         SJMP    ??SampleApp_Send_P2P_Message_2
    759              else if(LedState == 2)
   \                     ??SampleApp_Send_P2P_Message_4:
   \   000093   90....       MOV     DPTR,#LedState
   \   000096   E0           MOVX    A,@DPTR
   \   000097   6402         XRL     A,#0x2
   \   000099   7002         JNZ     ??SampleApp_Send_P2P_Message_5
   \   00009B   A3           INC     DPTR
   \   00009C   E0           MOVX    A,@DPTR
   \                     ??SampleApp_Send_P2P_Message_5:
   \   00009D   700E         JNZ     ??SampleApp_Send_P2P_Message_2
    760              {HalLedSet(HAL_LED_3, HAL_LED_MODE_OFF);
   \   00009F                ; Setup parameters for call to function HalLedSet
   \   00009F   7A00         MOV     R2,#0x0
   \   0000A1   7904         MOV     R1,#0x4
   \   0000A3   12....       LCALL   ??HalLedSet?relay
    761               LedState=0;}
   \   0000A6   90....       MOV     DPTR,#LedState
   \   0000A9   E4           CLR     A
   \   0000AA   F0           MOVX    @DPTR,A
   \   0000AB   A3           INC     DPTR
   \   0000AC   F0           MOVX    @DPTR,A
    762            }
    763            else 
    764            { 
    765              // Error occurred in request to send. 
    766            }
    767          }
   \                     ??SampleApp_Send_P2P_Message_2:
   \   0000AD   02....       LJMP    ?Subroutine2 & 0xFFFF

   \                                 In  segment XDATA_ID, align 1, keep-with-next
   \                     `?<Initializer for R0_MQ7>`:
   \   000000   00007A44     DD 447A0000H

   \                                 In  segment XDATA_ID, align 1, keep-with-next
   \                     `?<Initializer for R0_TGS813>`:
   \   000000   00007A44     DD 447A0000H

   \                                 In  segment XDATA_ID, align 1, keep-with-next
   \                     `?<Initializer for messageA>`:
   \   000000   30           DB 48

   \                                 In  segment XDATA_ID, align 1, keep-with-next
   \                     `?<Initializer for CNT>`:
   \   000000   30           DB 48
   \   000001   30           DB 48
   \   000002   30           DB 48

   \                                 In  segment XDATA_ID, align 1, keep-with-next
   \                     `?<Initializer for MMchar>`:
   \   000000   23232323     DB 23H, 23H, 23H, 23H, 23H, 5FH, 44H, 72H
   \            235F4472
   \   000008   6F707065     DB 6FH, 70H, 70H, 65H, 64H, 20H, 50H, 61H
   \            64205061
   \   000010   636B6574     DB 63H, 6BH, 65H, 74H, 73H, 5FH, 3DH, 5FH
   \            735F3D5F
   \   000018   5F5F5F20     DB 5FH, 5FH, 5FH, 20H, 23H, 23H, 23H, 23H
   \            23232323
   \   000020   23           DB 23H

   \                                 In  segment XDATA_ID, align 1, keep-with-next
   \                     `?<Initializer for ROOM1>`:
   \   000000   2A2A2A2A     DB 2AH, 2AH, 2AH, 2AH, 2AH, 52H, 4FH, 4FH
   \            2A524F4F
   \   000008   4D20412A     DB 4DH, 20H, 41H, 2AH, 2AH, 2AH, 2AH, 2AH
   \            2A2A2A2A

   \                                 In  segment XDATA_ID, align 1, keep-with-next
   \                     `?<Initializer for ROOM2>`:
   \   000000   2A2A2A2A     DB 2AH, 2AH, 2AH, 2AH, 2AH, 52H, 4FH, 4FH
   \            2A524F4F
   \   000008   4D20422A     DB 4DH, 20H, 42H, 2AH, 2AH, 2AH, 2AH, 2AH
   \            2A2A2A2A

   \                                 In  segment BANK_RELAYS, align 1
   \                     ??SendData?relay:
   \   000000   12....       LCALL   ?BDISPATCH
   \   000003   ......       DC24    SendData

   \                                 In  segment BANK_RELAYS, align 1
   \                     ??ReadData?relay:
   \   000000   12....       LCALL   ?BDISPATCH
   \   000003   ......       DC24    ReadData

   \                                 In  segment BANK_RELAYS, align 1
   \                     ??delay_25us?relay:
   \   000000   12....       LCALL   ?BDISPATCH
   \   000003   ......       DC24    delay_25us

   \                                 In  segment BANK_RELAYS, align 1
   \                     ??SendData_DHT22?relay:
   \   000000   12....       LCALL   ?BDISPATCH
   \   000003   ......       DC24    SendData_DHT22

   \                                 In  segment BANK_RELAYS, align 1
   \                     ??COM?relay:
   \   000000   12....       LCALL   ?BDISPATCH
   \   000003   ......       DC24    COM

   \                                 In  segment BANK_RELAYS, align 1
   \                     ??DHT22?relay:
   \   000000   12....       LCALL   ?BDISPATCH
   \   000003   ......       DC24    DHT22

   \                                 In  segment BANK_RELAYS, align 1
   \                     ??DHT22_background?relay:
   \   000000   12....       LCALL   ?BDISPATCH
   \   000003   ......       DC24    DHT22_background

   \                                 In  segment BANK_RELAYS, align 1
   \                     ??Shiwen?relay:
   \   000000   12....       LCALL   ?BDISPATCH
   \   000003   ......       DC24    Shiwen

   \                                 In  segment BANK_RELAYS, align 1
   \                     ??Init_MS1100?relay:
   \   000000   12....       LCALL   ?BDISPATCH
   \   000003   ......       DC24    Init_MS1100

   \                                 In  segment BANK_RELAYS, align 1
   \                     ??background_MS1100?relay:
   \   000000   12....       LCALL   ?BDISPATCH
   \   000003   ......       DC24    background_MS1100

   \                                 In  segment BANK_RELAYS, align 1
   \                     ??SendData_MS1100?relay:
   \   000000   12....       LCALL   ?BDISPATCH
   \   000003   ......       DC24    SendData_MS1100

   \                                 In  segment BANK_RELAYS, align 1
   \                     ??Init_TGS4161?relay:
   \   000000   12....       LCALL   ?BDISPATCH
   \   000003   ......       DC24    Init_TGS4161

   \                                 In  segment BANK_RELAYS, align 1
   \                     ??background_TGS4161?relay:
   \   000000   12....       LCALL   ?BDISPATCH
   \   000003   ......       DC24    background_TGS4161

   \                                 In  segment BANK_RELAYS, align 1
   \                     ??TGS4161_EMF_350ppm?relay:
   \   000000   12....       LCALL   ?BDISPATCH
   \   000003   ......       DC24    TGS4161_EMF_350ppm

   \                                 In  segment BANK_RELAYS, align 1
   \                     ??SendData_TGS4161?relay:
   \   000000   12....       LCALL   ?BDISPATCH
   \   000003   ......       DC24    SendData_TGS4161

   \                                 In  segment BANK_RELAYS, align 1
   \                     ??Init_MQ7?relay:
   \   000000   12....       LCALL   ?BDISPATCH
   \   000003   ......       DC24    Init_MQ7

   \                                 In  segment BANK_RELAYS, align 1
   \                     ??background_MQ7?relay:
   \   000000   12....       LCALL   ?BDISPATCH
   \   000003   ......       DC24    background_MQ7

   \                                 In  segment BANK_RELAYS, align 1
   \                     ??SendData_MQ7?relay:
   \   000000   12....       LCALL   ?BDISPATCH
   \   000003   ......       DC24    SendData_MQ7

   \                                 In  segment BANK_RELAYS, align 1
   \                     ??Init_PM25?relay:
   \   000000   12....       LCALL   ?BDISPATCH
   \   000003   ......       DC24    Init_PM25

   \                                 In  segment BANK_RELAYS, align 1
   \                     ??background_PM25_ADC?relay:
   \   000000   12....       LCALL   ?BDISPATCH
   \   000003   ......       DC24    background_PM25_ADC

   \                                 In  segment BANK_RELAYS, align 1
   \                     ??background_PM25?relay:
   \   000000   12....       LCALL   ?BDISPATCH
   \   000003   ......       DC24    background_PM25

   \                                 In  segment BANK_RELAYS, align 1
   \                     ??SendData_PM25?relay:
   \   000000   12....       LCALL   ?BDISPATCH
   \   000003   ......       DC24    SendData_PM25

   \                                 In  segment BANK_RELAYS, align 1
   \                     ??Init_TGS813?relay:
   \   000000   12....       LCALL   ?BDISPATCH
   \   000003   ......       DC24    Init_TGS813

   \                                 In  segment BANK_RELAYS, align 1
   \                     ??background_TGS813?relay:
   \   000000   12....       LCALL   ?BDISPATCH
   \   000003   ......       DC24    background_TGS813

   \                                 In  segment BANK_RELAYS, align 1
   \                     ??SendData_TGS813?relay:
   \   000000   12....       LCALL   ?BDISPATCH
   \   000003   ......       DC24    SendData_TGS813

   \                                 In  segment BANK_RELAYS, align 1
   \                     ??Init_Sensor?relay:
   \   000000   12....       LCALL   ?BDISPATCH
   \   000003   ......       DC24    Init_Sensor

   \                                 In  segment BANK_RELAYS, align 1
   \                     ??SensorFunction?relay:
   \   000000   12....       LCALL   ?BDISPATCH
   \   000003   ......       DC24    SensorFunction

   \                                 In  segment BANK_RELAYS, align 1
   \                     ??SampleApp_Init?relay:
   \   000000   12....       LCALL   ?BDISPATCH
   \   000003   ......       DC24    SampleApp_Init

   \                                 In  segment BANK_RELAYS, align 1
   \                     ??SendUARTInit?relay:
   \   000000   12....       LCALL   ?BDISPATCH
   \   000003   ......       DC24    SendUARTInit

   \                                 In  segment BANK_RELAYS, align 1
   \                     ??SendUART?relay:
   \   000000   12....       LCALL   ?BDISPATCH
   \   000003   ......       DC24    SendUART

   \                                 In  segment BANK_RELAYS, align 1
   \                     ??TakeValueInit?relay:
   \   000000   12....       LCALL   ?BDISPATCH
   \   000003   ......       DC24    TakeValueInit

   \                                 In  segment BANK_RELAYS, align 1
   \                     ??TakeValue?relay:
   \   000000   12....       LCALL   ?BDISPATCH
   \   000003   ......       DC24    TakeValue

   \                                 In  segment BANK_RELAYS, align 1
   \                     ??SampleApp_ProcessEvent?relay:
   \   000000   12....       LCALL   ?BDISPATCH
   \   000003   ......       DC24    SampleApp_ProcessEvent

   \                                 In  segment BANK_RELAYS, align 1
   \                     ??SampleApp_HandleKeys?relay:
   \   000000   12....       LCALL   ?BDISPATCH
   \   000003   ......       DC24    SampleApp_HandleKeys

   \                                 In  segment BANK_RELAYS, align 1
   \                     ??SampleApp_MessageMSGCB?relay:
   \   000000   12....       LCALL   ?BDISPATCH
   \   000003   ......       DC24    SampleApp_MessageMSGCB

   \                                 In  segment BANK_RELAYS, align 1
   \                     ??SampleApp_SendPeriodicMessage?relay:
   \   000000   12....       LCALL   ?BDISPATCH
   \   000003   ......       DC24    SampleApp_SendPeriodicMessage

   \                                 In  segment BANK_RELAYS, align 1
   \                     ??SampleApp_SendFlashMessage?relay:
   \   000000   12....       LCALL   ?BDISPATCH
   \   000003   ......       DC24    SampleApp_SendFlashMessage

   \                                 In  segment BANK_RELAYS, align 1
   \                     ??SampleApp_Send_P2P_Message?relay:
   \   000000   12....       LCALL   ?BDISPATCH
   \   000003   ......       DC24    SampleApp_Send_P2P_Message

   \                                 In  segment XDATA_ROM_C, align 1
   \                     `?<Constant {0}>`:
   \   000000   00           DB 0
   \   000001   0000         DB 0, 0

   \                                 In  segment XDATA_ROM_C, align 1
   \                     `?<Constant {0}>_1`:
   \   000000   00           DB 0
   \   000001   000000       DB 0, 0, 0

   \                                 In  segment XDATA_ROM_C, align 1
   \                     `?<Constant {0}>_2`:
   \   000000   00           DB 0
   \   000001   000000       DB 0, 0, 0

   \                                 In  segment XDATA_ROM_C, align 1
   \                     `?<Constant {0}>_3`:
   \   000000   00           DB 0
   \   000001   0000         DB 0, 0

   \                                 In  segment XDATA_ROM_C, align 1
   \                     `?<Constant {0}>_4`:
   \   000000   00           DB 0
   \   000001   000000       DB 0, 0, 0

   \                                 In  segment XDATA_ROM_C, align 1
   \                     `?<Constant "UartInit OK\\n">`:
   \   000000   55617274     DB "UartInit OK\012"
   \            496E6974
   \            204F4B0A
   \            00      

   \                                 In  segment XDATA_ROM_C, align 1
   \                     `?<Constant "Group 1">`:
   \   000000   47726F75     DB "Group 1"
   \            70203100

   \                                 In  segment XDATA_ROM_C, align 1
   \                     `?<Constant "SampleApp">`:
   \   000000   53616D70     DB "SampleApp"
   \            6C654170
   \            7000    

   \                                 In  segment XDATA_ROM_C, align 1
   \                     `?<Constant {48, 48, 48, 48}>`:
   \   000000   30           DB 48
   \   000001   30           DB 48
   \   000002   30           DB 48
   \   000003   30           DB 48

   \                                 In  segment XDATA_ROM_C, align 1
   \                     `?<Constant "Temperature: __._ C">`:
   \   000000   54656D70     DB 54H, 65H, 6DH, 70H, 65H, 72H, 61H, 74H
   \            65726174
   \   000008   7572653A     DB 75H, 72H, 65H, 3AH, 20H, 5FH, 5FH, 2EH
   \            205F5F2E
   \   000010   5F2043       DB 5FH, 20H, 43H

   \                                 In  segment XDATA_ROM_C, align 1
   \                     `?<Constant "Humidity: __._ %">`:
   \   000000   48756D69     DB 48H, 75H, 6DH, 69H, 64H, 69H, 74H, 79H
   \            64697479
   \   000008   3A205F5F     DB 3AH, 20H, 5FH, 5FH, 2EH, 5FH, 20H, 25H
   \            2E5F2025

   \                                 In  segment XDATA_ROM_C, align 1
   \                     `?<Constant "Dust: ___ ug/m3   ">`:
   \   000000   44757374     DB "Dust: ___ ug/m3   "
   \            3A205F5F
   \            5F207567
   \            2F6D3320
   \            202000  

   \                                 In  segment XDATA_ROM_C, align 1
   \                     `?<Constant "CO2 : ____ppm">`:
   \   000000   434F3220     DB 43H, 4FH, 32H, 20H, 3AH, 20H, 5FH, 5FH
   \            3A205F5F
   \   000008   5F5F7070     DB 5FH, 5FH, 70H, 70H, 6DH
   \            6D      

   \                                 In  segment XDATA_ROM_C, align 1
   \                     `?<Constant "CO : ____ppm">`:
   \   000000   434F203A     DB 43H, 4FH, 20H, 3AH, 20H, 5FH, 5FH, 5FH
   \            205F5F5F
   \   000008   5F70706D     DB 5FH, 70H, 70H, 6DH

   \                                 In  segment XDATA_ROM_C, align 1
   \                     `?<Constant "CH2O: __ppm">`:
   \   000000   4348324F     DB 43H, 48H, 32H, 4FH, 3AH, 20H, 5FH, 5FH
   \            3A205F5F
   \   000008   70706D       DB 70H, 70H, 6DH

   \                                 In  segment XDATA_ROM_C, align 1
   \                     `?<Constant "CH4: ____ppm">`:
   \   000000   4348343A     DB 43H, 48H, 34H, 3AH, 20H, 5FH, 5FH, 5FH
   \            205F5F5F
   \   000008   5F70706D     DB 5FH, 70H, 70H, 6DH

   \                                 In  segment XDATA_ROM_C, align 1
   \                     __Constant_40533333:
   \   000000   33335340     DD 40533333H

   \                                 In  segment XDATA_ROM_C, align 1
   \                     __Constant_3a000000:
   \   000000   0000003A     DD 3A000000H

   \                                 In  segment XDATA_ROM_C, align 1
   \                     __Constant_bf800000:
   \   000000   000080BF     DD 0BF800000H

   \                                 In  segment XDATA_ROM_C, align 1
   \                     __Constant_461c4000:
   \   000000   00401C46     DD 461C4000H

   \                                 In  segment XDATA_ROM_C, align 1
   \                     __Constant_46d33a00:
   \   000000   003AD346     DD 46D33A00H

   \                                 In  segment XDATA_ROM_C, align 1
   \                     __Constant_403d70a4:
   \   000000   A4703D40     DD 403D70A4H

   \                                 In  segment XDATA_ROM_C, align 1
   \                     __Constant_41200000:
   \   000000   00002041     DD 41200000H

   \                                 In  segment XDATA_ROM_C, align 1
   \                     __Constant_447a0000:
   \   000000   00007A44     DD 447A0000H

   \                                 In  segment XDATA_ROM_C, align 1
   \                     __Constant_39800000:
   \   000000   00008039     DD 39800000H

   \                                 In  segment XDATA_ROM_C, align 1
   \                     __Constant_42480000:
   \   000000   00004842     DD 42480000H

   \                                 In  segment XDATA_ROM_C, align 1
   \                     __Constant_40400000:
   \   000000   00004040     DD 40400000H

   \                                 In  segment XDATA_ROM_C, align 1
   \                     __Constant_43af0000:
   \   000000   0000AF43     DD 43AF0000H

   \                                 In  segment XDATA_ROM_C, align 1
   \                     __Constant_41c80000:
   \   000000   0000C841     DD 41C80000H

   \                                 In  segment XDATA_ROM_C, align 1
   \                     __Constant_437a0000:
   \   000000   00007A43     DD 437A0000H

   \                                 In  segment XDATA_ROM_C, align 1
   \                     __Constant_431cb333:
   \   000000   33B31C43     DD 431CB333H

   \                                 In  segment XDATA_ROM_C, align 1
   \                     __Constant_427647ae:
   \   000000   AE477642     DD 427647AEH

   \                                 In  segment XDATA_ROM_C, align 1
   \                     __Constant_c61c4000:
   \   000000   00401CC6     DD 0C61C4000H

   \                                 In  segment XDATA_ROM_C, align 1
   \                     __Constant_3fd33334:
   \   000000   3433D33F     DD 3FD33334H

   \                                 In  segment XDATA_ROM_C, align 1
   \                     __Constant_3f800001:
   \   000000   0100803F     DD 3F800001H

   \                                 In  segment XDATA_ROM_C, align 1
   \                     __Constant_bf266666:
   \   000000   666626BF     DD 0BF266666H

   \                                 In  segment XDATA_ROM_C, align 1
   \                     __Constant_3e6147af:
   \   000000   AF47613E     DD 3E6147AFH

   \                                 In  segment XDATA_ROM_C, align 1
   \                     __Constant_3ec28f5d:
   \   000000   5D8FC23E     DD 3EC28F5DH

   \                                 In  segment XDATA_ROM_C, align 1
   \                     __Constant_44160000:
   \   000000   00001644     DD 44160000H

   \                                 In  segment XDATA_ROM_C, align 1
   \                     __Constant_be23d70a:
   \   000000   0AD723BE     DD 0BE23D70AH

   \                                 In  segment XDATA_ROM_C, align 1
   \                     __Constant_43960000:
   \   000000   00009643     DD 43960000H

   \                                 In  segment XDATA_ROM_C, align 1
   \                     __Constant_bf1eb852:
   \   000000   52B81EBF     DD 0BF1EB852H

   \                                 In  segment XDATA_ROM_C, align 1
   \                     __Constant_43c80000:
   \   000000   0000C843     DD 43C80000H

   \                                 In  segment XDATA_ROM_C, align 1
   \                     __Constant_3dc28f5d:
   \   000000   5D8FC23D     DD 3DC28F5DH

   \                                 In  segment XDATA_ROM_C, align 1
   \                     __Constant_c6bb8000:
   \   000000   0080BBC6     DD 0C6BB8000H

   \                                 In  segment XDATA_ROM_C, align 1
   \                     __Constant_457a0000:
   \   000000   00007A45     DD 457A0000H

   \                                 In  segment XDATA_ROM_C, align 1
   \                     __Constant_42040000:
   \   000000   00000442     DD 42040000H

   \                                 In  segment XDATA_ROM_C, align 1
   \                     __Constant_c0e00000:
   \   000000   0000E0C0     DD 0C0E00000H

   \                                 In  segment XDATA_ROM_C, align 1
   \                     __Constant_42600000:
   \   000000   00006042     DD 42600000H

   \                                 In  segment XDATA_ROM_C, align 1
   \                     __Constant_3fe66667:
   \   000000   6766E63F     DD 3FE66667H

   \                                 In  segment XDATA_ROM_C, align 1
   \                     __Constant_3f570a3d:
   \   000000   3D0A573F     DD 3F570A3DH

   \                                 In  segment XDATA_ROM_C, align 1
   \                     __Constant_3fe66666:
   \   000000   6666E63F     DD 3FE66666H

   \                                 In  segment XDATA_ROM_C, align 1
   \                     __Constant_3ff5c28f:
   \   000000   8FC2F53F     DD 3FF5C28FH

   \                                 In  segment XDATA_ROM_C, align 1
   \                     __Constant_3e947ae1:
   \   000000   E17A943E     DD 3E947AE1H

   \                                 In  segment XDATA_ROM_C, align 1
   \                     __Constant_40c3851f:
   \   000000   1F85C340     DD 40C3851FH
    768          
    769          /*********************************************************************
    770          *********************************************************************/

   Maximum stack usage in bytes:

   ISTACK PSTACK XSTACK Function
   ------ ------ ------ --------
       0      0     18  COM
                          0 0   9 -> delay_25us
       0      0      9  DHT22
                          0 0   9 -> COM
                          0 0   9 -> delay_25us
       2      0      0  DHT22_background
                          2 0   0 -> DHT22
       0      0      0  Init_MQ7
       0      0      0  Init_MS1100
       0      0      0  Init_PM25
       2      0      9  Init_Sensor
                          2 0   0 -> Init_MQ7
                          2 0   0 -> Init_MS1100
                          2 0   0 -> Init_PM25
                          2 0   0 -> Init_TGS4161
                          2 0   0 -> Init_TGS813
       0      0      0  Init_TGS4161
       0      0      0  Init_TGS813
       2      0      0  ReadData
       0      0     22  SampleApp_HandleKeys
                          0 0  10 -> SampleApp_SendFlashMessage
                          0 0  10 -> aps_AddGroup
                          0 0  10 -> aps_FindGroup
                          0 0  10 -> aps_RemoveGroup
       0      0     14  SampleApp_Init
                          0 0  11 -> HalLcdWriteString
                          0 0  11 -> HalUARTWrite
                          0 0  11 -> MT_UartInit
                          0 0  11 -> MT_UartRegisterTaskID
                          0 0  11 -> RegisterForKeys
                          0 0  11 -> afRegister
                          0 0  11 -> aps_AddGroup
                          0 0  14 -> osal_memcpy
       0      0     26  SampleApp_MessageMSGCB
                          0 0  11 -> HalLedBlink
                          0 0  11 -> HalLedSet
                          0 0  14 -> osal_memcpy
       0      0     12  SampleApp_ProcessEvent
                          0 0  12 -> SampleApp_HandleKeys
                          0 0  12 -> SampleApp_MessageMSGCB
                          0 0  12 -> SampleApp_Send_P2P_Message
                          0 0  12 -> osal_msg_deallocate
                          0 0  12 -> osal_msg_receive
                          0 0  12 -> osal_rand
                          0 0  12 -> osal_set_event
                          0 0  12 -> osal_start_timerEx
       1      0     32  SampleApp_SendFlashMessage
                          0 0  22 -> AF_DataRequest
       0      0     19  SampleApp_SendPeriodicMessage
                          0 0  19 -> AF_DataRequest
                          0 0  10 -> HalLedSet
       0      0     31  SampleApp_Send_P2P_Message
                          0 0  19 -> AF_DataRequest
                          0 0  10 -> HalLedSet
       3      0      0  SendData
       3      0     11  SendData_DHT22
       2      0     28  SendData_MQ7
       2      0     31  SendData_MS1100
                          0 0  31 -> pow
       2      0     19  SendData_PM25
       2      0     26  SendData_TGS4161
                          0 0  22 -> TGS4161_EMF_350ppm
                          0 0  26 -> pow
       2      0     24  SendData_TGS813
       2      0    115  SendUART
                          0 0 115 -> UartSendString
       0      0      9  SendUARTInit
                          0 0   9 -> Init_Sensor
       2      0      9  SensorFunction
                          2 0   0 -> DHT22
                          2 0   0 -> SendData_DHT22
                          2 0   0 -> SendData_MQ7
                          2 0   0 -> SendData_MS1100
                          2 0   0 -> SendData_PM25
                          2 0   0 -> SendData_TGS4161
                          2 0   0 -> SendData_TGS813
                          2 0   0 -> background_MQ7
                          2 0   0 -> background_MS1100
                          2 0   0 -> background_PM25
                          2 0   0 -> background_TGS4161
                          2 0   0 -> background_TGS813
       2      0      0  Shiwen
       0      0     32  TGS4161_EMF_350ppm
       1      0      9  TakeValue
                          0 0   9 -> SensorFunction
       2      0      0  TakeValueInit
       0      0     10  background_MQ7
       0      0     10  background_MS1100
       0      0      9  background_PM25
                          0 0   9 -> background_PM25_ADC
                          0 0   9 -> delay_25us
       0      0     19  background_PM25_ADC
       0      0     10  background_TGS4161
       0      0     10  background_TGS813
       0      0      9  delay_25us


   Segment part sizes:

   Bytes  Function/Label
   -----  --------------
      11  ?<Constant "CH2O: __ppm">
      12  ?<Constant "CH4: ____ppm">
      12  ?<Constant "CO : ____ppm">
      13  ?<Constant "CO2 : ____ppm">
      19  ?<Constant "Dust: ___ ug/m3   ">
       8  ?<Constant "Group 1">
      16  ?<Constant "Humidity: __._ %">
      10  ?<Constant "SampleApp">
      19  ?<Constant "Temperature: __._ C">
      13  ?<Constant "UartInit OK\n">
       3  ?<Constant {0}>
       4  ?<Constant {0}>_1
       4  ?<Constant {0}>_2
       3  ?<Constant {0}>_3
       4  ?<Constant {0}>_4
       4  ?<Constant {48, 48, 48, 48}>
       3  ?<Initializer for CNT>
      33  ?<Initializer for MMchar>
       4  ?<Initializer for R0_MQ7>
       4  ?<Initializer for R0_TGS813>
      16  ?<Initializer for ROOM1>
      16  ?<Initializer for ROOM2>
       1  ?<Initializer for messageA>
       6  ??COM?relay
       6  ??DHT22?relay
       6  ??DHT22_background?relay
       6  ??Init_MQ7?relay
       6  ??Init_MS1100?relay
       6  ??Init_PM25?relay
       6  ??Init_Sensor?relay
       6  ??Init_TGS4161?relay
       6  ??Init_TGS813?relay
       6  ??ReadData?relay
       6  ??SampleApp_HandleKeys?relay
       6  ??SampleApp_Init?relay
       6  ??SampleApp_MessageMSGCB?relay
       6  ??SampleApp_ProcessEvent?relay
       6  ??SampleApp_SendFlashMessage?relay
       6  ??SampleApp_SendPeriodicMessage?relay
       6  ??SampleApp_Send_P2P_Message?relay
       6  ??SendData?relay
       6  ??SendData_DHT22?relay
       6  ??SendData_MQ7?relay
       6  ??SendData_MS1100?relay
       6  ??SendData_PM25?relay
       6  ??SendData_TGS4161?relay
       6  ??SendData_TGS813?relay
       6  ??SendUART?relay
       6  ??SendUARTInit?relay
       6  ??SensorFunction?relay
       6  ??Shiwen?relay
       7  ??Subroutine37_0
       9  ??Subroutine38_0
      10  ??Subroutine39_0
       9  ??Subroutine40_0
      10  ??Subroutine41_0
       5  ??Subroutine42_0
       8  ??Subroutine43_0
       6  ??Subroutine44_0
       6  ??TGS4161_EMF_350ppm?relay
       6  ??TakeValue?relay
       6  ??TakeValueInit?relay
       6  ??background_MQ7?relay
       6  ??background_MS1100?relay
       6  ??background_PM25?relay
       6  ??background_PM25_ADC?relay
       6  ??background_TGS4161?relay
       6  ??background_TGS813?relay
       6  ??delay_25us?relay
       1  ?Subroutine0
       5  ?Subroutine1
      17  ?Subroutine10
      20  ?Subroutine11
       8  ?Subroutine12
      10  ?Subroutine13
       4  ?Subroutine14
       8  ?Subroutine15
      10  ?Subroutine16
      16  ?Subroutine17
       9  ?Subroutine18
       3  ?Subroutine19
       5  ?Subroutine2
       3  ?Subroutine20
       1  ?Subroutine21
      16  ?Subroutine22
      10  ?Subroutine23
       2  ?Subroutine24
       7  ?Subroutine25
       9  ?Subroutine26
      18  ?Subroutine27
       9  ?Subroutine28
       7  ?Subroutine29
       8  ?Subroutine3
      11  ?Subroutine30
       9  ?Subroutine31
      13  ?Subroutine32
       6  ?Subroutine33
      10  ?Subroutine34
       1  ?Subroutine35
       1  ?Subroutine36
       5  ?Subroutine4
      48  ?Subroutine5
      11  ?Subroutine6
      11  ?Subroutine7
       4  ?Subroutine8
      10  ?Subroutine9
       1  ADCCFG
       1  ADCCON1
       1  ADCCON3
       1  ADCH
       1  ADCL
       3  CNT
      74  COM
     224  DHT22
       9  DHT22_background
       1  DHT22_num
       1  ErrFLAG
       9  Init_MQ7
       9  Init_MS1100
      12  Init_PM25
      22  Init_Sensor
       9  Init_TGS4161
       9  Init_TGS813
       2  LedState
      33  MMchar
       1  MYTASK_TaskID
       1  Operation_TaskID
       1  P0DIR
       1  P1DIR
       4  R0_MQ7
       4  R0_TGS813
      16  ROOM1
      16  ROOM2
      12  ReadData
      28  SEND_DATA
       1  SampleAppFlashCounter
       1  SampleAppPeriodicCounter
       4  SampleApp_ClusterList
      12  SampleApp_Flash_DstAddr
      18  SampleApp_Group
      62  SampleApp_HandleKeys
     193  SampleApp_Init
     148  SampleApp_MessageMSGCB
       1  SampleApp_NwkState
      12  SampleApp_P2P_DstAddr
      12  SampleApp_Periodic_DstAddr
     198  SampleApp_ProcessEvent
     113  SampleApp_SendFlashMessage
     193  SampleApp_SendPeriodicMessage
     176  SampleApp_Send_P2P_Message
      12  SampleApp_SimpleDesc
       1  SampleApp_TaskID
       1  SampleApp_TransID
       6  SampleApp_epDesc
      11  SendData
     255  SendData_DHT22
     839  SendData_MQ7
     305  SendData_MS1100
     251  SendData_PM25
     503  SendData_TGS4161
     612  SendData_TGS813
    1096  SendUART
      13  SendUARTInit
       1  SendUART_TaskID
      43  SensorFunction
      23  SensorsData
      14  Shiwen
     156  TGS4161_EMF_350ppm
      92  TakeValue
      11  TakeValueInit
       1  TakeValue_TaskID
      20  Temp_MQ7
      20  Temp_MS1100
      20  Temp_PM25
      20  Temp_TGS4161
      20  Temp_TGS813
       1  _A_P0
       1  _A_P1
       4  __Constant_39800000
       4  __Constant_3a000000
       4  __Constant_3dc28f5d
       4  __Constant_3e6147af
       4  __Constant_3e947ae1
       4  __Constant_3ec28f5d
       4  __Constant_3f570a3d
       4  __Constant_3f800001
       4  __Constant_3fd33334
       4  __Constant_3fe66666
       4  __Constant_3fe66667
       4  __Constant_3ff5c28f
       4  __Constant_403d70a4
       4  __Constant_40400000
       4  __Constant_40533333
       4  __Constant_40c3851f
       4  __Constant_41200000
       4  __Constant_41c80000
       4  __Constant_42040000
       4  __Constant_42480000
       4  __Constant_42600000
       4  __Constant_427647ae
       4  __Constant_431cb333
       4  __Constant_437a0000
       4  __Constant_43960000
       4  __Constant_43af0000
       4  __Constant_43c80000
       4  __Constant_44160000
       4  __Constant_447a0000
       4  __Constant_457a0000
       4  __Constant_461c4000
       4  __Constant_46d33a00
       4  __Constant_be23d70a
       4  __Constant_bf1eb852
       4  __Constant_bf266666
       4  __Constant_bf800000
       4  __Constant_c0e00000
       4  __Constant_c61c4000
       4  __Constant_c6bb8000
      73  background_MQ7
      73  background_MS1100
      29  background_PM25
      73  background_PM25_ADC
      71  background_TGS4161
      70  background_TGS813
       2  cntnumberA
       2  cntnumberB
       9  delay_25us
       2  i
       2  i
       2  i_MS1100
       2  i_TGS4161
       2  i_TGS813
       1  messageA
       2  missmessageA
       2  missmessageB
      28  periodicData
       2  shidu
      20  shiduTemp
       1  shidu_dian
       1  shidu_ge
       1  shidu_shi
       2  tempA
       2  tempB
       1  ucharFLAG
       1  ucharRH_data_H
       1  ucharRH_data_H_temp
       1  ucharRH_data_L
       1  ucharRH_data_L_temp
       1  ucharT_data_H
       1  ucharT_data_H_temp
       1  ucharT_data_L
       1  ucharT_data_L_temp
       1  ucharcheckdata
       1  ucharcheckdata_temp
       1  ucharcomdata
       1  uchartemp
       2  wendu
      20  wenduTemp
       1  wendu_dian
       1  wendu_ge
       1  wendu_shi

 
 6 481 bytes in segment BANKED_CODE
   228 bytes in segment BANK_RELAYS
     9 bytes in segment SFR_AN
    77 bytes in segment XDATA_I
    77 bytes in segment XDATA_ID
   327 bytes in segment XDATA_ROM_C
   337 bytes in segment XDATA_Z
 
 6 786 bytes of CODE  memory
   171 bytes of CONST memory (+ 156 bytes shared)
     0 bytes of DATA  memory (+   9 bytes shared)
   414 bytes of XDATA memory

Errors: none
Warnings: 1
