///////////////////////////////////////////////////////////////////////////////
//                                                                            /
// IAR C/C++ Compiler V8.20.2.41139 for 8051            19/Sep/2015  12:30:18 /
// Copyright 2004-2013 IAR Systems AB.                                        /
//                                                                            /
//    Core               =  plain                                             /
//    Code model         =  banked                                            /
//    Data model         =  large                                             /
//    Calling convention =  xdata reentrant                                   /
//    Constant location  =  data_rom                                          /
//    Dptr setup         =  1,16                                              /
//                                                                            /
//    Source file        =  D:\desk\cc2530\ch5\3 new task perfect ROOM1       /
//                          DHT22\ZStack-2.5.1a\Projects\zstack\Samples\Sampl /
//                          eApp\Source\UART.C                                /
//    Command line       =  -f "D:\desk\cc2530\ch5\3 new task perfect ROOM1   /
//                          DHT22\ZStack-2.5.1a\Projects\zstack\Samples\Sampl /
//                          eApp\CC2530DB\..\..\..\Tools\CC2530DB\f8wEndev.cf /
//                          g" (-DCPU32MHZ -DROOT=__near_func                 /
//                          -DMAC_CFG_TX_DATA_MAX=3 -DMAC_CFG_TX_MAX=6        /
//                          -DMAC_CFG_RX_MAX=3) -f "D:\desk\cc2530\ch5\3 new  /
//                          task perfect ROOM1 DHT22\ZStack-2.5.1a\Projects\z /
//                          stack\Samples\SampleApp\CC2530DB\..\..\..\Tools\C /
//                          C2530DB\f8wConfig.cfg" (-DZIGBEEPRO -DSECURE=0    /
//                          -DZG_SECURE_DYNAMIC=0 -DREFLECTOR                 /
//                          -DDEFAULT_CHANLIST=0x00000800                     /
//                          -DZDAPP_CONFIG_PAN_ID=0xFFF1                      /
//                          -DNWK_START_DELAY=100 -DEXTENDED_JOINING_RANDOM_M /
//                          ASK=0x007F -DBEACON_REQUEST_DELAY=100             /
//                          -DBEACON_REQ_DELAY_MASK=0x00FF                    /
//                          -DLINK_STATUS_JITTER_MASK=0x007F                  /
//                          -DROUTE_EXPIRY_TIME=30 -DAPSC_ACK_WAIT_DURATION_P /
//                          OLLED=3000 -DNWK_INDIRECT_MSG_TIMEOUT=7           /
//                          -DMAX_RREQ_ENTRIES=8 -DAPSC_MAX_FRAME_RETRIES=3   /
//                          -DNWK_MAX_DATA_RETRIES=2                          /
//                          -DMAX_POLL_FAILURE_RETRIES=2 -DMAX_BCAST=9        /
//                          -DAPS_MAX_GROUPS=16 -DMAX_RTG_ENTRIES=40          /
//                          -DNWK_MAX_BINDING_ENTRIES=4                       /
//                          -DMAX_BINDING_CLUSTER_IDS=4                       /
//                          "-DDEFAULT_KEY={0x01, 0x03, 0x05, 0x07, 0x09,     /
//                          0x0B, 0x0D, 0x0F, 0x00, 0x02, 0x04, 0x06, 0x08,   /
//                          0x0A, 0x0C, 0x0D}" -DMAC_MAX_FRAME_SIZE=116       /
//                          -DZDNWKMGR_MIN_TRANSMISSIONS=20 "-DCONST=const    /
//                          __code" -DGENERIC=__generic                       /
//                          -DRFD_RCVC_ALWAYS_ON=FALSE -DPOLL_RATE=1000       /
//                          -DQUEUED_POLL_RATE=100 -DRESPONSE_POLL_RATE=100)  /
//                          -DREJOIN_POLL_RATE=440 "D:\desk\cc2530\ch5\3 new  /
//                          task perfect ROOM1 DHT22\ZStack-2.5.1a\Projects\z /
//                          stack\Samples\SampleApp\Source\UART.C" -D         /
//                          NWK_AUTO_POLL -D ZTOOL_P1 -D MT_TASK -D           /
//                          MT_SYS_FUNC -D MT_ZDO_FUNC -D                     /
//                          LCD_SUPPORTED=DEBUG -lC "D:\desk\cc2530\ch5\3     /
//                          new task perfect ROOM1 DHT22\ZStack-2.5.1a\Projec /
//                          ts\zstack\Samples\SampleApp\CC2530DB\EndDeviceEB\ /
//                          List\" -lA "D:\desk\cc2530\ch5\3 new task         /
//                          perfect ROOM1 DHT22\ZStack-2.5.1a\Projects\zstack /
//                          \Samples\SampleApp\CC2530DB\EndDeviceEB\List\"    /
//                          --diag_suppress Pe001,Pa010 -o                    /
//                          "D:\desk\cc2530\ch5\3 new task perfect ROOM1      /
//                          DHT22\ZStack-2.5.1a\Projects\zstack\Samples\Sampl /
//                          eApp\CC2530DB\EndDeviceEB\Obj\" -e                /
//                          --no_code_motion --debug --core=plain             /
//                          --dptr=16,1 --data_model=large                    /
//                          --code_model=banked --calling_convention=xdata_re /
//                          entrant --place_constants=data_rom                /
//                          --nr_virtual_regs 16 -I "D:\desk\cc2530\ch5\3     /
//                          new task perfect ROOM1 DHT22\ZStack-2.5.1a\Projec /
//                          ts\zstack\Samples\SampleApp\CC2530DB\" -I         /
//                          "D:\desk\cc2530\ch5\3 new task perfect ROOM1      /
//                          DHT22\ZStack-2.5.1a\Projects\zstack\Samples\Sampl /
//                          eApp\CC2530DB\..\Source\" -I                      /
//                          "D:\desk\cc2530\ch5\3 new task perfect ROOM1      /
//                          DHT22\ZStack-2.5.1a\Projects\zstack\Samples\Sampl /
//                          eApp\CC2530DB\..\..\..\ZMain\TI2530DB\" -I        /
//                          "D:\desk\cc2530\ch5\3 new task perfect ROOM1      /
//                          DHT22\ZStack-2.5.1a\Projects\zstack\Samples\Sampl /
//                          eApp\CC2530DB\..\..\..\..\..\Components\hal\inclu /
//                          de\" -I "D:\desk\cc2530\ch5\3 new task perfect    /
//                          ROOM1 DHT22\ZStack-2.5.1a\Projects\zstack\Samples /
//                          \SampleApp\CC2530DB\..\..\..\..\..\Components\hal /
//                          \target\CC2530EB\" -I "D:\desk\cc2530\ch5\3 new   /
//                          task perfect ROOM1 DHT22\ZStack-2.5.1a\Projects\z /
//                          stack\Samples\SampleApp\CC2530DB\..\..\..\..\..\C /
//                          omponents\mac\include\" -I "D:\desk\cc2530\ch5\3  /
//                          new task perfect ROOM1 DHT22\ZStack-2.5.1a\Projec /
//                          ts\zstack\Samples\SampleApp\CC2530DB\..\..\..\..\ /
//                          ..\Components\mac\high_level\" -I                 /
//                          "D:\desk\cc2530\ch5\3 new task perfect ROOM1      /
//                          DHT22\ZStack-2.5.1a\Projects\zstack\Samples\Sampl /
//                          eApp\CC2530DB\..\..\..\..\..\Components\mac\low_l /
//                          evel\srf04\" -I "D:\desk\cc2530\ch5\3 new task    /
//                          perfect ROOM1 DHT22\ZStack-2.5.1a\Projects\zstack /
//                          \Samples\SampleApp\CC2530DB\..\..\..\..\..\Compon /
//                          ents\mac\low_level\srf04\single_chip\" -I         /
//                          "D:\desk\cc2530\ch5\3 new task perfect ROOM1      /
//                          DHT22\ZStack-2.5.1a\Projects\zstack\Samples\Sampl /
//                          eApp\CC2530DB\..\..\..\..\..\Components\mt\" -I   /
//                          "D:\desk\cc2530\ch5\3 new task perfect ROOM1      /
//                          DHT22\ZStack-2.5.1a\Projects\zstack\Samples\Sampl /
//                          eApp\CC2530DB\..\..\..\..\..\Components\osal\incl /
//                          ude\" -I "D:\desk\cc2530\ch5\3 new task perfect   /
//                          ROOM1 DHT22\ZStack-2.5.1a\Projects\zstack\Samples /
//                          \SampleApp\CC2530DB\..\..\..\..\..\Components\ser /
//                          vices\saddr\" -I "D:\desk\cc2530\ch5\3 new task   /
//                          perfect ROOM1 DHT22\ZStack-2.5.1a\Projects\zstack /
//                          \Samples\SampleApp\CC2530DB\..\..\..\..\..\Compon /
//                          ents\services\sdata\" -I "D:\desk\cc2530\ch5\3    /
//                          new task perfect ROOM1 DHT22\ZStack-2.5.1a\Projec /
//                          ts\zstack\Samples\SampleApp\CC2530DB\..\..\..\..\ /
//                          ..\Components\stack\af\" -I                       /
//                          "D:\desk\cc2530\ch5\3 new task perfect ROOM1      /
//                          DHT22\ZStack-2.5.1a\Projects\zstack\Samples\Sampl /
//                          eApp\CC2530DB\..\..\..\..\..\Components\stack\nwk /
//                          \" -I "D:\desk\cc2530\ch5\3 new task perfect      /
//                          ROOM1 DHT22\ZStack-2.5.1a\Projects\zstack\Samples /
//                          \SampleApp\CC2530DB\..\..\..\..\..\Components\sta /
//                          ck\sapi\" -I "D:\desk\cc2530\ch5\3 new task       /
//                          perfect ROOM1 DHT22\ZStack-2.5.1a\Projects\zstack /
//                          \Samples\SampleApp\CC2530DB\..\..\..\..\..\Compon /
//                          ents\stack\sec\" -I "D:\desk\cc2530\ch5\3 new     /
//                          task perfect ROOM1 DHT22\ZStack-2.5.1a\Projects\z /
//                          stack\Samples\SampleApp\CC2530DB\..\..\..\..\..\C /
//                          omponents\stack\sys\" -I "D:\desk\cc2530\ch5\3    /
//                          new task perfect ROOM1 DHT22\ZStack-2.5.1a\Projec /
//                          ts\zstack\Samples\SampleApp\CC2530DB\..\..\..\..\ /
//                          ..\Components\stack\zdo\" -I                      /
//                          "D:\desk\cc2530\ch5\3 new task perfect ROOM1      /
//                          DHT22\ZStack-2.5.1a\Projects\zstack\Samples\Sampl /
//                          eApp\CC2530DB\..\..\..\..\..\Components\zmac\"    /
//                          -I "D:\desk\cc2530\ch5\3 new task perfect ROOM1   /
//                          DHT22\ZStack-2.5.1a\Projects\zstack\Samples\Sampl /
//                          eApp\CC2530DB\..\..\..\..\..\Components\zmac\f8w\ /
//                          " -Ohz                                            /
//    List file          =  D:\desk\cc2530\ch5\3 new task perfect ROOM1       /
//                          DHT22\ZStack-2.5.1a\Projects\zstack\Samples\Sampl /
//                          eApp\CC2530DB\EndDeviceEB\List\UART.s51           /
//                                                                            /
//                                                                            /
///////////////////////////////////////////////////////////////////////////////

        NAME UART

        RTMODEL "__SystemLibrary", "CLib"
        RTMODEL "__calling_convention", "xdata_reentrant"
        RTMODEL "__code_model", "banked"
        RTMODEL "__core", "plain"
        RTMODEL "__data_model", "large"
        RTMODEL "__dptr_size", "16"
        RTMODEL "__extended_stack", "disabled"
        RTMODEL "__location_for_constants", "data"
        RTMODEL "__number_of_dptrs", "1"
        RTMODEL "__rt_version", "1"

        RSEG DOVERLAY:DATA:NOROOT(0)
        RSEG IOVERLAY:IDATA:NOROOT(0)
        RSEG ISTACK:IDATA:NOROOT(0)
        RSEG PSTACK:XDATA:NOROOT(0)
        RSEG XSTACK:XDATA:NOROOT(0)

        EXTERN ?BANKED_ENTER_XDATA
        EXTERN ?BANKED_LEAVE_XDATA
        EXTERN ?BDISPATCH
        EXTERN ?BRET

        PUBLIC ??InitUart?relay
        FUNCTION ??InitUart?relay,0203H
        PUBLIC ??UartSendString?relay
        FUNCTION ??UartSendString?relay,0203H
        PUBLIC InitUart
        FUNCTION InitUart,0203H
        ARGFRAME XSTACK, 0, STACK
        PUBWEAK P0SEL
        PUBWEAK P2DIR
        PUBWEAK PERCFG
        PUBWEAK U0BAUD
        PUBWEAK U0CSR
        PUBWEAK U0DBUF
        PUBWEAK U0GCR
        PUBLIC UartSendString
        FUNCTION UartSendString,0203H
        ARGFRAME XSTACK, 0, STACK
        LOCFRAME XSTACK, 9, STACK
        PUBWEAK _A_IRCON2
        
          CFI Names cfiNames0
          CFI StackFrame CFA_SP SP IDATA
          CFI StackFrame CFA_PSP16 PSP16 XDATA
          CFI StackFrame CFA_XSP16 XSP16 XDATA
          CFI StaticOverlayFrame CFA_IOVERLAY IOVERLAY
          CFI StaticOverlayFrame CFA_DOVERLAY DOVERLAY
          CFI Resource `PSW.CY`:1, `B.BR0`:1, `B.BR1`:1, `B.BR2`:1, `B.BR3`:1
          CFI Resource `B.BR4`:1, `B.BR5`:1, `B.BR6`:1, `B.BR7`:1, `VB.BR8`:1
          CFI Resource `VB.BR9`:1, `VB.BR10`:1, `VB.BR11`:1, `VB.BR12`:1
          CFI Resource `VB.BR13`:1, `VB.BR14`:1, `VB.BR15`:1, VB:8, B:8, A:8
          CFI Resource PSW:8, DPL0:8, DPH0:8, R0:8, R1:8, R2:8, R3:8, R4:8, R5:8
          CFI Resource R6:8, R7:8, V0:8, V1:8, V2:8, V3:8, V4:8, V5:8, V6:8, V7:8
          CFI Resource V8:8, V9:8, V10:8, V11:8, V12:8, V13:8, V14:8, V15:8, SP:8
          CFI Resource PSPH:8, PSPL:8, PSP16:16, XSPH:8, XSPL:8, XSP16:16
          CFI VirtualResource ?RET:24
          CFI Resource ?BRET_EXT:8
          CFI VirtualResource ?RET_HIGH:8, ?RET_LOW:8
          CFI ResourceParts PSP16 PSPH, PSPL
          CFI ResourceParts XSP16 XSPH, XSPL
          CFI ResourceParts ?RET ?BRET_EXT, ?RET_HIGH, ?RET_LOW
          CFI EndNames cfiNames0
        
          CFI Common cfiCommon0 Using cfiNames0
          CFI CodeAlign 1
          CFI DataAlign -1
          CFI ReturnAddress ?RET CODE
          CFI CFA_DOVERLAY Used
          CFI CFA_IOVERLAY Used
          CFI CFA_SP SP+-3
          CFI CFA_PSP16 PSP16+0
          CFI CFA_XSP16 XSP16+0
          CFI `PSW.CY` SameValue
          CFI `B.BR0` SameValue
          CFI `B.BR1` SameValue
          CFI `B.BR2` SameValue
          CFI `B.BR3` SameValue
          CFI `B.BR4` SameValue
          CFI `B.BR5` SameValue
          CFI `B.BR6` SameValue
          CFI `B.BR7` SameValue
          CFI `VB.BR8` SameValue
          CFI `VB.BR9` SameValue
          CFI `VB.BR10` SameValue
          CFI `VB.BR11` SameValue
          CFI `VB.BR12` SameValue
          CFI `VB.BR13` SameValue
          CFI `VB.BR14` SameValue
          CFI `VB.BR15` SameValue
          CFI VB SameValue
          CFI B Undefined
          CFI A Undefined
          CFI PSW SameValue
          CFI DPL0 SameValue
          CFI DPH0 SameValue
          CFI R0 Undefined
          CFI R1 Undefined
          CFI R2 Undefined
          CFI R3 Undefined
          CFI R4 Undefined
          CFI R5 Undefined
          CFI R6 SameValue
          CFI R7 SameValue
          CFI V0 SameValue
          CFI V1 SameValue
          CFI V2 SameValue
          CFI V3 SameValue
          CFI V4 SameValue
          CFI V5 SameValue
          CFI V6 SameValue
          CFI V7 SameValue
          CFI V8 SameValue
          CFI V9 SameValue
          CFI V10 SameValue
          CFI V11 SameValue
          CFI V12 SameValue
          CFI V13 SameValue
          CFI V14 SameValue
          CFI V15 SameValue
          CFI PSPH Undefined
          CFI PSPL Undefined
          CFI XSPH Undefined
          CFI XSPL Undefined
          CFI ?RET Concat
          CFI ?BRET_EXT Frame(CFA_SP, 3)
          CFI ?RET_HIGH Frame(CFA_SP, 2)
          CFI ?RET_LOW Frame(CFA_SP, 1)
          CFI EndCommon cfiCommon0
        
InitUart            SYMBOL "InitUart"
??InitUart?relay    SYMBOL "?relay", InitUart
UartSendString      SYMBOL "UartSendString"
??UartSendString?relay SYMBOL "?relay", UartSendString

// D:\desk\cc2530\ch5\3 new task perfect ROOM1 DHT22\ZStack-2.5.1a\Projects\zstack\Samples\SampleApp\Source\UART.C
//    1 #include <ioCC2530.h>

        ASEGN SFR_AN:DATA:NOROOT,086H
// unsigned char volatile __sfr U0CSR
U0CSR:
        DATA8
        DS 1

        ASEGN SFR_AN:DATA:NOROOT,0c1H
// unsigned char volatile __sfr U0DBUF
U0DBUF:
        DATA8
        DS 1

        ASEGN SFR_AN:DATA:NOROOT,0c2H
// unsigned char volatile __sfr U0BAUD
U0BAUD:
        DATA8
        DS 1

        ASEGN SFR_AN:DATA:NOROOT,0c5H
// unsigned char volatile __sfr U0GCR
U0GCR:
        DATA8
        DS 1

        ASEGN SFR_AN:DATA:NOROOT,0e8H
// union <unnamed> volatile __sfr _A_IRCON2
_A_IRCON2:
        DATA8
        DS 1

        ASEGN SFR_AN:DATA:NOROOT,0f1H
// unsigned char volatile __sfr PERCFG
PERCFG:
        DATA8
        DS 1

        ASEGN SFR_AN:DATA:NOROOT,0f3H
// unsigned char volatile __sfr P0SEL
P0SEL:
        DATA8
        DS 1

        ASEGN SFR_AN:DATA:NOROOT,0ffH
// unsigned char volatile __sfr P2DIR
P2DIR:
        DATA8
        DS 1
//    2 #include "UART.H" 
//    3 
//    4 // 串口初始化函数     

        RSEG BANKED_CODE:CODE:NOROOT(0)
//    5 void InitUart(void)
InitUart:
          CFI Block cfiBlock0 Using cfiCommon0
          CFI Function InitUart
        CODE
//    6 {
        ; Saved register size: 0
        ; Auto size: 0
//    7  //   CLKCONCMD &= ~0x40;      // 设置系统时钟源为 32MHZ晶振
//    8  //   while(CLKCONSTA & 0x40); // 等待晶振稳定 
//    9  //   CLKCONCMD &= ~0x47;      // 设置系统主时钟频率为 32MHZ
//   10     
//   11     PERCFG = 0x00;           //位置1 P0口 
        MOV     0xf1,#0x0
//   12     P0SEL = 0x0c;            //P0_2,P0_3,P0_4,P0_5用作串口,第二功能 
        MOV     0xf3,#0xc
//   13     P2DIR &= ~0xC0;          //P0 优先作为UART0 ，优先级
        ANL     0xff,#0x3f
//   14     
//   15     U0CSR |= 0x80;           //UART 方式 
        ORL     0x86,#0x80
//   16     U0GCR |= 11;             //U0GCR与U0BAUD配合     
        ORL     0xc5,#0xb
//   17     U0BAUD |= 216;           // 波特率设为115200 
        ORL     0xc2,#0xd8
//   18     UTX0IF = 0;              //UART0 TX 中断标志初始置位0 
        CLR     0xe8.1
//   19     
//   20 }
        LJMP    ?BRET
          CFI EndBlock cfiBlock0
        REQUIRE PERCFG
        REQUIRE P0SEL
        REQUIRE P2DIR
        REQUIRE U0CSR
        REQUIRE U0GCR
        REQUIRE U0BAUD
        REQUIRE _A_IRCON2
//   21 
//   22 //串口发送函数    

        RSEG BANKED_CODE:CODE:NOROOT(0)
//   23 void UartSendString(unsigned char *Data, int len) 
UartSendString:
          CFI Block cfiBlock1 Using cfiCommon0
          CFI Function UartSendString
        CODE
//   24 {
        MOV     A,#-0x9
        LCALL   ?BANKED_ENTER_XDATA
          CFI DPH0 load(1, XDATA, add(CFA_XSP16, literal(-1)))
          CFI DPL0 load(1, XDATA, add(CFA_XSP16, literal(-2)))
          CFI ?BRET_EXT load(1, XDATA, add(CFA_XSP16, literal(-3)))
          CFI ?RET_HIGH load(1, XDATA, add(CFA_XSP16, literal(-4)))
          CFI ?RET_LOW load(1, XDATA, add(CFA_XSP16, literal(-5)))
          CFI R7 load(1, XDATA, add(CFA_XSP16, literal(-6)))
          CFI V0 load(1, XDATA, add(CFA_XSP16, literal(-7)))
          CFI VB load(1, XDATA, add(CFA_XSP16, literal(-8)))
          CFI R6 load(1, XDATA, add(CFA_XSP16, literal(-9)))
          CFI CFA_SP SP+0
          CFI CFA_XSP16 add(XSP16, 9)
        ; Saved register size: 9
        ; Auto size: 0
//   25     int j; 
//   26     for(j=0;j<len;j++) 
        MOV     R0,#0x0
        MOV     R1,#0x0
        SJMP    ??UartSendString_0
//   27     { 
//   28         U0DBUF = *Data++; 
??UartSendString_1:
        MOV     DPL,R2
        MOV     DPH,R3
        MOVX    A,@DPTR
        MOV     0xc1,A
        INC     DPTR
        MOV     R2,DPL
        MOV     R3,DPH
//   29         while(UTX0IF == 0); 
??UartSendString_2:
        MOV     C,0xe8.1
        JNC     ??UartSendString_2
//   30         UTX0IF = 0; 
        CLR     0xe8.1
//   31     }
        MOV     A,R0
        ADD     A,#0x1
        INC     R0
        MOV     A,R1
        ADDC    A,#0x0
        MOV     R1,A
??UartSendString_0:
        CLR     C
        MOV     A,R0
        SUBB    A,R4
        MOV     A,R1
        SUBB    A,R5
        MOV     C,0xD0 /* PSW */.2
        XRL     A,PSW
        RLC     A
        JC      ??UartSendString_1
//   32     U0DBUF = 0x0A;        
        MOV     0xc1,#0xa
//   33     while(UTX0IF == 0);
??UartSendString_3:
        MOV     C,0xe8.1
        JNC     ??UartSendString_3
//   34     UTX0IF = 0; 
        CLR     0xe8.1
//   35     
//   36 }
        MOV     R7,#0x1
        LJMP    ?BANKED_LEAVE_XDATA
          CFI EndBlock cfiBlock1
        REQUIRE U0DBUF
        REQUIRE _A_IRCON2

        RSEG BANK_RELAYS:CODE:REORDER:NOROOT(0)
??InitUart?relay:
        CODE
        LCALL   ?BDISPATCH
        DATA24
        DC24    InitUart

        RSEG BANK_RELAYS:CODE:REORDER:NOROOT(0)
??UartSendString?relay:
        CODE
        LCALL   ?BDISPATCH
        DATA24
        DC24    UartSendString

        END
//   37 /****************************************************
//   38 For example:
//   39 	unsigned char uchar_Test[10] = "abcdefghij"
//   40 	
//   41 	UartSendString(uchar_Test,10);
//   42 ****************************************************/
// 
// 86 bytes in segment BANKED_CODE
// 12 bytes in segment BANK_RELAYS
//  8 bytes in segment SFR_AN
// 
// 98 bytes of CODE memory
//  0 bytes of DATA memory (+ 8 bytes shared)
//
//Errors: none
//Warnings: none
